
resume1.elf:     file format elf32-littlearm


Disassembly of section .text:

00000000 <resume_head>:
       0:	ea00000a 	b	30 <_start>
       4:	4e4f4765 	cdpmi	7, 4, cr4, cr15, cr5, {3}
       8:	3054422e 	subscc	r4, r4, lr, lsr #4
       c:	5f0a6c39 	svcpl	0x000a6c39
      10:	00000400 	andeq	r0, r0, r0, lsl #8
      14:	00000030 	andeq	r0, r0, r0, lsr r0
      18:	30303131 	eorscc	r3, r0, r1, lsr r1
      1c:	30333231 	eorscc	r3, r3, r1, lsr r2
      20:	30333231 	eorscc	r3, r3, r1, lsr r2
      24:	30303131 	eorscc	r3, r0, r1, lsr r1
	...

00000030 <_start>:
      30:	e10f0000 	mrs	r0, CPSR
      34:	e3c0001f 	bic	r0, r0, #31
      38:	e3800013 	orr	r0, r0, #19
      3c:	e38000c0 	orr	r0, r0, #192	; 0xc0
      40:	e3c00c02 	bic	r0, r0, #512	; 0x200
      44:	e121f000 	msr	CPSR_c, r0
      48:	ee110f10 	mrc	15, 0, r0, cr1, cr0, {0}
      4c:	e3c00005 	bic	r0, r0, #5
      50:	e3c00b06 	bic	r0, r0, #6144	; 0x1800
      54:	e3c00002 	bic	r0, r0, #2
      58:	ee010f10 	mcr	15, 0, r0, cr1, cr0, {0}
      5c:	f57ff04f 	dsb	sy
      60:	f57ff06f 	isb	sy
      64:	e59f0020 	ldr	r0, [pc, #32]	; 8c <_start+0x5c>
      68:	e5901000 	ldr	r1, [r0]
      6c:	e3811b06 	orr	r1, r1, #6144	; 0x1800
      70:	e5801000 	str	r1, [r0]
      74:	ee100fb0 	mrc	15, 0, r0, cr0, cr0, {5}
      78:	e1a00500 	lsl	r0, r0, #10
      7c:	e280da06 	add	sp, r0, #24576	; 0x6000
      80:	eb000087 	bl	2a4 <set_pll>
      84:	eb000050 	bl	1cc <resume1_c_part>
      88:	eafffffe 	b	88 <_start+0x58>
      8c:	01c00044 	biceq	r0, r0, r4, asr #32

00000090 <mem_memcpy>:
      90:	e3520000 	cmp	r2, #0
      94:	d12fff1e 	bxle	lr
      98:	e2411001 	sub	r1, r1, #1
      9c:	e0802002 	add	r2, r0, r2
      a0:	e5f13001 	ldrb	r3, [r1, #1]!
      a4:	e4c03001 	strb	r3, [r0], #1
      a8:	e1500002 	cmp	r0, r2
      ac:	1afffffb 	bne	a0 <mem_memcpy+0x10>
      b0:	e12fff1e 	bx	lr

000000b4 <mem_delay>:
      b4:	e92d000f 	push	{r0, r1, r2, r3}
      b8:	e3a01011 	mov	r1, #17
      bc:	e1a03000 	mov	r3, r0

000000c0 <loop2>:
      c0:	e2500001 	subs	r0, r0, #1
      c4:	8afffffd 	bhi	c0 <loop2>
      c8:	e1a00003 	mov	r0, r3
      cc:	e2511001 	subs	r1, r1, #1
      d0:	8afffffa 	bhi	c0 <loop2>
      d4:	e8bd000f 	pop	{r0, r1, r2, r3}
      d8:	e1a0f00e 	mov	pc, lr

000000dc <cpucfg_set_cpu_reset_state>:
      dc:	e280391f 	add	r3, r0, #507904	; 0x7c000
      e0:	e24dd008 	sub	sp, sp, #8
      e4:	e2833071 	add	r3, r3, #113	; 0x71
      e8:	e3a00000 	mov	r0, #0
      ec:	e1a03303 	lsl	r3, r3, #6
      f0:	e5932000 	ldr	r2, [r3]
      f4:	e58d2004 	str	r2, [sp, #4]
      f8:	e59d2004 	ldr	r2, [sp, #4]
      fc:	e3c22003 	bic	r2, r2, #3
     100:	e58d2004 	str	r2, [sp, #4]
     104:	e59d2004 	ldr	r2, [sp, #4]
     108:	e1812002 	orr	r2, r1, r2
     10c:	e58d2004 	str	r2, [sp, #4]
     110:	e59d2004 	ldr	r2, [sp, #4]
     114:	e5832000 	str	r2, [r3]
     118:	e28dd008 	add	sp, sp, #8
     11c:	e12fff1e 	bx	lr

00000120 <super_enable_aw_cpu>:
     120:	e92d4038 	push	{r3, r4, r5, lr}
     124:	e280491f 	add	r4, r0, #507904	; 0x7c000
     128:	e2844071 	add	r4, r4, #113	; 0x71
     12c:	e3a02a01 	mov	r2, #4096	; 0x1000
     130:	e1a04304 	lsl	r4, r4, #6
     134:	e34021f0 	movt	r2, #496	; 0x1f0
     138:	e3a03000 	mov	r3, #0
     13c:	e1a0e300 	lsl	lr, r0, #6
     140:	e5823da4 	str	r3, [r2, #3492]	; 0xda4
     144:	e3a05001 	mov	r5, #1
     148:	e5843000 	str	r3, [r4]
     14c:	e280171f 	add	r1, r0, #8126464	; 0x7c0000
     150:	e592cd84 	ldr	ip, [r2, #3460]	; 0xd84
     154:	e3013c64 	movw	r3, #7268	; 0x1c64
     158:	e1e05015 	mvn	r5, r5, lsl r0
     15c:	e2811e55 	add	r1, r1, #1360	; 0x550
     160:	e34031f0 	movt	r3, #496	; 0x1f0
     164:	e1a01101 	lsl	r1, r1, #2
     168:	e005000c 	and	r0, r5, ip
     16c:	e08e3003 	add	r3, lr, r3
     170:	e5820d84 	str	r0, [r2, #3460]	; 0xd84
     174:	e3a020e7 	mov	r2, #231	; 0xe7
     178:	e5812000 	str	r2, [r1]
     17c:	e5932000 	ldr	r2, [r3]
     180:	e35200e7 	cmp	r2, #231	; 0xe7
     184:	1afffffc 	bne	17c <super_enable_aw_cpu+0x5c>
     188:	e3a02000 	mov	r2, #0
     18c:	e5812000 	str	r2, [r1]
     190:	e5932000 	ldr	r2, [r3]
     194:	e3520000 	cmp	r2, #0
     198:	1afffffc 	bne	190 <super_enable_aw_cpu+0x70>
     19c:	e3a00002 	mov	r0, #2
     1a0:	eb0001b2 	bl	870 <delay_ms>
     1a4:	e3a03a01 	mov	r3, #4096	; 0x1000
     1a8:	e3a00001 	mov	r0, #1
     1ac:	e34031f0 	movt	r3, #496	; 0x1f0
     1b0:	e5932500 	ldr	r2, [r3, #1280]	; 0x500
     1b4:	e0055002 	and	r5, r5, r2
     1b8:	e5835500 	str	r5, [r3, #1280]	; 0x500
     1bc:	eb0001ab 	bl	870 <delay_ms>
     1c0:	e3a03003 	mov	r3, #3
     1c4:	e5843000 	str	r3, [r4]
     1c8:	e8bd8038 	pop	{r3, r4, r5, pc}

000001cc <resume1_c_part>:
     1cc:	e92d4010 	push	{r4, lr}
     1d0:	e3070001 	movw	r0, #28673	; 0x7001
     1d4:	e59f40a8 	ldr	r4, [pc, #168]	; 284 <resume1_c_part+0xb8>
     1d8:	eb000100 	bl	5e0 <save_mem_status_nommu>
     1dc:	eb0003c5 	bl	10f8 <set_copro_default>
     1e0:	e3070002 	movw	r0, #28674	; 0x7002
     1e4:	eb0000fd 	bl	5e0 <save_mem_status_nommu>
     1e8:	e5943014 	ldr	r3, [r4, #20]
     1ec:	e3130002 	tst	r3, #2
     1f0:	1a00001a 	bne	260 <resume1_c_part+0x94>
     1f4:	e59f008c 	ldr	r0, [pc, #140]	; 288 <resume1_c_part+0xbc>
     1f8:	eb000944 	bl	2710 <mem_clk_setdiv>
     1fc:	e59f0088 	ldr	r0, [pc, #136]	; 28c <resume1_c_part+0xc0>
     200:	eb00095f 	bl	2784 <mem_clk_set_pll_factor>
     204:	e3a00000 	mov	r0, #0
     208:	eb000143 	bl	71c <change_runtime_env>
     20c:	e5940018 	ldr	r0, [r4, #24]
     210:	eb000196 	bl	870 <delay_ms>
     214:	e5943014 	ldr	r3, [r4, #20]
     218:	e3130002 	tst	r3, #2
     21c:	1a000015 	bne	278 <resume1_c_part+0xac>
     220:	e3070003 	movw	r0, #28675	; 0x7003
     224:	eb0000ed 	bl	5e0 <save_mem_status_nommu>
     228:	e59f0060 	ldr	r0, [pc, #96]	; 290 <resume1_c_part+0xc4>
     22c:	eb0001c2 	bl	93c <restore_mmu_state>
     230:	e3070013 	movw	r0, #28691	; 0x7013
     234:	eb0000dd 	bl	5b0 <save_mem_status>
     238:	e3070009 	movw	r0, #28681	; 0x7009
     23c:	eb0000db 	bl	5b0 <save_mem_status>
     240:	eb00027d 	bl	c3c <mem_flush_tlb>
     244:	e5943014 	ldr	r3, [r4, #20]
     248:	e3130002 	tst	r3, #2
     24c:	1a000006 	bne	26c <resume1_c_part+0xa0>
     250:	e5940000 	ldr	r0, [r4]
     254:	e59f1038 	ldr	r1, [pc, #56]	; 294 <resume1_c_part+0xc8>
     258:	e8bd4010 	pop	{r4, lr}
     25c:	ea0002eb 	b	e10 <jump_to_resume>
     260:	e59f0030 	ldr	r0, [pc, #48]	; 298 <resume1_c_part+0xcc>
     264:	eb000449 	bl	1390 <serial_puts_nommu>
     268:	eaffffe1 	b	1f4 <resume1_c_part+0x28>
     26c:	e59f0028 	ldr	r0, [pc, #40]	; 29c <resume1_c_part+0xd0>
     270:	eb0004c2 	bl	1580 <serial_puts>
     274:	eafffff5 	b	250 <resume1_c_part+0x84>
     278:	e59f0020 	ldr	r0, [pc, #32]	; 2a0 <resume1_c_part+0xd4>
     27c:	eb000443 	bl	1390 <serial_puts_nommu>
     280:	eaffffe6 	b	220 <resume1_c_part+0x54>
     284:	000029b4 			; <UNDEFINED> instruction: 0x000029b4
     288:	00002ab0 			; <UNDEFINED> instruction: 0x00002ab0
     28c:	00002ac4 	andeq	r2, r0, r4, asr #21
     290:	00002acc 	andeq	r2, r0, ip, asr #21
     294:	000029d0 	ldrdeq	r2, [r0], -r0
     298:	00002890 	muleq	r0, r0, r8
     29c:	000028c4 	andeq	r2, r0, r4, asr #17
     2a0:	000028a0 	andeq	r2, r0, r0, lsr #17

000002a4 <set_pll>:
     2a4:	e92d40f8 	push	{r3, r4, r5, r6, r7, lr}
     2a8:	ee103fb0 	mrc	15, 0, r3, cr0, cr0, {5}
     2ac:	e2133003 	ands	r3, r3, #3
     2b0:	1a00006e 	bne	470 <set_pll+0x1cc>
     2b4:	e59f228c 	ldr	r2, [pc, #652]	; 548 <set_pll+0x2a4>
     2b8:	e1a00003 	mov	r0, r3
     2bc:	e59f1288 	ldr	r1, [pc, #648]	; 54c <set_pll+0x2a8>
     2c0:	e5923000 	ldr	r3, [r2]
     2c4:	e4c30001 	strb	r0, [r3], #1
     2c8:	e1530001 	cmp	r3, r1
     2cc:	9afffffc 	bls	2c4 <set_pll+0x20>
     2d0:	e5823000 	str	r3, [r2]
     2d4:	e3a00000 	mov	r0, #0
     2d8:	e59f5270 	ldr	r5, [pc, #624]	; 550 <set_pll+0x2ac>
     2dc:	eb0008ff 	bl	26e0 <mem_clk_init>
     2e0:	e1a04000 	mov	r4, r0
     2e4:	e3070026 	movw	r0, #28710	; 0x7026
     2e8:	eb0000bc 	bl	5e0 <save_mem_status_nommu>
     2ec:	e3a03801 	mov	r3, #65536	; 0x10000
     2f0:	e3a01000 	mov	r1, #0
     2f4:	e5843050 	str	r3, [r4, #80]	; 0x50
     2f8:	e1a00005 	mov	r0, r5
     2fc:	e3441301 	movt	r1, #17153	; 0x4301
     300:	e3a02f77 	mov	r2, #476	; 0x1dc
     304:	ebffff61 	bl	90 <mem_memcpy>
     308:	e5953014 	ldr	r3, [r5, #20]
     30c:	e3130080 	tst	r3, #128	; 0x80
     310:	1a000075 	bne	4ec <set_pll+0x248>
     314:	e59f0238 	ldr	r0, [pc, #568]	; 554 <set_pll+0x2b0>
     318:	eb00093c 	bl	2810 <mem_clk_set_misc>
     31c:	e3012011 	movw	r2, #4113	; 0x1011
     320:	e3013811 	movw	r3, #6161	; 0x1811
     324:	e3483004 	movt	r3, #32772	; 0x8004
     328:	e3482000 	movt	r2, #32768	; 0x8000
     32c:	e5842000 	str	r2, [r4]
     330:	e3a01000 	mov	r1, #0
     334:	e5843028 	str	r3, [r4, #40]	; 0x28
     338:	e3a00001 	mov	r0, #1
     33c:	eb0000d4 	bl	694 <init_perfcounters>
     340:	e3a00000 	mov	r0, #0
     344:	eb0000f4 	bl	71c <change_runtime_env>
     348:	e3a0000a 	mov	r0, #10
     34c:	eb000147 	bl	870 <delay_ms>
     350:	e5953014 	ldr	r3, [r5, #20]
     354:	e3130002 	tst	r3, #2
     358:	1a000061 	bne	4e4 <set_pll+0x240>
     35c:	e3a0661f 	mov	r6, #32505856	; 0x1f00000
     360:	e3a03000 	mov	r3, #0
     364:	e5863114 	str	r3, [r6, #276]	; 0x114
     368:	e5863108 	str	r3, [r6, #264]	; 0x108
     36c:	e586310c 	str	r3, [r6, #268]	; 0x10c
     370:	e5863110 	str	r3, [r6, #272]	; 0x110
     374:	f57ff04f 	dsb	sy
     378:	e3a00001 	mov	r0, #1
     37c:	ebffff67 	bl	120 <super_enable_aw_cpu>
     380:	e3a00002 	mov	r0, #2
     384:	ebffff65 	bl	120 <super_enable_aw_cpu>
     388:	e3a00003 	mov	r0, #3
     38c:	ebffff63 	bl	120 <super_enable_aw_cpu>
     390:	e320f002 	wfe
     394:	e3070035 	movw	r0, #28725	; 0x7035
     398:	eb000090 	bl	5e0 <save_mem_status_nommu>
     39c:	e5963108 	ldr	r3, [r6, #264]	; 0x108
     3a0:	e35300ff 	cmp	r3, #255	; 0xff
     3a4:	1afffff9 	bne	390 <set_pll+0xec>
     3a8:	e596310c 	ldr	r3, [r6, #268]	; 0x10c
     3ac:	e35300ff 	cmp	r3, #255	; 0xff
     3b0:	1afffff6 	bne	390 <set_pll+0xec>
     3b4:	e5963110 	ldr	r3, [r6, #272]	; 0x110
     3b8:	e35300ff 	cmp	r3, #255	; 0xff
     3bc:	1afffff3 	bne	390 <set_pll+0xec>
     3c0:	e3a0261f 	mov	r2, #32505856	; 0x1f00000
     3c4:	e5823114 	str	r3, [r2, #276]	; 0x114
     3c8:	f57ff04f 	dsb	sy
     3cc:	e320f004 	sev
     3d0:	e3a06a01 	mov	r6, #4096	; 0x1000
     3d4:	e3070039 	movw	r0, #28729	; 0x7039
     3d8:	e34061f0 	movt	r6, #496	; 0x1f0
     3dc:	eb00007f 	bl	5e0 <save_mem_status_nommu>
     3e0:	e5952014 	ldr	r2, [r5, #20]
     3e4:	e2022002 	and	r2, r2, #2
     3e8:	ea000001 	b	3f4 <set_pll+0x150>
     3ec:	e3520000 	cmp	r2, #0
     3f0:	1a000045 	bne	50c <set_pll+0x268>
     3f4:	e5963c88 	ldr	r3, [r6, #3208]	; 0xc88
     3f8:	e3a07a01 	mov	r7, #4096	; 0x1000
     3fc:	e34071f0 	movt	r7, #496	; 0x1f0
     400:	e3130004 	tst	r3, #4
     404:	0afffff8 	beq	3ec <set_pll+0x148>
     408:	e5963cc8 	ldr	r3, [r6, #3272]	; 0xcc8
     40c:	e3130004 	tst	r3, #4
     410:	0afffff5 	beq	3ec <set_pll+0x148>
     414:	e5963d08 	ldr	r3, [r6, #3336]	; 0xd08
     418:	e3130004 	tst	r3, #4
     41c:	0afffff2 	beq	3ec <set_pll+0x148>
     420:	e307003a 	movw	r0, #28730	; 0x703a
     424:	eb00006d 	bl	5e0 <save_mem_status_nommu>
     428:	e5973500 	ldr	r3, [r7, #1280]	; 0x500
     42c:	e3a00001 	mov	r0, #1
     430:	e383300e 	orr	r3, r3, #14
     434:	e5873500 	str	r3, [r7, #1280]	; 0x500
     438:	eb00010c 	bl	870 <delay_ms>
     43c:	e307003b 	movw	r0, #28731	; 0x703b
     440:	eb000066 	bl	5e0 <save_mem_status_nommu>
     444:	e3a030ff 	mov	r3, #255	; 0xff
     448:	e307003c 	movw	r0, #28732	; 0x703c
     44c:	e5873544 	str	r3, [r7, #1348]	; 0x544
     450:	e5873548 	str	r3, [r7, #1352]	; 0x548
     454:	e587354c 	str	r3, [r7, #1356]	; 0x54c
     458:	eb000060 	bl	5e0 <save_mem_status_nommu>
     45c:	e3a03802 	mov	r3, #131072	; 0x20000
     460:	e307003d 	movw	r0, #28733	; 0x703d
     464:	e5843050 	str	r3, [r4, #80]	; 0x50
     468:	e8bd40f8 	pop	{r3, r4, r5, r6, r7, lr}
     46c:	ea00005b 	b	5e0 <save_mem_status_nommu>
     470:	e3a02000 	mov	r2, #0
     474:	ee082f33 	mcr	15, 0, r2, cr8, cr3, {1}
     478:	f57ff04f 	dsb	sy
     47c:	e283271f 	add	r2, r3, #8126464	; 0x7c0000
     480:	e3a010ff 	mov	r1, #255	; 0xff
     484:	e2822041 	add	r2, r2, #65	; 0x41
     488:	e1a02102 	lsl	r2, r2, #2
     48c:	e5821000 	str	r1, [r2]
     490:	f57ff04f 	dsb	sy
     494:	e320f004 	sev
     498:	e1a03403 	lsl	r3, r3, #8
     49c:	e3a0661f 	mov	r6, #32505856	; 0x1f00000
     4a0:	e3834a07 	orr	r4, r3, #28672	; 0x7000
     4a4:	e3845045 	orr	r5, r4, #69	; 0x45
     4a8:	e320f002 	wfe
     4ac:	e1a00005 	mov	r0, r5
     4b0:	eb000051 	bl	5fc <save_cpux_mem_status_nommu>
     4b4:	e5963114 	ldr	r3, [r6, #276]	; 0x114
     4b8:	e35300ff 	cmp	r3, #255	; 0xff
     4bc:	1afffff9 	bne	4a8 <set_pll+0x204>
     4c0:	e3840046 	orr	r0, r4, #70	; 0x46
     4c4:	eb00004c 	bl	5fc <save_cpux_mem_status_nommu>
     4c8:	f57ff01f 	clrex
     4cc:	f57ff06f 	isb	sy
     4d0:	f57ff04f 	dsb	sy
     4d4:	e3840047 	orr	r0, r4, #71	; 0x47
     4d8:	eb000047 	bl	5fc <save_cpux_mem_status_nommu>
     4dc:	e320f003 	wfi
     4e0:	eafffffd 	b	4dc <set_pll+0x238>
     4e4:	eb000381 	bl	12f0 <serial_init_nommu>
     4e8:	eaffff9b 	b	35c <set_pll+0xb8>
     4ec:	e3a03000 	mov	r3, #0
     4f0:	e3032330 	movw	r2, #13104	; 0x3330
     4f4:	e34031c2 	movt	r3, #450	; 0x1c2
     4f8:	e3402003 	movt	r2, #3
     4fc:	e5832900 	str	r2, [r3, #2304]	; 0x900
     500:	e3070027 	movw	r0, #28711	; 0x7027
     504:	eb000035 	bl	5e0 <save_mem_status_nommu>
     508:	eaffff81 	b	314 <set_pll+0x70>
     50c:	e59f0044 	ldr	r0, [pc, #68]	; 558 <set_pll+0x2b4>
     510:	eb000605 	bl	1d2c <printk_nommu>
     514:	e5961c88 	ldr	r1, [r6, #3208]	; 0xc88
     518:	e59f003c 	ldr	r0, [pc, #60]	; 55c <set_pll+0x2b8>
     51c:	e2011004 	and	r1, r1, #4
     520:	eb000601 	bl	1d2c <printk_nommu>
     524:	e5961cc8 	ldr	r1, [r6, #3272]	; 0xcc8
     528:	e59f0030 	ldr	r0, [pc, #48]	; 560 <set_pll+0x2bc>
     52c:	e2011004 	and	r1, r1, #4
     530:	eb0005fd 	bl	1d2c <printk_nommu>
     534:	e5961d08 	ldr	r1, [r6, #3336]	; 0xd08
     538:	e59f0024 	ldr	r0, [pc, #36]	; 564 <set_pll+0x2c0>
     53c:	e2011004 	and	r1, r1, #4
     540:	eb0005f9 	bl	1d2c <printk_nommu>
     544:	eaffffa5 	b	3e0 <set_pll+0x13c>
     548:	000029b0 			; <UNDEFINED> instruction: 0x000029b0
     54c:	00002e88 	andeq	r2, r0, r8, lsl #29
     550:	000029b4 			; <UNDEFINED> instruction: 0x000029b4
     554:	00002ab8 			; <UNDEFINED> instruction: 0x00002ab8
     558:	000028f4 	strdeq	r2, [r0], -r4
     55c:	00002914 	andeq	r2, r0, r4, lsl r9
     560:	00002928 	andeq	r2, r0, r8, lsr #18
     564:	0000293c 	andeq	r2, r0, ip, lsr r9

00000568 <busy_waiting>:
     568:	e24dd008 	sub	sp, sp, #8
     56c:	e3a03001 	mov	r3, #1
     570:	e58d3004 	str	r3, [sp, #4]
     574:	e59d3004 	ldr	r3, [sp, #4]
     578:	e3530001 	cmp	r3, #1
     57c:	0afffffc 	beq	574 <busy_waiting+0xc>
     580:	e28dd008 	add	sp, sp, #8
     584:	e12fff1e 	bx	lr

00000588 <fake_busy_waiting>:
     588:	e24dd008 	sub	sp, sp, #8
     58c:	e3a03002 	mov	r3, #2
     590:	e58d3004 	str	r3, [sp, #4]
     594:	e59d3004 	ldr	r3, [sp, #4]
     598:	e3530001 	cmp	r3, #1
     59c:	0afffffc 	beq	594 <fake_busy_waiting+0xc>
     5a0:	e28dd008 	add	sp, sp, #8
     5a4:	e12fff1e 	bx	lr

000005a8 <save_mem_flag>:
     5a8:	e12fff1e 	bx	lr

000005ac <clear_mem_flag>:
     5ac:	e12fff1e 	bx	lr

000005b0 <save_mem_status>:
     5b0:	e24dd008 	sub	sp, sp, #8
     5b4:	e3a03000 	mov	r3, #0
     5b8:	e58d0004 	str	r0, [sp, #4]
     5bc:	e34f31f0 	movt	r3, #61936	; 0xf1f0
     5c0:	e59d2004 	ldr	r2, [sp, #4]
     5c4:	e5832104 	str	r2, [r3, #260]	; 0x104
     5c8:	e28dd008 	add	sp, sp, #8
     5cc:	e12fff1e 	bx	lr

000005d0 <get_mem_status>:
     5d0:	e3a03000 	mov	r3, #0
     5d4:	e34f31f0 	movt	r3, #61936	; 0xf1f0
     5d8:	e5930104 	ldr	r0, [r3, #260]	; 0x104
     5dc:	e12fff1e 	bx	lr

000005e0 <save_mem_status_nommu>:
     5e0:	e24dd008 	sub	sp, sp, #8
     5e4:	e3a0361f 	mov	r3, #32505856	; 0x1f00000
     5e8:	e58d0004 	str	r0, [sp, #4]
     5ec:	e59d2004 	ldr	r2, [sp, #4]
     5f0:	e5832104 	str	r2, [r3, #260]	; 0x104
     5f4:	e28dd008 	add	sp, sp, #8
     5f8:	e12fff1e 	bx	lr

000005fc <save_cpux_mem_status_nommu>:
     5fc:	e24dd008 	sub	sp, sp, #8
     600:	e3a0361f 	mov	r3, #32505856	; 0x1f00000
     604:	e58d0004 	str	r0, [sp, #4]
     608:	e59d2004 	ldr	r2, [sp, #4]
     60c:	e5832100 	str	r2, [r3, #256]	; 0x100
     610:	e28dd008 	add	sp, sp, #8
     614:	e12fff1e 	bx	lr

00000618 <io_init>:
     618:	e3a03000 	mov	r3, #0
     61c:	e3012111 	movw	r2, #4369	; 0x1111
     620:	e34f31c2 	movt	r3, #61890	; 0xf1c2
     624:	e3402011 	movt	r2, #17
     628:	e5832890 	str	r2, [r3, #2192]	; 0x890
     62c:	e12fff1e 	bx	lr

00000630 <io_init_high>:
     630:	e3a03000 	mov	r3, #0
     634:	e34f31c2 	movt	r3, #61890	; 0xf1c2
     638:	e59328a0 	ldr	r2, [r3, #2208]	; 0x8a0
     63c:	e382203f 	orr	r2, r2, #63	; 0x3f
     640:	e58328a0 	str	r2, [r3, #2208]	; 0x8a0
     644:	e12fff1e 	bx	lr

00000648 <io_init_low>:
     648:	e3a03000 	mov	r3, #0
     64c:	e34f31c2 	movt	r3, #61890	; 0xf1c2
     650:	e59328a0 	ldr	r2, [r3, #2208]	; 0x8a0
     654:	e3c2203f 	bic	r2, r2, #63	; 0x3f
     658:	e58328a0 	str	r2, [r3, #2208]	; 0x8a0
     65c:	e12fff1e 	bx	lr

00000660 <io_high>:
     660:	e92d4070 	push	{r4, r5, r6, lr}
     664:	e3a04000 	mov	r4, #0
     668:	e34f41c2 	movt	r4, #61890	; 0xf1c2
     66c:	e3a05001 	mov	r5, #1
     670:	e1a05015 	lsl	r5, r5, r0
     674:	e3020710 	movw	r0, #10000	; 0x2710
     678:	e59468a0 	ldr	r6, [r4, #2208]	; 0x8a0
     67c:	e1c66005 	bic	r6, r6, r5
     680:	e58468a0 	str	r6, [r4, #2208]	; 0x8a0
     684:	e1865005 	orr	r5, r6, r5
     688:	eb000062 	bl	818 <delay_us>
     68c:	e58458a0 	str	r5, [r4, #2208]	; 0x8a0
     690:	e8bd8070 	pop	{r4, r5, r6, pc}

00000694 <init_perfcounters>:
     694:	e3500000 	cmp	r0, #0
     698:	13a00007 	movne	r0, #7
     69c:	03a00001 	moveq	r0, #1
     6a0:	e3510000 	cmp	r1, #0
     6a4:	13800008 	orrne	r0, r0, #8
     6a8:	e3800010 	orr	r0, r0, #16
     6ac:	ee090f1c 	mcr	15, 0, r0, cr9, cr12, {0}
     6b0:	e3a0313e 	mov	r3, #-2147483633	; 0x8000000f
     6b4:	ee093f3c 	mcr	15, 0, r3, cr9, cr12, {1}
     6b8:	ee093f7c 	mcr	15, 0, r3, cr9, cr12, {3}
     6bc:	e12fff1e 	bx	lr

000006c0 <backup_perfcounter>:
     6c0:	ee192f1c 	mrc	15, 0, r2, cr9, cr12, {0}
     6c4:	e3023b94 	movw	r3, #11156	; 0x2b94
     6c8:	e3403000 	movt	r3, #0
     6cc:	e5832000 	str	r2, [r3]
     6d0:	ee192f3c 	mrc	15, 0, r2, cr9, cr12, {1}
     6d4:	e5832004 	str	r2, [r3, #4]
     6d8:	e12fff1e 	bx	lr

000006dc <restore_perfcounter>:
     6dc:	e3023b94 	movw	r3, #11156	; 0x2b94
     6e0:	e3403000 	movt	r3, #0
     6e4:	e5933000 	ldr	r3, [r3]
     6e8:	ee093f1c 	mcr	15, 0, r3, cr9, cr12, {0}
     6ec:	e3023b94 	movw	r3, #11156	; 0x2b94
     6f0:	e3403000 	movt	r3, #0
     6f4:	e5933004 	ldr	r3, [r3, #4]
     6f8:	ee093f3c 	mcr	15, 0, r3, cr9, cr12, {1}
     6fc:	e12fff1e 	bx	lr

00000700 <get_cyclecount>:
     700:	ee190f1d 	mrc	15, 0, r0, cr9, cr13, {0}
     704:	e12fff1e 	bx	lr

00000708 <reset_counter>:
     708:	e3a03000 	mov	r3, #0
     70c:	ee193f1c 	mrc	15, 0, r3, cr9, cr12, {0}
     710:	e3a03004 	mov	r3, #4
     714:	ee093f1c 	mcr	15, 0, r3, cr9, cr12, {0}
     718:	e12fff1e 	bx	lr

0000071c <change_runtime_env>:
     71c:	e3a02000 	mov	r2, #0
     720:	e3a0c050 	mov	ip, #80	; 0x50
     724:	e1a0100c 	mov	r1, ip
     728:	e1a03002 	mov	r3, r2
     72c:	e92d4010 	push	{r4, lr}
     730:	e1500002 	cmp	r0, r2
     734:	e24dd008 	sub	sp, sp, #8
     738:	e340c1c2 	movt	ip, #450	; 0x1c2
     73c:	e34021c2 	movt	r2, #450	; 0x1c2
     740:	e3a00000 	mov	r0, #0
     744:	e34f11c2 	movt	r1, #61890	; 0xf1c2
     748:	e34f31c2 	movt	r3, #61890	; 0xf1c2
     74c:	e58d0004 	str	r0, [sp, #4]
     750:	01a0100c 	moveq	r1, ip
     754:	01a03002 	moveq	r3, r2
     758:	ee190f1d 	mrc	15, 0, r0, cr9, cr13, {0}
     75c:	ee194f1d 	mrc	15, 0, r4, cr9, cr13, {0}
     760:	e5911000 	ldr	r1, [r1]
     764:	e0600004 	rsb	r0, r0, r4
     768:	e59f40a4 	ldr	r4, [pc, #164]	; 814 <change_runtime_env+0xf8>
     76c:	e58d1004 	str	r1, [sp, #4]
     770:	e59d1004 	ldr	r1, [sp, #4]
     774:	e5840008 	str	r0, [r4, #8]
     778:	e1a01821 	lsr	r1, r1, #16
     77c:	e58d1004 	str	r1, [sp, #4]
     780:	e59d1004 	ldr	r1, [sp, #4]
     784:	e2011003 	and	r1, r1, #3
     788:	e58d1004 	str	r1, [sp, #4]
     78c:	e59d1004 	ldr	r1, [sp, #4]
     790:	e3510000 	cmp	r1, #0
     794:	03a03020 	moveq	r3, #32
     798:	0584300c 	streq	r3, [r4, #12]
     79c:	0a00000a 	beq	7cc <change_runtime_env+0xb0>
     7a0:	e59d2004 	ldr	r2, [sp, #4]
     7a4:	e3520001 	cmp	r2, #1
     7a8:	03053dc0 	movweq	r3, #24000	; 0x5dc0
     7ac:	0584300c 	streq	r3, [r4, #12]
     7b0:	0a000005 	beq	7cc <change_runtime_env+0xb0>
     7b4:	e59d2004 	ldr	r2, [sp, #4]
     7b8:	e3520002 	cmp	r2, #2
     7bc:	0a000004 	beq	7d4 <change_runtime_env+0xb8>
     7c0:	e59d2004 	ldr	r2, [sp, #4]
     7c4:	e3520003 	cmp	r2, #3
     7c8:	0a000001 	beq	7d4 <change_runtime_env+0xb8>
     7cc:	e28dd008 	add	sp, sp, #8
     7d0:	e8bd8010 	pop	{r4, pc}
     7d4:	e5933000 	ldr	r3, [r3]
     7d8:	e3050dc0 	movw	r0, #24000	; 0x5dc0
     7dc:	e58d3004 	str	r3, [sp, #4]
     7e0:	e59d2004 	ldr	r2, [sp, #4]
     7e4:	e59d3004 	ldr	r3, [sp, #4]
     7e8:	e59d1004 	ldr	r1, [sp, #4]
     7ec:	e7e42452 	ubfx	r2, r2, #8, #5
     7f0:	e7e13253 	ubfx	r3, r3, #4, #2
     7f4:	e2833001 	add	r3, r3, #1
     7f8:	e2011003 	and	r1, r1, #3
     7fc:	e0233392 	mla	r3, r2, r3, r3
     800:	e2811001 	add	r1, r1, #1
     804:	e0000390 	mul	r0, r0, r3
     808:	eb000676 	bl	21e8 <raw_lib_udiv>
     80c:	e584000c 	str	r0, [r4, #12]
     810:	eaffffed 	b	7cc <change_runtime_env+0xb0>
     814:	00002b94 	muleq	r0, r4, fp

00000818 <delay_us>:
     818:	e92d4038 	push	{r3, r4, r5, lr}
     81c:	e1a05000 	mov	r5, r0
     820:	e59f4044 	ldr	r4, [pc, #68]	; 86c <delay_us+0x54>
     824:	e594000c 	ldr	r0, [r4, #12]
     828:	e3500ffa 	cmp	r0, #1000	; 0x3e8
     82c:	98bd8038 	popls	{r3, r4, r5, pc}
     830:	e3a01ffa 	mov	r1, #1000	; 0x3e8
     834:	eb00066b 	bl	21e8 <raw_lib_udiv>
     838:	ee193f1d 	mrc	15, 0, r3, cr9, cr13, {0}
     83c:	e5942008 	ldr	r2, [r4, #8]
     840:	e0255590 	mla	r5, r0, r5, r5
     844:	e0622003 	rsb	r2, r2, r3
     848:	e0825005 	add	r5, r2, r5
     84c:	e0653003 	rsb	r3, r5, r3
     850:	e3530000 	cmp	r3, #0
     854:	a8bd8038 	popge	{r3, r4, r5, pc}
     858:	ee193f1d 	mrc	15, 0, r3, cr9, cr13, {0}
     85c:	e0653003 	rsb	r3, r5, r3
     860:	e3530000 	cmp	r3, #0
     864:	bafffffb 	blt	858 <delay_us+0x40>
     868:	e8bd8038 	pop	{r3, r4, r5, pc}
     86c:	00002b94 	muleq	r0, r4, fp

00000870 <delay_ms>:
     870:	e3a03ffa 	mov	r3, #1000	; 0x3e8
     874:	e0000093 	mul	r0, r3, r0
     878:	eaffffe6 	b	818 <delay_us>

0000087c <init_event_counter>:
     87c:	e3500000 	cmp	r0, #0
     880:	13a00007 	movne	r0, #7
     884:	03a00001 	moveq	r0, #1
     888:	e3510000 	cmp	r1, #0
     88c:	13800008 	orrne	r0, r0, #8
     890:	e3800010 	orr	r0, r0, #16
     894:	ee090f1c 	mcr	15, 0, r0, cr9, cr12, {0}
     898:	e3a0313e 	mov	r3, #-2147483633	; 0x8000000f
     89c:	ee093f3c 	mcr	15, 0, r3, cr9, cr12, {1}
     8a0:	ee093f7c 	mcr	15, 0, r3, cr9, cr12, {3}
     8a4:	e12fff1e 	bx	lr

000008a8 <set_event_counter>:
     8a8:	e2403002 	sub	r3, r0, #2
     8ac:	e3530003 	cmp	r3, #3
     8b0:	959f2018 	ldrls	r2, [pc, #24]	; 8d0 <set_event_counter+0x28>
     8b4:	83a03000 	movhi	r3, #0
     8b8:	97923103 	ldrls	r3, [r2, r3, lsl #2]
     8bc:	ee093fbc 	mcr	15, 0, r3, cr9, cr12, {5}
     8c0:	ee090f3d 	mcr	15, 0, r0, cr9, cr13, {1}
     8c4:	f57ff04f 	dsb	sy
     8c8:	f57ff06f 	isb	sy
     8cc:	e12fff1e 	bx	lr
     8d0:	00002874 	andeq	r2, r0, r4, ror r8

000008d4 <get_event_counter>:
     8d4:	e2400002 	sub	r0, r0, #2
     8d8:	e3500003 	cmp	r0, #3
     8dc:	959f3018 	ldrls	r3, [pc, #24]	; 8fc <get_event_counter+0x28>
     8e0:	83a03000 	movhi	r3, #0
     8e4:	97933100 	ldrls	r3, [r3, r0, lsl #2]
     8e8:	ee093fbc 	mcr	15, 0, r3, cr9, cr12, {5}
     8ec:	ee190f5d 	mrc	15, 0, r0, cr9, cr13, {2}
     8f0:	f57ff04f 	dsb	sy
     8f4:	f57ff06f 	isb	sy
     8f8:	e12fff1e 	bx	lr
     8fc:	00002874 	andeq	r2, r0, r4, ror r8

00000900 <save_mmu_state>:
     900:	ee503f10 	mrc	15, 2, r3, cr0, cr0, {0}
     904:	e5803000 	str	r3, [r0]
     908:	ee113f50 	mrc	15, 0, r3, cr1, cr0, {2}
     90c:	e5803008 	str	r3, [r0, #8]
     910:	ee133f10 	mrc	15, 0, r3, cr3, cr0, {0}
     914:	e5803018 	str	r3, [r0, #24]
     918:	ee123f10 	mrc	15, 0, r3, cr2, cr0, {0}
     91c:	e580300c 	str	r3, [r0, #12]
     920:	ee123f30 	mrc	15, 0, r3, cr2, cr0, {1}
     924:	e5803010 	str	r3, [r0, #16]
     928:	ee123f50 	mrc	15, 0, r3, cr2, cr0, {2}
     92c:	e5803014 	str	r3, [r0, #20]
     930:	ee113f10 	mrc	15, 0, r3, cr1, cr0, {0}
     934:	e5803004 	str	r3, [r0, #4]
     938:	e12fff1e 	bx	lr

0000093c <restore_mmu_state>:
     93c:	e5903000 	ldr	r3, [r0]
     940:	ee403f10 	mcr	15, 2, r3, cr0, cr0, {0}
     944:	e5903008 	ldr	r3, [r0, #8]
     948:	ee013f50 	mcr	15, 0, r3, cr1, cr0, {2}
     94c:	e5903018 	ldr	r3, [r0, #24]
     950:	ee033f10 	mcr	15, 0, r3, cr3, cr0, {0}
     954:	e5903010 	ldr	r3, [r0, #16]
     958:	ee023f10 	mcr	15, 0, r3, cr2, cr0, {0}
     95c:	ee023f30 	mcr	15, 0, r3, cr2, cr0, {1}
     960:	e5903014 	ldr	r3, [r0, #20]
     964:	ee023f50 	mcr	15, 0, r3, cr2, cr0, {2}
     968:	ea000004 	b	980 <__turn_mmu_on>
     96c:	e320f000 	nop	{0}
     970:	e320f000 	nop	{0}
     974:	e320f000 	nop	{0}
     978:	e320f000 	nop	{0}
     97c:	e320f000 	nop	{0}

00000980 <__turn_mmu_on>:
     980:	e1a00000 	nop			; (mov r0, r0)
     984:	e5903004 	ldr	r3, [r0, #4]
     988:	ee013f10 	mcr	15, 0, r3, cr1, cr0, {0}
     98c:	ee103f10 	mrc	15, 0, r3, cr0, cr0, {0}
     990:	e1a03003 	mov	r3, r3
     994:	e1a03003 	mov	r3, r3
     998:	f57ff06f 	isb	sy
     99c:	e12fff1e 	bx	lr

000009a0 <save_sp>:
     9a0:	e1a0000d 	mov	r0, sp
     9a4:	e59fd4bc 	ldr	sp, [pc, #1212]	; e68 <jump_to_resume0_nommu+0x28>
     9a8:	e1a0f00e 	mov	pc, lr

000009ac <save_sp_nommu>:
     9ac:	e1a0000d 	mov	r0, sp
     9b0:	e59fd4b4 	ldr	sp, [pc, #1204]	; e6c <jump_to_resume0_nommu+0x2c>
     9b4:	e1a0f00e 	mov	pc, lr

000009b8 <restore_sp>:
     9b8:	e1a0d000 	mov	sp, r0
     9bc:	e1a0f00e 	mov	pc, lr

000009c0 <get_sp>:
     9c0:	e1a0000d 	mov	r0, sp
     9c4:	e1a0f00e 	mov	pc, lr
     9c8:	e320f000 	nop	{0}
     9cc:	e320f000 	nop	{0}

000009d0 <invalidate_dcache>:
     9d0:	f57ff05f 	dmb	sy
     9d4:	ee300f30 	mrc	15, 1, r0, cr0, cr0, {1}
     9d8:	e2103407 	ands	r3, r0, #117440512	; 0x7000000
     9dc:	e1a03ba3 	lsr	r3, r3, #23
     9e0:	0a00001a 	beq	a50 <inv_finished>
     9e4:	e3a0a000 	mov	sl, #0

000009e8 <inv_loop1>:
     9e8:	e08a20aa 	add	r2, sl, sl, lsr #1
     9ec:	e1a01230 	lsr	r1, r0, r2
     9f0:	e2011007 	and	r1, r1, #7
     9f4:	e3510002 	cmp	r1, #2
     9f8:	ba000011 	blt	a44 <inv_skip>
     9fc:	ee40af10 	mcr	15, 2, sl, cr0, cr0, {0}
     a00:	f57ff06f 	isb	sy
     a04:	ee301f10 	mrc	15, 1, r1, cr0, cr0, {0}
     a08:	e2012007 	and	r2, r1, #7
     a0c:	e2822004 	add	r2, r2, #4
     a10:	e59f4458 	ldr	r4, [pc, #1112]	; e70 <jump_to_resume0_nommu+0x30>
     a14:	e01441a1 	ands	r4, r4, r1, lsr #3
     a18:	e16f5f14 	clz	r5, r4
     a1c:	e59f7450 	ldr	r7, [pc, #1104]	; e74 <jump_to_resume0_nommu+0x34>
     a20:	e01776a1 	ands	r7, r7, r1, lsr #13

00000a24 <inv_loop2>:
     a24:	e1a09004 	mov	r9, r4

00000a28 <inv_loop3>:
     a28:	e18ab519 	orr	fp, sl, r9, lsl r5
     a2c:	e18bb217 	orr	fp, fp, r7, lsl r2
     a30:	ee07bf56 	mcr	15, 0, fp, cr7, cr6, {2}
     a34:	e2599001 	subs	r9, r9, #1
     a38:	aafffffa 	bge	a28 <inv_loop3>
     a3c:	e2577001 	subs	r7, r7, #1
     a40:	aafffff7 	bge	a24 <inv_loop2>

00000a44 <inv_skip>:
     a44:	e28aa002 	add	sl, sl, #2
     a48:	e153000a 	cmp	r3, sl
     a4c:	caffffe5 	bgt	9e8 <inv_loop1>

00000a50 <inv_finished>:
     a50:	e3a0a000 	mov	sl, #0
     a54:	ee40af10 	mcr	15, 2, sl, cr0, cr0, {0}
     a58:	f57ff04f 	dsb	sy
     a5c:	f57ff06f 	isb	sy
     a60:	e1a0f00e 	mov	pc, lr

00000a64 <invalidate_icache>:
     a64:	e3a00000 	mov	r0, #0
     a68:	ee070f11 	mcr	15, 0, r0, cr7, cr1, {0}
     a6c:	ee070f15 	mcr	15, 0, r0, cr7, cr5, {0}
     a70:	f57ff04f 	dsb	sy
     a74:	f57ff06f 	isb	sy
     a78:	e1a0f00e 	mov	pc, lr

00000a7c <flush_dcache>:
     a7c:	e92d1fff 	push	{r0, r1, r2, r3, r4, r5, r6, r7, r8, r9, sl, fp, ip}
     a80:	f57ff05f 	dmb	sy
     a84:	ee300f30 	mrc	15, 1, r0, cr0, cr0, {1}
     a88:	e2103407 	ands	r3, r0, #117440512	; 0x7000000
     a8c:	e1a03ba3 	lsr	r3, r3, #23
     a90:	0a00001a 	beq	b00 <finished>
     a94:	e3a0a000 	mov	sl, #0

00000a98 <loop1>:
     a98:	e08a20aa 	add	r2, sl, sl, lsr #1
     a9c:	e1a01230 	lsr	r1, r0, r2
     aa0:	e2011007 	and	r1, r1, #7
     aa4:	e3510002 	cmp	r1, #2
     aa8:	ba000011 	blt	af4 <skip>
     aac:	ee40af10 	mcr	15, 2, sl, cr0, cr0, {0}
     ab0:	f57ff06f 	isb	sy
     ab4:	ee301f10 	mrc	15, 1, r1, cr0, cr0, {0}
     ab8:	e2012007 	and	r2, r1, #7
     abc:	e2822004 	add	r2, r2, #4
     ac0:	e59f43a8 	ldr	r4, [pc, #936]	; e70 <jump_to_resume0_nommu+0x30>
     ac4:	e01441a1 	ands	r4, r4, r1, lsr #3
     ac8:	e16f5f14 	clz	r5, r4
     acc:	e59f73a0 	ldr	r7, [pc, #928]	; e74 <jump_to_resume0_nommu+0x34>
     ad0:	e01776a1 	ands	r7, r7, r1, lsr #13

00000ad4 <loop2>:
     ad4:	e1a09004 	mov	r9, r4

00000ad8 <loop3>:
     ad8:	e18ab519 	orr	fp, sl, r9, lsl r5
     adc:	e18bb217 	orr	fp, fp, r7, lsl r2
     ae0:	ee07bf5e 	mcr	15, 0, fp, cr7, cr14, {2}
     ae4:	e2599001 	subs	r9, r9, #1
     ae8:	aafffffa 	bge	ad8 <loop3>
     aec:	e2577001 	subs	r7, r7, #1
     af0:	aafffff7 	bge	ad4 <loop2>

00000af4 <skip>:
     af4:	e28aa002 	add	sl, sl, #2
     af8:	e153000a 	cmp	r3, sl
     afc:	caffffe5 	bgt	a98 <loop1>

00000b00 <finished>:
     b00:	e3a0a000 	mov	sl, #0
     b04:	ee40af10 	mcr	15, 2, sl, cr0, cr0, {0}
     b08:	f57ff04f 	dsb	sy
     b0c:	f57ff06f 	isb	sy
     b10:	e8bd1fff 	pop	{r0, r1, r2, r3, r4, r5, r6, r7, r8, r9, sl, fp, ip}
     b14:	e1a0f00e 	mov	pc, lr

00000b18 <flush_icache>:
     b18:	e92d000f 	push	{r0, r1, r2, r3}
     b1c:	e3a00000 	mov	r0, #0
     b20:	ee070f15 	mcr	15, 0, r0, cr7, cr5, {0}
     b24:	ee070f11 	mcr	15, 0, r0, cr7, cr1, {0}
     b28:	ee070fd1 	mcr	15, 0, r0, cr7, cr1, {6}
     b2c:	f57ff06f 	isb	sy
     b30:	f57ff04f 	dsb	sy
     b34:	e8bd000f 	pop	{r0, r1, r2, r3}
     b38:	e1a0f00e 	mov	pc, lr

00000b3c <disable_cache>:
     b3c:	e92d000f 	push	{r0, r1, r2, r3}
     b40:	ee110f10 	mrc	15, 0, r0, cr1, cr0, {0}
     b44:	e3c00a01 	bic	r0, r0, #4096	; 0x1000
     b48:	e3c00004 	bic	r0, r0, #4
     b4c:	ee010f10 	mcr	15, 0, r0, cr1, cr0, {0}
     b50:	f57ff06f 	isb	sy
     b54:	e8bd000f 	pop	{r0, r1, r2, r3}
     b58:	e1a0f00e 	mov	pc, lr

00000b5c <disable_dcache>:
     b5c:	e92d000f 	push	{r0, r1, r2, r3}
     b60:	ee110f10 	mrc	15, 0, r0, cr1, cr0, {0}
     b64:	e3c00004 	bic	r0, r0, #4
     b68:	ee010f10 	mcr	15, 0, r0, cr1, cr0, {0}
     b6c:	f57ff06f 	isb	sy
     b70:	e8bd000f 	pop	{r0, r1, r2, r3}
     b74:	e1a0f00e 	mov	pc, lr

00000b78 <disable_icache>:
     b78:	e92d000f 	push	{r0, r1, r2, r3}
     b7c:	ee110f10 	mrc	15, 0, r0, cr1, cr0, {0}
     b80:	e3c00a01 	bic	r0, r0, #4096	; 0x1000
     b84:	ee010f10 	mcr	15, 0, r0, cr1, cr0, {0}
     b88:	f57ff06f 	isb	sy
     b8c:	e8bd000f 	pop	{r0, r1, r2, r3}
     b90:	e1a0f00e 	mov	pc, lr

00000b94 <disable_l2cache>:
     b94:	e92d000f 	push	{r0, r1, r2, r3}
     b98:	ee110f30 	mrc	15, 0, r0, cr1, cr0, {1}
     b9c:	e3c00002 	bic	r0, r0, #2
     ba0:	ee010f30 	mcr	15, 0, r0, cr1, cr0, {1}
     ba4:	f57ff06f 	isb	sy
     ba8:	e8bd000f 	pop	{r0, r1, r2, r3}
     bac:	e1a0f00e 	mov	pc, lr

00000bb0 <enable_cache>:
     bb0:	e92d000f 	push	{r0, r1, r2, r3}
     bb4:	ee110f10 	mrc	15, 0, r0, cr1, cr0, {0}
     bb8:	e3800a01 	orr	r0, r0, #4096	; 0x1000
     bbc:	e3800004 	orr	r0, r0, #4
     bc0:	ee010f10 	mcr	15, 0, r0, cr1, cr0, {0}
     bc4:	f57ff06f 	isb	sy
     bc8:	e8bd000f 	pop	{r0, r1, r2, r3}
     bcc:	e1a0f00e 	mov	pc, lr

00000bd0 <enable_icache>:
     bd0:	e92d000f 	push	{r0, r1, r2, r3}
     bd4:	ee110f10 	mrc	15, 0, r0, cr1, cr0, {0}
     bd8:	e3800a01 	orr	r0, r0, #4096	; 0x1000
     bdc:	ee010f10 	mcr	15, 0, r0, cr1, cr0, {0}
     be0:	f57ff06f 	isb	sy
     be4:	e8bd000f 	pop	{r0, r1, r2, r3}
     be8:	e1a0f00e 	mov	pc, lr

00000bec <invalidate_branch_predictor>:
     bec:	e92d000f 	push	{r0, r1, r2, r3}
     bf0:	e3a00000 	mov	r0, #0
     bf4:	ee070fd5 	mcr	15, 0, r0, cr7, cr5, {6}
     bf8:	f57ff06f 	isb	sy
     bfc:	e8bd000f 	pop	{r0, r1, r2, r3}
     c00:	e1a0f00e 	mov	pc, lr

00000c04 <disable_program_flow_prediction>:
     c04:	e92d000f 	push	{r0, r1, r2, r3}
     c08:	ee110f10 	mrc	15, 0, r0, cr1, cr0, {0}
     c0c:	e3c00b02 	bic	r0, r0, #2048	; 0x800
     c10:	ee010f10 	mcr	15, 0, r0, cr1, cr0, {0}
     c14:	f57ff06f 	isb	sy
     c18:	e8bd000f 	pop	{r0, r1, r2, r3}
     c1c:	e1a0f00e 	mov	pc, lr

00000c20 <enable_program_flow_prediction>:
     c20:	e92d000f 	push	{r0, r1, r2, r3}
     c24:	ee110f10 	mrc	15, 0, r0, cr1, cr0, {0}
     c28:	e3800b02 	orr	r0, r0, #2048	; 0x800
     c2c:	ee010f10 	mcr	15, 0, r0, cr1, cr0, {0}
     c30:	f57ff06f 	isb	sy
     c34:	e8bd000f 	pop	{r0, r1, r2, r3}
     c38:	e1a0f00e 	mov	pc, lr

00000c3c <mem_flush_tlb>:
     c3c:	e92d000f 	push	{r0, r1, r2, r3}
     c40:	e3a00000 	mov	r0, #0
     c44:	ee080f15 	mcr	15, 0, r0, cr8, cr5, {0}
     c48:	ee080f16 	mcr	15, 0, r0, cr8, cr6, {0}
     c4c:	ee080f13 	mcr	15, 0, r0, cr8, cr3, {0}
     c50:	f57ff04f 	dsb	sy
     c54:	f57ff06f 	isb	sy
     c58:	e8bd000f 	pop	{r0, r1, r2, r3}
     c5c:	e1a0f00e 	mov	pc, lr

00000c60 <mem_preload_tlb>:
     c60:	e92d000f 	push	{r0, r1, r2, r3}
     c64:	e3a0020f 	mov	r0, #-268435456	; 0xf0000000
     c68:	e5901000 	ldr	r1, [r0]
     c6c:	e59f0204 	ldr	r0, [pc, #516]	; e78 <jump_to_resume0_nommu+0x38>
     c70:	e5901000 	ldr	r1, [r0]
     c74:	e59f0200 	ldr	r0, [pc, #512]	; e7c <jump_to_resume0_nommu+0x3c>
     c78:	e5901000 	ldr	r1, [r0]
     c7c:	e59f01fc 	ldr	r0, [pc, #508]	; e80 <jump_to_resume0_nommu+0x40>
     c80:	e5901000 	ldr	r1, [r0]
     c84:	e59f01f8 	ldr	r0, [pc, #504]	; e84 <jump_to_resume0_nommu+0x44>
     c88:	e5901000 	ldr	r1, [r0]
     c8c:	e59f01f4 	ldr	r0, [pc, #500]	; e88 <jump_to_resume0_nommu+0x48>
     c90:	e5901000 	ldr	r1, [r0]
     c94:	e59f01f0 	ldr	r0, [pc, #496]	; e8c <jump_to_resume0_nommu+0x4c>
     c98:	e5901000 	ldr	r1, [r0]
     c9c:	e59f01ec 	ldr	r0, [pc, #492]	; e90 <jump_to_resume0_nommu+0x50>
     ca0:	e5901000 	ldr	r1, [r0]
     ca4:	e59f01e8 	ldr	r0, [pc, #488]	; e94 <jump_to_resume0_nommu+0x54>
     ca8:	e5901000 	ldr	r1, [r0]
     cac:	e59f01e4 	ldr	r0, [pc, #484]	; e98 <jump_to_resume0_nommu+0x58>
     cb0:	e5901000 	ldr	r1, [r0]
     cb4:	e59f01e0 	ldr	r0, [pc, #480]	; e9c <jump_to_resume0_nommu+0x5c>
     cb8:	e5901000 	ldr	r1, [r0]
     cbc:	e59f01dc 	ldr	r0, [pc, #476]	; ea0 <jump_to_resume0_nommu+0x60>
     cc0:	e5901000 	ldr	r1, [r0]
     cc4:	e59f01d8 	ldr	r0, [pc, #472]	; ea4 <jump_to_resume0_nommu+0x64>
     cc8:	e5901000 	ldr	r1, [r0]
     ccc:	e59f01d4 	ldr	r0, [pc, #468]	; ea8 <jump_to_resume0_nommu+0x68>
     cd0:	e5901000 	ldr	r1, [r0]
     cd4:	e59f01d0 	ldr	r0, [pc, #464]	; eac <jump_to_resume0_nommu+0x6c>
     cd8:	e5901000 	ldr	r1, [r0]
     cdc:	e59f01cc 	ldr	r0, [pc, #460]	; eb0 <jump_to_resume0_nommu+0x70>
     ce0:	e5901000 	ldr	r1, [r0]
     ce4:	e59f01c8 	ldr	r0, [pc, #456]	; eb4 <jump_to_resume0_nommu+0x74>
     ce8:	e5901000 	ldr	r1, [r0]
     cec:	e59f01c4 	ldr	r0, [pc, #452]	; eb8 <jump_to_resume0_nommu+0x78>
     cf0:	e5901000 	ldr	r1, [r0]
     cf4:	e59f01c0 	ldr	r0, [pc, #448]	; ebc <jump_to_resume0_nommu+0x7c>
     cf8:	e5901000 	ldr	r1, [r0]
     cfc:	e59f01bc 	ldr	r0, [pc, #444]	; ec0 <jump_to_resume0_nommu+0x80>
     d00:	e5901000 	ldr	r1, [r0]
     d04:	e59f01b8 	ldr	r0, [pc, #440]	; ec4 <jump_to_resume0_nommu+0x84>
     d08:	e5901000 	ldr	r1, [r0]
     d0c:	e59f01b4 	ldr	r0, [pc, #436]	; ec8 <jump_to_resume0_nommu+0x88>
     d10:	e5901000 	ldr	r1, [r0]
     d14:	e59f01b0 	ldr	r0, [pc, #432]	; ecc <jump_to_resume0_nommu+0x8c>
     d18:	e5901000 	ldr	r1, [r0]
     d1c:	e59f01ac 	ldr	r0, [pc, #428]	; ed0 <jump_to_resume0_nommu+0x90>
     d20:	e5901000 	ldr	r1, [r0]
     d24:	e59f01a8 	ldr	r0, [pc, #424]	; ed4 <jump_to_resume0_nommu+0x94>
     d28:	e5901000 	ldr	r1, [r0]
     d2c:	e59f01a4 	ldr	r0, [pc, #420]	; ed8 <jump_to_resume0_nommu+0x98>
     d30:	e5901000 	ldr	r1, [r0]
     d34:	e59f01a0 	ldr	r0, [pc, #416]	; edc <jump_to_resume0_nommu+0x9c>
     d38:	e5901000 	ldr	r1, [r0]
     d3c:	e59f019c 	ldr	r0, [pc, #412]	; ee0 <jump_to_resume0_nommu+0xa0>
     d40:	e5901000 	ldr	r1, [r0]
     d44:	e59f0198 	ldr	r0, [pc, #408]	; ee4 <jump_to_resume0_nommu+0xa4>
     d48:	e5901000 	ldr	r1, [r0]
     d4c:	e59f0194 	ldr	r0, [pc, #404]	; ee8 <jump_to_resume0_nommu+0xa8>
     d50:	e5901000 	ldr	r1, [r0]
     d54:	e59f0190 	ldr	r0, [pc, #400]	; eec <jump_to_resume0_nommu+0xac>
     d58:	e5901000 	ldr	r1, [r0]
     d5c:	e59f018c 	ldr	r0, [pc, #396]	; ef0 <jump_to_resume0_nommu+0xb0>
     d60:	e5901000 	ldr	r1, [r0]
     d64:	e59f0188 	ldr	r0, [pc, #392]	; ef4 <jump_to_resume0_nommu+0xb4>
     d68:	e5901000 	ldr	r1, [r0]
     d6c:	e59f0184 	ldr	r0, [pc, #388]	; ef8 <jump_to_resume0_nommu+0xb8>
     d70:	e5901000 	ldr	r1, [r0]
     d74:	f57ff04f 	dsb	sy
     d78:	f57ff06f 	isb	sy
     d7c:	e8bd000f 	pop	{r0, r1, r2, r3}
     d80:	e1a0f00e 	mov	pc, lr

00000d84 <disable_mmu>:
     d84:	ee111f10 	mrc	15, 0, r1, cr1, cr0, {0}
     d88:	e3c11a01 	bic	r1, r1, #4096	; 0x1000
     d8c:	e3c11005 	bic	r1, r1, #5
     d90:	ea000002 	b	da0 <__turn_mmu_off>
     d94:	e320f000 	nop	{0}
     d98:	e320f000 	nop	{0}
     d9c:	e320f000 	nop	{0}

00000da0 <__turn_mmu_off>:
     da0:	ee011f10 	mcr	15, 0, r1, cr1, cr0, {0}
     da4:	ee103f10 	mrc	15, 0, r3, cr0, cr0, {0}
     da8:	e1a03003 	mov	r3, r3
     dac:	e1a03003 	mov	r3, r3
     db0:	e1a0f00e 	mov	pc, lr

00000db4 <enable_mmu>:
     db4:	ee111f10 	mrc	15, 0, r1, cr1, cr0, {0}
     db8:	e3811a01 	orr	r1, r1, #4096	; 0x1000
     dbc:	e3811005 	orr	r1, r1, #5
     dc0:	ea000006 	b	de0 <__turn_mmu_on>
     dc4:	e320f000 	nop	{0}
     dc8:	e320f000 	nop	{0}
     dcc:	e320f000 	nop	{0}
     dd0:	e320f000 	nop	{0}
     dd4:	e320f000 	nop	{0}
     dd8:	e320f000 	nop	{0}
     ddc:	e320f000 	nop	{0}

00000de0 <__turn_mmu_on>:
     de0:	ee011f10 	mcr	15, 0, r1, cr1, cr0, {0}
     de4:	ee103f10 	mrc	15, 0, r3, cr0, cr0, {0}
     de8:	e1a03003 	mov	r3, r3
     dec:	e1a03003 	mov	r3, r3
     df0:	e1a0f00e 	mov	pc, lr

00000df4 <jump_to_suspend>:
     df4:	ee020f10 	mcr	15, 0, r0, cr2, cr0, {0}
     df8:	f57ff04f 	dsb	sy
     dfc:	f57ff06f 	isb	sy
     e00:	e1a0f001 	mov	pc, r1
     e04:	e320f000 	nop	{0}
     e08:	e320f000 	nop	{0}
     e0c:	e320f000 	nop	{0}

00000e10 <jump_to_resume>:
     e10:	e1a0c000 	mov	ip, r0
     e14:	e1a08001 	mov	r8, r1
     e18:	ebfffeec 	bl	9d0 <invalidate_dcache>
     e1c:	e1a01008 	mov	r1, r8
     e20:	e1a0e00c 	mov	lr, ip
     e24:	e8913fff 	ldm	r1, {r0, r1, r2, r3, r4, r5, r6, r7, r8, r9, sl, fp, ip, sp}
     e28:	e1a0f00e 	mov	pc, lr
     e2c:	e320f000 	nop	{0}

00000e30 <jump_to_resume0>:
     e30:	e1a0e000 	mov	lr, r0
     e34:	e1a0f00e 	mov	pc, lr
     e38:	e320f000 	nop	{0}
     e3c:	e320f000 	nop	{0}

00000e40 <jump_to_resume0_nommu>:
     e40:	ee111f10 	mrc	15, 0, r1, cr1, cr0, {0}
     e44:	e3c11a01 	bic	r1, r1, #4096	; 0x1000
     e48:	e3c11007 	bic	r1, r1, #7
     e4c:	ee011f10 	mcr	15, 0, r1, cr1, cr0, {0}
     e50:	ee103f10 	mrc	15, 0, r3, cr0, cr0, {0}
     e54:	e1a03003 	mov	r3, r3
     e58:	e1a03003 	mov	r3, r3
     e5c:	e1a0e000 	mov	lr, r0
     e60:	f57ff06f 	isb	sy
     e64:	e1a0f00e 	mov	pc, lr
     e68:	f0007ffc 			; <UNDEFINED> instruction: 0xf0007ffc
     e6c:	00007ffc 	strdeq	r7, [r0], -ip
     e70:	000003ff 	strdeq	r0, [r0], -pc	; <UNPREDICTABLE>
     e74:	00007fff 	strdeq	r7, [r0], -pc	; <UNPREDICTABLE>
     e78:	f0001000 			; <UNDEFINED> instruction: 0xf0001000
     e7c:	f0002000 			; <UNDEFINED> instruction: 0xf0002000
     e80:	f0003000 			; <UNDEFINED> instruction: 0xf0003000
     e84:	f0004000 			; <UNDEFINED> instruction: 0xf0004000
     e88:	f0005000 			; <UNDEFINED> instruction: 0xf0005000
     e8c:	f0006000 			; <UNDEFINED> instruction: 0xf0006000
     e90:	f0007000 			; <UNDEFINED> instruction: 0xf0007000
     e94:	f0040000 			; <UNDEFINED> instruction: 0xf0040000
     e98:	f0041000 			; <UNDEFINED> instruction: 0xf0041000
     e9c:	f0042000 			; <UNDEFINED> instruction: 0xf0042000
     ea0:	f0043000 			; <UNDEFINED> instruction: 0xf0043000
     ea4:	f0044000 			; <UNDEFINED> instruction: 0xf0044000
     ea8:	f0045000 			; <UNDEFINED> instruction: 0xf0045000
     eac:	f0046000 			; <UNDEFINED> instruction: 0xf0046000
     eb0:	f0047000 			; <UNDEFINED> instruction: 0xf0047000
     eb4:	f0048000 			; <UNDEFINED> instruction: 0xf0048000
     eb8:	f0049000 			; <UNDEFINED> instruction: 0xf0049000
     ebc:	f004a000 			; <UNDEFINED> instruction: 0xf004a000
     ec0:	f004b000 			; <UNDEFINED> instruction: 0xf004b000
     ec4:	f004c000 			; <UNDEFINED> instruction: 0xf004c000
     ec8:	f004d000 			; <UNDEFINED> instruction: 0xf004d000
     ecc:	f004e000 			; <UNDEFINED> instruction: 0xf004e000
     ed0:	f004f000 			; <UNDEFINED> instruction: 0xf004f000
     ed4:	f0050000 			; <UNDEFINED> instruction: 0xf0050000
     ed8:	f0051000 			; <UNDEFINED> instruction: 0xf0051000
     edc:	f0052000 			; <UNDEFINED> instruction: 0xf0052000
     ee0:	f0053000 			; <UNDEFINED> instruction: 0xf0053000
     ee4:	f1c17000 			; <UNDEFINED> instruction: 0xf1c17000
     ee8:	f1c18000 			; <UNDEFINED> instruction: 0xf1c18000
     eec:	f1c20800 			; <UNDEFINED> instruction: 0xf1c20800
     ef0:	f1f01400 			; <UNDEFINED> instruction: 0xf1f01400
     ef4:	f1c28000 			; <UNDEFINED> instruction: 0xf1c28000
     ef8:	f1f00000 			; <UNDEFINED> instruction: 0xf1f00000
     efc:	e320f000 	nop	{0}

00000f00 <__save_processor_state>:
     f00:	ee503f10 	mrc	15, 2, r3, cr0, cr0, {0}
     f04:	e5803000 	str	r3, [r0]
     f08:	ee113f10 	mrc	15, 0, r3, cr1, cr0, {0}
     f0c:	e5803004 	str	r3, [r0, #4]
     f10:	ee113f50 	mrc	15, 0, r3, cr1, cr0, {2}
     f14:	e580300c 	str	r3, [r0, #12]
     f18:	ee123f10 	mrc	15, 0, r3, cr2, cr0, {0}
     f1c:	e580301c 	str	r3, [r0, #28]
     f20:	ee123f30 	mrc	15, 0, r3, cr2, cr0, {1}
     f24:	e5803020 	str	r3, [r0, #32]
     f28:	ee123f50 	mrc	15, 0, r3, cr2, cr0, {2}
     f2c:	e5803024 	str	r3, [r0, #36]	; 0x24
     f30:	ee133f10 	mrc	15, 0, r3, cr3, cr0, {0}
     f34:	e5803028 	str	r3, [r0, #40]	; 0x28
     f38:	ee153f10 	mrc	15, 0, r3, cr5, cr0, {0}
     f3c:	e580302c 	str	r3, [r0, #44]	; 0x2c
     f40:	ee153f30 	mrc	15, 0, r3, cr5, cr0, {1}
     f44:	e5803030 	str	r3, [r0, #48]	; 0x30
     f48:	ee153f11 	mrc	15, 0, r3, cr5, cr1, {0}
     f4c:	e5803034 	str	r3, [r0, #52]	; 0x34
     f50:	ee153f31 	mrc	15, 0, r3, cr5, cr1, {1}
     f54:	e5803038 	str	r3, [r0, #56]	; 0x38
     f58:	ee163f10 	mrc	15, 0, r3, cr6, cr0, {0}
     f5c:	e580303c 	str	r3, [r0, #60]	; 0x3c
     f60:	ee163f50 	mrc	15, 0, r3, cr6, cr0, {2}
     f64:	e5803040 	str	r3, [r0, #64]	; 0x40
     f68:	ee173f14 	mrc	15, 0, r3, cr7, cr4, {0}
     f6c:	e5803044 	str	r3, [r0, #68]	; 0x44
     f70:	ee193f1c 	mrc	15, 0, r3, cr9, cr12, {0}
     f74:	e5803048 	str	r3, [r0, #72]	; 0x48
     f78:	ee193f3c 	mrc	15, 0, r3, cr9, cr12, {1}
     f7c:	e580304c 	str	r3, [r0, #76]	; 0x4c
     f80:	ee193f5c 	mrc	15, 0, r3, cr9, cr12, {2}
     f84:	e5803050 	str	r3, [r0, #80]	; 0x50
     f88:	ee193f7c 	mrc	15, 0, r3, cr9, cr12, {3}
     f8c:	e5803054 	str	r3, [r0, #84]	; 0x54
     f90:	ee193fbc 	mrc	15, 0, r3, cr9, cr12, {5}
     f94:	e580305c 	str	r3, [r0, #92]	; 0x5c
     f98:	ee193f1d 	mrc	15, 0, r3, cr9, cr13, {0}
     f9c:	e5803060 	str	r3, [r0, #96]	; 0x60
     fa0:	ee193f3d 	mrc	15, 0, r3, cr9, cr13, {1}
     fa4:	e5803064 	str	r3, [r0, #100]	; 0x64
     fa8:	ee193f5d 	mrc	15, 0, r3, cr9, cr13, {2}
     fac:	e5803068 	str	r3, [r0, #104]	; 0x68
     fb0:	ee193f1e 	mrc	15, 0, r3, cr9, cr14, {0}
     fb4:	e580306c 	str	r3, [r0, #108]	; 0x6c
     fb8:	ee193f3e 	mrc	15, 0, r3, cr9, cr14, {1}
     fbc:	e5803070 	str	r3, [r0, #112]	; 0x70
     fc0:	ee193f5e 	mrc	15, 0, r3, cr9, cr14, {2}
     fc4:	e5803074 	str	r3, [r0, #116]	; 0x74
     fc8:	ee1a3f12 	mrc	15, 0, r3, cr10, cr2, {0}
     fcc:	e5803078 	str	r3, [r0, #120]	; 0x78
     fd0:	ee1a3f32 	mrc	15, 0, r3, cr10, cr2, {1}
     fd4:	e580307c 	str	r3, [r0, #124]	; 0x7c
     fd8:	ee1c3f10 	mrc	15, 0, r3, cr12, cr0, {0}
     fdc:	e5803080 	str	r3, [r0, #128]	; 0x80
     fe0:	ee1c3f30 	mrc	15, 0, r3, cr12, cr0, {1}
     fe4:	e5803084 	str	r3, [r0, #132]	; 0x84
     fe8:	ee1d3f30 	mrc	15, 0, r3, cr13, cr0, {1}
     fec:	e5803090 	str	r3, [r0, #144]	; 0x90
     ff0:	ee1d3f50 	mrc	15, 0, r3, cr13, cr0, {2}
     ff4:	e5803094 	str	r3, [r0, #148]	; 0x94
     ff8:	ee1d3f70 	mrc	15, 0, r3, cr13, cr0, {3}
     ffc:	e5803098 	str	r3, [r0, #152]	; 0x98
    1000:	ee1d3f90 	mrc	15, 0, r3, cr13, cr0, {4}
    1004:	e580309c 	str	r3, [r0, #156]	; 0x9c
    1008:	e12fff1e 	bx	lr

0000100c <__restore_processor_state>:
    100c:	e5903000 	ldr	r3, [r0]
    1010:	ee403f10 	mcr	15, 2, r3, cr0, cr0, {0}
    1014:	e590300c 	ldr	r3, [r0, #12]
    1018:	ee013f50 	mcr	15, 0, r3, cr1, cr0, {2}
    101c:	e590301c 	ldr	r3, [r0, #28]
    1020:	ee023f10 	mcr	15, 0, r3, cr2, cr0, {0}
    1024:	f57ff04f 	dsb	sy
    1028:	f57ff06f 	isb	sy
    102c:	e5903020 	ldr	r3, [r0, #32]
    1030:	ee023f30 	mcr	15, 0, r3, cr2, cr0, {1}
    1034:	f57ff04f 	dsb	sy
    1038:	f57ff06f 	isb	sy
    103c:	e5903024 	ldr	r3, [r0, #36]	; 0x24
    1040:	ee023f50 	mcr	15, 0, r3, cr2, cr0, {2}
    1044:	f57ff04f 	dsb	sy
    1048:	f57ff06f 	isb	sy
    104c:	e5903028 	ldr	r3, [r0, #40]	; 0x28
    1050:	ee033f10 	mcr	15, 0, r3, cr3, cr0, {0}
    1054:	e5903044 	ldr	r3, [r0, #68]	; 0x44
    1058:	ee073f14 	mcr	15, 0, r3, cr7, cr4, {0}
    105c:	e590305c 	ldr	r3, [r0, #92]	; 0x5c
    1060:	ee093fbc 	mcr	15, 0, r3, cr9, cr12, {5}
    1064:	e5903060 	ldr	r3, [r0, #96]	; 0x60
    1068:	ee093f1d 	mcr	15, 0, r3, cr9, cr13, {0}
    106c:	e5903064 	ldr	r3, [r0, #100]	; 0x64
    1070:	ee093f3d 	mcr	15, 0, r3, cr9, cr13, {1}
    1074:	e5903068 	ldr	r3, [r0, #104]	; 0x68
    1078:	ee093f5d 	mcr	15, 0, r3, cr9, cr13, {2}
    107c:	e590306c 	ldr	r3, [r0, #108]	; 0x6c
    1080:	ee093f1e 	mcr	15, 0, r3, cr9, cr14, {0}
    1084:	e5903070 	ldr	r3, [r0, #112]	; 0x70
    1088:	ee093f3e 	mcr	15, 0, r3, cr9, cr14, {1}
    108c:	e5903074 	ldr	r3, [r0, #116]	; 0x74
    1090:	ee093f5e 	mcr	15, 0, r3, cr9, cr14, {2}
    1094:	e5903078 	ldr	r3, [r0, #120]	; 0x78
    1098:	ee0a3f12 	mcr	15, 0, r3, cr10, cr2, {0}
    109c:	e590307c 	ldr	r3, [r0, #124]	; 0x7c
    10a0:	ee0a3f32 	mcr	15, 0, r3, cr10, cr2, {1}
    10a4:	e5903080 	ldr	r3, [r0, #128]	; 0x80
    10a8:	ee0c3f10 	mcr	15, 0, r3, cr12, cr0, {0}
    10ac:	e5903084 	ldr	r3, [r0, #132]	; 0x84
    10b0:	ee0c3f30 	mcr	15, 0, r3, cr12, cr0, {1}
    10b4:	e5903090 	ldr	r3, [r0, #144]	; 0x90
    10b8:	ee0d3f30 	mcr	15, 0, r3, cr13, cr0, {1}
    10bc:	e5903094 	ldr	r3, [r0, #148]	; 0x94
    10c0:	ee0d3f50 	mcr	15, 0, r3, cr13, cr0, {2}
    10c4:	e5903098 	ldr	r3, [r0, #152]	; 0x98
    10c8:	ee0d3f70 	mcr	15, 0, r3, cr13, cr0, {3}
    10cc:	e590309c 	ldr	r3, [r0, #156]	; 0x9c
    10d0:	ee0d3f90 	mcr	15, 0, r3, cr13, cr0, {4}
    10d4:	f57ff04f 	dsb	sy
    10d8:	f57ff06f 	isb	sy
    10dc:	e12fff1e 	bx	lr

000010e0 <disable_cache_invalidate>:
    10e0:	e3a03000 	mov	r3, #0
    10e4:	e34f31c2 	movt	r3, #61890	; 0xf1c2
    10e8:	e5932d3c 	ldr	r2, [r3, #3388]	; 0xd3c
    10ec:	e3822003 	orr	r2, r2, #3
    10f0:	e5832d3c 	str	r2, [r3, #3388]	; 0xd3c
    10f4:	e12fff1e 	bx	lr

000010f8 <set_copro_default>:
    10f8:	e3a03002 	mov	r3, #2
    10fc:	ee403f10 	mcr	15, 2, r3, cr0, cr0, {0}
    1100:	e3003878 	movw	r3, #2168	; 0x878
    1104:	e34030c5 	movt	r3, #197	; 0xc5
    1108:	ee013f10 	mcr	15, 0, r3, cr1, cr0, {0}
    110c:	e3063040 	movw	r3, #24640	; 0x6040
    1110:	ee013f30 	mcr	15, 0, r3, cr1, cr0, {1}
    1114:	e3a03000 	mov	r3, #0
    1118:	ee013f50 	mcr	15, 0, r3, cr1, cr0, {2}
    111c:	ee013f11 	mcr	15, 0, r3, cr1, cr1, {0}
    1120:	ee013f31 	mcr	15, 0, r3, cr1, cr1, {1}
    1124:	ee013f51 	mcr	15, 0, r3, cr1, cr1, {2}
    1128:	ee023f10 	mcr	15, 0, r3, cr2, cr0, {0}
    112c:	ee023f30 	mcr	15, 0, r3, cr2, cr0, {1}
    1130:	ee023f50 	mcr	15, 0, r3, cr2, cr0, {2}
    1134:	ee033f10 	mcr	15, 0, r3, cr3, cr0, {0}
    1138:	ee053f10 	mcr	15, 0, r3, cr5, cr0, {0}
    113c:	ee053f30 	mcr	15, 0, r3, cr5, cr0, {1}
    1140:	ee053f11 	mcr	15, 0, r3, cr5, cr1, {0}
    1144:	ee053f31 	mcr	15, 0, r3, cr5, cr1, {1}
    1148:	ee063f10 	mcr	15, 0, r3, cr6, cr0, {0}
    114c:	ee063f50 	mcr	15, 0, r3, cr6, cr0, {2}
    1150:	ee073f14 	mcr	15, 0, r3, cr7, cr4, {0}
    1154:	ee093f1e 	mcr	15, 0, r3, cr9, cr14, {0}
    1158:	ee093f3e 	mcr	15, 0, r3, cr9, cr14, {1}
    115c:	ee093f5e 	mcr	15, 0, r3, cr9, cr14, {2}
    1160:	e30831a4 	movw	r3, #33188	; 0x81a4
    1164:	e340300a 	movt	r3, #10
    1168:	ee0a3f12 	mcr	15, 0, r3, cr10, cr2, {0}
    116c:	e30438e0 	movw	r3, #18656	; 0x48e0
    1170:	e34434e0 	movt	r3, #17632	; 0x44e0
    1174:	ee0a3f32 	mcr	15, 0, r3, cr10, cr2, {1}
    1178:	e3a03000 	mov	r3, #0
    117c:	ee0c3f10 	mcr	15, 0, r3, cr12, cr0, {0}
    1180:	ee0c3f30 	mcr	15, 0, r3, cr12, cr0, {1}
    1184:	ee0d3f30 	mcr	15, 0, r3, cr13, cr0, {1}
    1188:	ee0d3f50 	mcr	15, 0, r3, cr13, cr0, {2}
    118c:	ee0d3f70 	mcr	15, 0, r3, cr13, cr0, {3}
    1190:	ee0d3f90 	mcr	15, 0, r3, cr13, cr0, {4}
    1194:	f57ff04f 	dsb	sy
    1198:	f57ff06f 	isb	sy
    119c:	e12fff1e 	bx	lr

000011a0 <save_processor_state>:
    11a0:	e3020cdc 	movw	r0, #11484	; 0x2cdc
    11a4:	e3400000 	movt	r0, #0
    11a8:	eaffff54 	b	f00 <__save_processor_state>

000011ac <restore_processor_state>:
    11ac:	e3020cdc 	movw	r0, #11484	; 0x2cdc
    11b0:	e3400000 	movt	r0, #0
    11b4:	eaffff94 	b	100c <__restore_processor_state>

000011b8 <restore_processor_ttbr0>:
    11b8:	e3023cdc 	movw	r3, #11484	; 0x2cdc
    11bc:	e3403000 	movt	r3, #0
    11c0:	e593301c 	ldr	r3, [r3, #28]
    11c4:	ee023f10 	mcr	15, 0, r3, cr2, cr0, {0}
    11c8:	e12fff1e 	bx	lr

000011cc <set_ttbr0>:
    11cc:	ee123f30 	mrc	15, 0, r3, cr2, cr0, {1}
    11d0:	ee023f10 	mcr	15, 0, r3, cr2, cr0, {0}
    11d4:	f57ff06f 	isb	sy
    11d8:	e12fff1e 	bx	lr

000011dc <set_serial_clk>:
    11dc:	e92d4070 	push	{r4, r5, r6, lr}
    11e0:	e1a04000 	mov	r4, r0
    11e4:	eb00053d 	bl	26e0 <mem_clk_init>
    11e8:	e1a03000 	mov	r3, r0
    11ec:	e5902058 	ldr	r2, [r0, #88]	; 0x58
    11f0:	e7e12c52 	ubfx	r2, r2, #24, #2
    11f4:	e3520003 	cmp	r2, #3
    11f8:	159f10e8 	ldrne	r1, [pc, #232]	; 12e8 <set_serial_clk+0x10c>
    11fc:	03a00000 	moveq	r0, #0
    1200:	17910102 	ldrne	r0, [r1, r2, lsl #2]
    1204:	e5931058 	ldr	r1, [r3, #88]	; 0x58
    1208:	e5933058 	ldr	r3, [r3, #88]	; 0x58
    120c:	e201101f 	and	r1, r1, #31
    1210:	e7e13853 	ubfx	r3, r3, #16, #2
    1214:	e2811001 	add	r1, r1, #1
    1218:	e1a01311 	lsl	r1, r1, r3
    121c:	eb000388 	bl	2044 <__aeabi_uidiv>
    1220:	e3540000 	cmp	r4, #0
    1224:	e1a06000 	mov	r6, r0
    1228:	1a000013 	bne	127c <set_serial_clk+0xa0>
    122c:	e3a05000 	mov	r5, #0
    1230:	e1a00004 	mov	r0, r4
    1234:	e34051c2 	movt	r5, #450	; 0x1c2
    1238:	e59532d8 	ldr	r3, [r5, #728]	; 0x2d8
    123c:	e3c33801 	bic	r3, r3, #65536	; 0x10000
    1240:	e58532d8 	str	r3, [r5, #728]	; 0x2d8
    1244:	e59532d8 	ldr	r3, [r5, #728]	; 0x2d8
    1248:	e3833801 	orr	r3, r3, #65536	; 0x10000
    124c:	e58532d8 	str	r3, [r5, #728]	; 0x2d8
    1250:	ebfffd31 	bl	71c <change_runtime_env>
    1254:	e3a00001 	mov	r0, #1
    1258:	ebfffd6e 	bl	818 <delay_us>
    125c:	e595306c 	ldr	r3, [r5, #108]	; 0x6c
    1260:	e1a00006 	mov	r0, r6
    1264:	e3c33801 	bic	r3, r3, #65536	; 0x10000
    1268:	e585306c 	str	r3, [r5, #108]	; 0x6c
    126c:	e595306c 	ldr	r3, [r5, #108]	; 0x6c
    1270:	e3833801 	orr	r3, r3, #65536	; 0x10000
    1274:	e585306c 	str	r3, [r5, #108]	; 0x6c
    1278:	e8bd8070 	pop	{r4, r5, r6, pc}
    127c:	e3a04000 	mov	r4, #0
    1280:	e59f3064 	ldr	r3, [pc, #100]	; 12ec <set_serial_clk+0x110>
    1284:	e34f41c2 	movt	r4, #61890	; 0xf1c2
    1288:	e3a00001 	mov	r0, #1
    128c:	e594206c 	ldr	r2, [r4, #108]	; 0x6c
    1290:	e5832000 	str	r2, [r3]
    1294:	e59422d8 	ldr	r2, [r4, #728]	; 0x2d8
    1298:	e5832004 	str	r2, [r3, #4]
    129c:	e59428b4 	ldr	r2, [r4, #2228]	; 0x8b4
    12a0:	e5832008 	str	r2, [r3, #8]
    12a4:	e59432d8 	ldr	r3, [r4, #728]	; 0x2d8
    12a8:	e3c33801 	bic	r3, r3, #65536	; 0x10000
    12ac:	e58432d8 	str	r3, [r4, #728]	; 0x2d8
    12b0:	e59432d8 	ldr	r3, [r4, #728]	; 0x2d8
    12b4:	e3833801 	orr	r3, r3, #65536	; 0x10000
    12b8:	e58432d8 	str	r3, [r4, #728]	; 0x2d8
    12bc:	ebfffd16 	bl	71c <change_runtime_env>
    12c0:	e3a00001 	mov	r0, #1
    12c4:	ebfffd53 	bl	818 <delay_us>
    12c8:	e594306c 	ldr	r3, [r4, #108]	; 0x6c
    12cc:	e1a00006 	mov	r0, r6
    12d0:	e3c33801 	bic	r3, r3, #65536	; 0x10000
    12d4:	e584306c 	str	r3, [r4, #108]	; 0x6c
    12d8:	e594306c 	ldr	r3, [r4, #108]	; 0x6c
    12dc:	e3833801 	orr	r3, r3, #65536	; 0x10000
    12e0:	e584306c 	str	r3, [r4, #108]	; 0x6c
    12e4:	e8bd8070 	pop	{r4, r5, r6, pc}
    12e8:	00002884 	andeq	r2, r0, r4, lsl #17
    12ec:	00002ba4 	andeq	r2, r0, r4, lsr #23

000012f0 <serial_init_nommu>:
    12f0:	e92d4038 	push	{r3, r4, r5, lr}
    12f4:	e3a03000 	mov	r3, #0
    12f8:	e1a00003 	mov	r0, r3
    12fc:	e34031c2 	movt	r3, #450	; 0x1c2
    1300:	e59328b4 	ldr	r2, [r3, #2228]	; 0x8b4
    1304:	e3c22807 	bic	r2, r2, #458752	; 0x70000
    1308:	e3c22c07 	bic	r2, r2, #1792	; 0x700
    130c:	e58328b4 	str	r2, [r3, #2228]	; 0x8b4
    1310:	e59328b4 	ldr	r2, [r3, #2228]	; 0x8b4
    1314:	e3822701 	orr	r2, r2, #262144	; 0x40000
    1318:	e3822b01 	orr	r2, r2, #1024	; 0x400
    131c:	e58328b4 	str	r2, [r3, #2228]	; 0x8b4
    1320:	ebffffad 	bl	11dc <set_serial_clk>
    1324:	e30b33c5 	movw	r3, #46021	; 0xb3c5
    1328:	e2800ae1 	add	r0, r0, #921600	; 0xe1000
    132c:	e34931a2 	movt	r3, #37282	; 0x91a2
    1330:	e3a02902 	mov	r2, #32768	; 0x8000
    1334:	e0831093 	umull	r1, r3, r3, r0
    1338:	e34021c2 	movt	r2, #450	; 0x1c2
    133c:	e592000c 	ldr	r0, [r2, #12]
    1340:	e3a0c001 	mov	ip, #1
    1344:	e582c0a4 	str	ip, [r2, #164]	; 0xa4
    1348:	e3021ba4 	movw	r1, #11172	; 0x2ba4
    134c:	e3401000 	movt	r1, #0
    1350:	e3805080 	orr	r5, r0, #128	; 0x80
    1354:	e3c00080 	bic	r0, r0, #128	; 0x80
    1358:	e1a04e23 	lsr	r4, r3, #28
    135c:	e7e73a53 	ubfx	r3, r3, #20, #8
    1360:	e582500c 	str	r5, [r2, #12]
    1364:	e5824004 	str	r4, [r2, #4]
    1368:	e5823000 	str	r3, [r2]
    136c:	e3a03000 	mov	r3, #0
    1370:	e582000c 	str	r0, [r2, #12]
    1374:	e58230a4 	str	r3, [r2, #164]	; 0xa4
    1378:	e3a03003 	mov	r3, #3
    137c:	e582300c 	str	r3, [r2, #12]
    1380:	e3a030e1 	mov	r3, #225	; 0xe1
    1384:	e5823008 	str	r3, [r2, #8]
    1388:	e581c00c 	str	ip, [r1, #12]
    138c:	e8bd8038 	pop	{r3, r4, r5, pc}

00001390 <serial_puts_nommu>:
    1390:	e59f3084 	ldr	r3, [pc, #132]	; 141c <serial_puts_nommu+0x8c>
    1394:	e52d4004 	push	{r4}		; (str r4, [sp, #-4]!)
    1398:	e593300c 	ldr	r3, [r3, #12]
    139c:	e3530000 	cmp	r3, #0
    13a0:	03e00000 	mvneq	r0, #0
    13a4:	0a000013 	beq	13f8 <serial_puts_nommu+0x68>
    13a8:	e5d03000 	ldrb	r3, [r0]
    13ac:	e3530000 	cmp	r3, #0
    13b0:	0a00000f 	beq	13f4 <serial_puts_nommu+0x64>
    13b4:	e3a01902 	mov	r1, #32768	; 0x8000
    13b8:	e2400001 	sub	r0, r0, #1
    13bc:	e34011c2 	movt	r1, #450	; 0x1c2
    13c0:	e3a0400d 	mov	r4, #13
    13c4:	e353000a 	cmp	r3, #10
    13c8:	0a00000c 	beq	1400 <serial_puts_nommu+0x70>
    13cc:	e5f0c001 	ldrb	ip, [r0, #1]!
    13d0:	e591207c 	ldr	r2, [r1, #124]	; 0x7c
    13d4:	e3a03902 	mov	r3, #32768	; 0x8000
    13d8:	e34031c2 	movt	r3, #450	; 0x1c2
    13dc:	e3120002 	tst	r2, #2
    13e0:	0afffffa 	beq	13d0 <serial_puts_nommu+0x40>
    13e4:	e583c000 	str	ip, [r3]
    13e8:	e5d03001 	ldrb	r3, [r0, #1]
    13ec:	e3530000 	cmp	r3, #0
    13f0:	1afffff3 	bne	13c4 <serial_puts_nommu+0x34>
    13f4:	e1a00003 	mov	r0, r3
    13f8:	e8bd0010 	pop	{r4}
    13fc:	e12fff1e 	bx	lr
    1400:	e591207c 	ldr	r2, [r1, #124]	; 0x7c
    1404:	e3a03902 	mov	r3, #32768	; 0x8000
    1408:	e34031c2 	movt	r3, #450	; 0x1c2
    140c:	e3120002 	tst	r2, #2
    1410:	0afffffa 	beq	1400 <serial_puts_nommu+0x70>
    1414:	e5834000 	str	r4, [r3]
    1418:	eaffffeb 	b	13cc <serial_puts_nommu+0x3c>
    141c:	00002ba4 	andeq	r2, r0, r4, lsr #23

00001420 <serial_gets_nommu>:
    1420:	e59f3080 	ldr	r3, [pc, #128]	; 14a8 <serial_gets_nommu+0x88>
    1424:	e52d4004 	push	{r4}		; (str r4, [sp, #-4]!)
    1428:	e593300c 	ldr	r3, [r3, #12]
    142c:	e3530000 	cmp	r3, #0
    1430:	03e00000 	mvneq	r0, #0
    1434:	1a000001 	bne	1440 <serial_gets_nommu+0x20>
    1438:	e8bd0010 	pop	{r4}
    143c:	e12fff1e 	bx	lr
    1440:	e3510000 	cmp	r1, #0
    1444:	03a00001 	moveq	r0, #1
    1448:	0afffffa 	beq	1438 <serial_gets_nommu+0x18>
    144c:	e3a0c902 	mov	ip, #32768	; 0x8000
    1450:	e3a04000 	mov	r4, #0
    1454:	e340c1c2 	movt	ip, #450	; 0x1c2
    1458:	e30f3fff 	movw	r3, #65535	; 0xffff
    145c:	ea000001 	b	1468 <serial_gets_nommu+0x48>
    1460:	e2533001 	subs	r3, r3, #1
    1464:	3a000006 	bcc	1484 <serial_gets_nommu+0x64>
    1468:	e59c207c 	ldr	r2, [ip, #124]	; 0x7c
    146c:	e3120008 	tst	r2, #8
    1470:	0afffffa 	beq	1460 <serial_gets_nommu+0x40>
    1474:	e3530000 	cmp	r3, #0
    1478:	1a000001 	bne	1484 <serial_gets_nommu+0x64>
    147c:	e2840001 	add	r0, r4, #1
    1480:	eaffffec 	b	1438 <serial_gets_nommu+0x18>
    1484:	e59c3000 	ldr	r3, [ip]
    1488:	e6ef3073 	uxtb	r3, r3
    148c:	e3530000 	cmp	r3, #0
    1490:	0afffff9 	beq	147c <serial_gets_nommu+0x5c>
    1494:	e7c03004 	strb	r3, [r0, r4]
    1498:	e2844001 	add	r4, r4, #1
    149c:	e1540001 	cmp	r4, r1
    14a0:	1affffec 	bne	1458 <serial_gets_nommu+0x38>
    14a4:	eafffff4 	b	147c <serial_gets_nommu+0x5c>
    14a8:	00002ba4 	andeq	r2, r0, r4, lsr #23

000014ac <serial_init>:
    14ac:	e92d4038 	push	{r3, r4, r5, lr}
    14b0:	e3a03000 	mov	r3, #0
    14b4:	e34f31c2 	movt	r3, #61890	; 0xf1c2
    14b8:	e3a00001 	mov	r0, #1
    14bc:	e59328b4 	ldr	r2, [r3, #2228]	; 0x8b4
    14c0:	e3c22807 	bic	r2, r2, #458752	; 0x70000
    14c4:	e3c22c07 	bic	r2, r2, #1792	; 0x700
    14c8:	e58328b4 	str	r2, [r3, #2228]	; 0x8b4
    14cc:	e59328b4 	ldr	r2, [r3, #2228]	; 0x8b4
    14d0:	e3822701 	orr	r2, r2, #262144	; 0x40000
    14d4:	e3822b01 	orr	r2, r2, #1024	; 0x400
    14d8:	e58328b4 	str	r2, [r3, #2228]	; 0x8b4
    14dc:	ebffff3e 	bl	11dc <set_serial_clk>
    14e0:	e30b33c5 	movw	r3, #46021	; 0xb3c5
    14e4:	e2800ae1 	add	r0, r0, #921600	; 0xe1000
    14e8:	e34931a2 	movt	r3, #37282	; 0x91a2
    14ec:	e3a02902 	mov	r2, #32768	; 0x8000
    14f0:	e0831093 	umull	r1, r3, r3, r0
    14f4:	e34f21c2 	movt	r2, #61890	; 0xf1c2
    14f8:	e592000c 	ldr	r0, [r2, #12]
    14fc:	e3a0c001 	mov	ip, #1
    1500:	e582c0a4 	str	ip, [r2, #164]	; 0xa4
    1504:	e3021ba4 	movw	r1, #11172	; 0x2ba4
    1508:	e3401000 	movt	r1, #0
    150c:	e3805080 	orr	r5, r0, #128	; 0x80
    1510:	e3c00080 	bic	r0, r0, #128	; 0x80
    1514:	e1a04e23 	lsr	r4, r3, #28
    1518:	e7e73a53 	ubfx	r3, r3, #20, #8
    151c:	e582500c 	str	r5, [r2, #12]
    1520:	e5824004 	str	r4, [r2, #4]
    1524:	e5823000 	str	r3, [r2]
    1528:	e3a03000 	mov	r3, #0
    152c:	e582000c 	str	r0, [r2, #12]
    1530:	e58230a4 	str	r3, [r2, #164]	; 0xa4
    1534:	e3a03003 	mov	r3, #3
    1538:	e582300c 	str	r3, [r2, #12]
    153c:	e3a030e1 	mov	r3, #225	; 0xe1
    1540:	e5823008 	str	r3, [r2, #8]
    1544:	e581c00c 	str	ip, [r1, #12]
    1548:	e8bd8038 	pop	{r3, r4, r5, pc}

0000154c <serial_exit>:
    154c:	e3023ba4 	movw	r3, #11172	; 0x2ba4
    1550:	e3a02000 	mov	r2, #0
    1554:	e3403000 	movt	r3, #0
    1558:	e34f21c2 	movt	r2, #61890	; 0xf1c2
    155c:	e5931000 	ldr	r1, [r3]
    1560:	e582106c 	str	r1, [r2, #108]	; 0x6c
    1564:	e5931004 	ldr	r1, [r3, #4]
    1568:	e58212d8 	str	r1, [r2, #728]	; 0x2d8
    156c:	e5931008 	ldr	r1, [r3, #8]
    1570:	e58218b4 	str	r1, [r2, #2228]	; 0x8b4
    1574:	e3a02000 	mov	r2, #0
    1578:	e583200c 	str	r2, [r3, #12]
    157c:	e12fff1e 	bx	lr

00001580 <serial_puts>:
    1580:	e59f3084 	ldr	r3, [pc, #132]	; 160c <serial_puts+0x8c>
    1584:	e52d4004 	push	{r4}		; (str r4, [sp, #-4]!)
    1588:	e593300c 	ldr	r3, [r3, #12]
    158c:	e3530000 	cmp	r3, #0
    1590:	03e00000 	mvneq	r0, #0
    1594:	0a000013 	beq	15e8 <serial_puts+0x68>
    1598:	e5d03000 	ldrb	r3, [r0]
    159c:	e3530000 	cmp	r3, #0
    15a0:	0a00000f 	beq	15e4 <serial_puts+0x64>
    15a4:	e3a01902 	mov	r1, #32768	; 0x8000
    15a8:	e2400001 	sub	r0, r0, #1
    15ac:	e34f11c2 	movt	r1, #61890	; 0xf1c2
    15b0:	e3a0400d 	mov	r4, #13
    15b4:	e353000a 	cmp	r3, #10
    15b8:	0a00000c 	beq	15f0 <serial_puts+0x70>
    15bc:	e5f0c001 	ldrb	ip, [r0, #1]!
    15c0:	e591207c 	ldr	r2, [r1, #124]	; 0x7c
    15c4:	e3a03902 	mov	r3, #32768	; 0x8000
    15c8:	e34f31c2 	movt	r3, #61890	; 0xf1c2
    15cc:	e3120002 	tst	r2, #2
    15d0:	0afffffa 	beq	15c0 <serial_puts+0x40>
    15d4:	e583c000 	str	ip, [r3]
    15d8:	e5d03001 	ldrb	r3, [r0, #1]
    15dc:	e3530000 	cmp	r3, #0
    15e0:	1afffff3 	bne	15b4 <serial_puts+0x34>
    15e4:	e1a00003 	mov	r0, r3
    15e8:	e8bd0010 	pop	{r4}
    15ec:	e12fff1e 	bx	lr
    15f0:	e591207c 	ldr	r2, [r1, #124]	; 0x7c
    15f4:	e3a03902 	mov	r3, #32768	; 0x8000
    15f8:	e34f31c2 	movt	r3, #61890	; 0xf1c2
    15fc:	e3120002 	tst	r2, #2
    1600:	0afffffa 	beq	15f0 <serial_puts+0x70>
    1604:	e5834000 	str	r4, [r3]
    1608:	eaffffeb 	b	15bc <serial_puts+0x3c>
    160c:	00002ba4 	andeq	r2, r0, r4, lsr #23

00001610 <serial_gets>:
    1610:	e59f3080 	ldr	r3, [pc, #128]	; 1698 <serial_gets+0x88>
    1614:	e52d4004 	push	{r4}		; (str r4, [sp, #-4]!)
    1618:	e593300c 	ldr	r3, [r3, #12]
    161c:	e3530000 	cmp	r3, #0
    1620:	03e00000 	mvneq	r0, #0
    1624:	1a000001 	bne	1630 <serial_gets+0x20>
    1628:	e8bd0010 	pop	{r4}
    162c:	e12fff1e 	bx	lr
    1630:	e3510000 	cmp	r1, #0
    1634:	03a00001 	moveq	r0, #1
    1638:	0afffffa 	beq	1628 <serial_gets+0x18>
    163c:	e3a0c902 	mov	ip, #32768	; 0x8000
    1640:	e3a04000 	mov	r4, #0
    1644:	e34fc1c2 	movt	ip, #61890	; 0xf1c2
    1648:	e30f3fff 	movw	r3, #65535	; 0xffff
    164c:	ea000001 	b	1658 <serial_gets+0x48>
    1650:	e2533001 	subs	r3, r3, #1
    1654:	3a000006 	bcc	1674 <serial_gets+0x64>
    1658:	e59c207c 	ldr	r2, [ip, #124]	; 0x7c
    165c:	e3120008 	tst	r2, #8
    1660:	0afffffa 	beq	1650 <serial_gets+0x40>
    1664:	e3530000 	cmp	r3, #0
    1668:	1a000001 	bne	1674 <serial_gets+0x64>
    166c:	e2840001 	add	r0, r4, #1
    1670:	eaffffec 	b	1628 <serial_gets+0x18>
    1674:	e59c3000 	ldr	r3, [ip]
    1678:	e6ef3073 	uxtb	r3, r3
    167c:	e3530000 	cmp	r3, #0
    1680:	0afffff9 	beq	166c <serial_gets+0x5c>
    1684:	e7c03004 	strb	r3, [r0, r4]
    1688:	e2844001 	add	r4, r4, #1
    168c:	e1540001 	cmp	r4, r1
    1690:	1affffec 	bne	1648 <serial_gets+0x38>
    1694:	eafffff4 	b	166c <serial_gets+0x5c>
    1698:	00002ba4 	andeq	r2, r0, r4, lsr #23

0000169c <strlen>:
    169c:	e5d03000 	ldrb	r3, [r0]
    16a0:	e3530000 	cmp	r3, #0
    16a4:	0a000005 	beq	16c0 <strlen+0x24>
    16a8:	e1a03000 	mov	r3, r0
    16ac:	e5f32001 	ldrb	r2, [r3, #1]!
    16b0:	e3520000 	cmp	r2, #0
    16b4:	1afffffc 	bne	16ac <strlen+0x10>
    16b8:	e0600003 	rsb	r0, r0, r3
    16bc:	e12fff1e 	bx	lr
    16c0:	e1a00003 	mov	r0, r3
    16c4:	e12fff1e 	bx	lr

000016c8 <strcpy>:
    16c8:	e2411001 	sub	r1, r1, #1
    16cc:	e1a02000 	mov	r2, r0
    16d0:	e5f13001 	ldrb	r3, [r1, #1]!
    16d4:	e3530000 	cmp	r3, #0
    16d8:	e4c23001 	strb	r3, [r2], #1
    16dc:	1afffffb 	bne	16d0 <strcpy+0x8>
    16e0:	e12fff1e 	bx	lr

000016e4 <strncpy>:
    16e4:	e3520000 	cmp	r2, #0
    16e8:	012fff1e 	bxeq	lr
    16ec:	e240c001 	sub	ip, r0, #1
    16f0:	e5d13000 	ldrb	r3, [r1]
    16f4:	e3530000 	cmp	r3, #0
    16f8:	e5ec3001 	strb	r3, [ip, #1]!
    16fc:	12811001 	addne	r1, r1, #1
    1700:	e2522001 	subs	r2, r2, #1
    1704:	1afffff9 	bne	16f0 <strncpy+0xc>
    1708:	e12fff1e 	bx	lr

0000170c <strcat>:
    170c:	e5d03000 	ldrb	r3, [r0]
    1710:	e3530000 	cmp	r3, #0
    1714:	01a02000 	moveq	r2, r0
    1718:	0a000005 	beq	1734 <strcat+0x28>
    171c:	e1a03000 	mov	r3, r0
    1720:	e2833001 	add	r3, r3, #1
    1724:	e5d3c000 	ldrb	ip, [r3]
    1728:	e1a02003 	mov	r2, r3
    172c:	e35c0000 	cmp	ip, #0
    1730:	1afffffa 	bne	1720 <strcat+0x14>
    1734:	e2411001 	sub	r1, r1, #1
    1738:	e5f13001 	ldrb	r3, [r1, #1]!
    173c:	e3530000 	cmp	r3, #0
    1740:	e4c23001 	strb	r3, [r2], #1
    1744:	1afffffb 	bne	1738 <strcat+0x2c>
    1748:	e12fff1e 	bx	lr

0000174c <strncat>:
    174c:	e3520000 	cmp	r2, #0
    1750:	e52d4004 	push	{r4}		; (str r4, [sp, #-4]!)
    1754:	0a000014 	beq	17ac <strncat+0x60>
    1758:	e5d03000 	ldrb	r3, [r0]
    175c:	e3530000 	cmp	r3, #0
    1760:	01a0c000 	moveq	ip, r0
    1764:	0a000005 	beq	1780 <strncat+0x34>
    1768:	e1a03000 	mov	r3, r0
    176c:	e2833001 	add	r3, r3, #1
    1770:	e5d34000 	ldrb	r4, [r3]
    1774:	e1a0c003 	mov	ip, r3
    1778:	e3540000 	cmp	r4, #0
    177c:	1afffffa 	bne	176c <strncat+0x20>
    1780:	e2411001 	sub	r1, r1, #1
    1784:	ea000000 	b	178c <strncat+0x40>
    1788:	e1a0c003 	mov	ip, r3
    178c:	e5f14001 	ldrb	r4, [r1, #1]!
    1790:	e1a0300c 	mov	r3, ip
    1794:	e3540000 	cmp	r4, #0
    1798:	e4c34001 	strb	r4, [r3], #1
    179c:	0a000002 	beq	17ac <strncat+0x60>
    17a0:	e2522001 	subs	r2, r2, #1
    17a4:	1afffff7 	bne	1788 <strncat+0x3c>
    17a8:	e5cc2001 	strb	r2, [ip, #1]
    17ac:	e8bd0010 	pop	{r4}
    17b0:	e12fff1e 	bx	lr

000017b4 <strcmp>:
    17b4:	e4d03001 	ldrb	r3, [r0], #1
    17b8:	e4d12001 	ldrb	r2, [r1], #1
    17bc:	e1530002 	cmp	r3, r2
    17c0:	1a000003 	bne	17d4 <strcmp+0x20>
    17c4:	e3530000 	cmp	r3, #0
    17c8:	1afffff9 	bne	17b4 <strcmp>
    17cc:	e1a00003 	mov	r0, r3
    17d0:	e12fff1e 	bx	lr
    17d4:	e1520003 	cmp	r2, r3
    17d8:	93a00001 	movls	r0, #1
    17dc:	83e00000 	mvnhi	r0, #0
    17e0:	e12fff1e 	bx	lr

000017e4 <strncmp>:
    17e4:	e3520000 	cmp	r2, #0
    17e8:	01a00002 	moveq	r0, r2
    17ec:	012fff1e 	bxeq	lr
    17f0:	e5d03000 	ldrb	r3, [r0]
    17f4:	e5d1c000 	ldrb	ip, [r1]
    17f8:	e153000c 	cmp	r3, ip
    17fc:	1a00000e 	bne	183c <strncmp+0x58>
    1800:	e3530000 	cmp	r3, #0
    1804:	12403001 	subne	r3, r0, #1
    1808:	10832002 	addne	r2, r3, r2
    180c:	1a000006 	bne	182c <strncmp+0x48>
    1810:	ea00000f 	b	1854 <strncmp+0x70>
    1814:	e5f03001 	ldrb	r3, [r0, #1]!
    1818:	e5f1c001 	ldrb	ip, [r1, #1]!
    181c:	e153000c 	cmp	r3, ip
    1820:	1a000005 	bne	183c <strncmp+0x58>
    1824:	e3530000 	cmp	r3, #0
    1828:	0a000007 	beq	184c <strncmp+0x68>
    182c:	e1500002 	cmp	r0, r2
    1830:	1afffff7 	bne	1814 <strncmp+0x30>
    1834:	e3a00000 	mov	r0, #0
    1838:	e12fff1e 	bx	lr
    183c:	e153000c 	cmp	r3, ip
    1840:	23a00001 	movcs	r0, #1
    1844:	33e00000 	mvncc	r0, #0
    1848:	e12fff1e 	bx	lr
    184c:	e1a00003 	mov	r0, r3
    1850:	e12fff1e 	bx	lr
    1854:	e1a00003 	mov	r0, r3
    1858:	e12fff1e 	bx	lr

0000185c <itoa>:
    185c:	e92d47f0 	push	{r4, r5, r6, r7, r8, r9, sl, lr}
    1860:	e3500000 	cmp	r0, #0
    1864:	e59f60d0 	ldr	r6, [pc, #208]	; 193c <itoa+0xe0>
    1868:	e1a07001 	mov	r7, r1
    186c:	e1a04000 	mov	r4, r0
    1870:	e1a05002 	mov	r5, r2
    1874:	e24dd028 	sub	sp, sp, #40	; 0x28
    1878:	e28dc004 	add	ip, sp, #4
    187c:	e8b6000f 	ldm	r6!, {r0, r1, r2, r3}
    1880:	e5966000 	ldr	r6, [r6]
    1884:	e8ac000f 	stmia	ip!, {r0, r1, r2, r3}
    1888:	03a03030 	moveq	r3, #48	; 0x30
    188c:	05c74001 	strbeq	r4, [r7, #1]
    1890:	e5cc6000 	strb	r6, [ip]
    1894:	05c73000 	strbeq	r3, [r7]
    1898:	0a000024 	beq	1930 <itoa+0xd4>
    189c:	b2644000 	rsblt	r4, r4, #0
    18a0:	b3a09001 	movlt	r9, #1
    18a4:	a3a09000 	movge	r9, #0
    18a8:	e3a06000 	mov	r6, #0
    18ac:	e28da018 	add	sl, sp, #24
    18b0:	ea000000 	b	18b8 <itoa+0x5c>
    18b4:	e1a06003 	mov	r6, r3
    18b8:	e1a00004 	mov	r0, r4
    18bc:	e1a01005 	mov	r1, r5
    18c0:	eb00023f 	bl	21c4 <__aeabi_idivmod>
    18c4:	e28d3028 	add	r3, sp, #40	; 0x28
    18c8:	e1a00004 	mov	r0, r4
    18cc:	e0831001 	add	r1, r3, r1
    18d0:	e5518024 	ldrb	r8, [r1, #-36]	; 0x24
    18d4:	e1a01005 	mov	r1, r5
    18d8:	e7ca8006 	strb	r8, [sl, r6]
    18dc:	eb0001ff 	bl	20e0 <__aeabi_idiv>
    18e0:	e2504000 	subs	r4, r0, #0
    18e4:	e2863001 	add	r3, r6, #1
    18e8:	cafffff1 	bgt	18b4 <itoa+0x58>
    18ec:	e3590000 	cmp	r9, #0
    18f0:	e1a02006 	mov	r2, r6
    18f4:	13a0302d 	movne	r3, #45	; 0x2d
    18f8:	13a09001 	movne	r9, #1
    18fc:	15c73000 	strbne	r3, [r7]
    1900:	e2493001 	sub	r3, r9, #1
    1904:	e0873003 	add	r3, r7, r3
    1908:	ea000000 	b	1910 <itoa+0xb4>
    190c:	e7da8006 	ldrb	r8, [sl, r6]
    1910:	e2466001 	sub	r6, r6, #1
    1914:	e5e38001 	strb	r8, [r3, #1]!
    1918:	e3760001 	cmn	r6, #1
    191c:	1afffffa 	bne	190c <itoa+0xb0>
    1920:	e2899001 	add	r9, r9, #1
    1924:	e3a03000 	mov	r3, #0
    1928:	e0879009 	add	r9, r7, r9
    192c:	e7c93002 	strb	r3, [r9, r2]
    1930:	e1a00007 	mov	r0, r7
    1934:	e28dd028 	add	sp, sp, #40	; 0x28
    1938:	e8bd87f0 	pop	{r4, r5, r6, r7, r8, r9, sl, pc}
    193c:	00002950 	andeq	r2, r0, r0, asr r9

00001940 <utoa>:
    1940:	e92d45f0 	push	{r4, r5, r6, r7, r8, sl, lr}
    1944:	e3500000 	cmp	r0, #0
    1948:	e59f60a8 	ldr	r6, [pc, #168]	; 19f8 <utoa+0xb8>
    194c:	e1a07001 	mov	r7, r1
    1950:	e1a04000 	mov	r4, r0
    1954:	e1a05002 	mov	r5, r2
    1958:	e24dd02c 	sub	sp, sp, #44	; 0x2c
    195c:	13a08000 	movne	r8, #0
    1960:	e28dc004 	add	ip, sp, #4
    1964:	128da018 	addne	sl, sp, #24
    1968:	e8b6000f 	ldm	r6!, {r0, r1, r2, r3}
    196c:	e5966000 	ldr	r6, [r6]
    1970:	e8ac000f 	stmia	ip!, {r0, r1, r2, r3}
    1974:	03a03030 	moveq	r3, #48	; 0x30
    1978:	05c74001 	strbeq	r4, [r7, #1]
    197c:	e5cc6000 	strb	r6, [ip]
    1980:	05c73000 	strbeq	r3, [r7]
    1984:	1a000001 	bne	1990 <utoa+0x50>
    1988:	ea000017 	b	19ec <utoa+0xac>
    198c:	e1a08003 	mov	r8, r3
    1990:	e1a00004 	mov	r0, r4
    1994:	e1a01005 	mov	r1, r5
    1998:	eb000203 	bl	21ac <__aeabi_uidivmod>
    199c:	e28d3028 	add	r3, sp, #40	; 0x28
    19a0:	e1a00004 	mov	r0, r4
    19a4:	e0831001 	add	r1, r3, r1
    19a8:	e5516024 	ldrb	r6, [r1, #-36]	; 0x24
    19ac:	e1a01005 	mov	r1, r5
    19b0:	e7ca6008 	strb	r6, [sl, r8]
    19b4:	eb0001a2 	bl	2044 <__aeabi_uidiv>
    19b8:	e2504000 	subs	r4, r0, #0
    19bc:	e2883001 	add	r3, r8, #1
    19c0:	1afffff1 	bne	198c <utoa+0x4c>
    19c4:	e2472001 	sub	r2, r7, #1
    19c8:	e08a3008 	add	r3, sl, r8
    19cc:	ea000000 	b	19d4 <utoa+0x94>
    19d0:	e5736001 	ldrb	r6, [r3, #-1]!
    19d4:	e153000a 	cmp	r3, sl
    19d8:	e5e26001 	strb	r6, [r2, #1]!
    19dc:	1afffffb 	bne	19d0 <utoa+0x90>
    19e0:	e0878008 	add	r8, r7, r8
    19e4:	e3a03000 	mov	r3, #0
    19e8:	e5c83001 	strb	r3, [r8, #1]
    19ec:	e1a00007 	mov	r0, r7
    19f0:	e28dd02c 	add	sp, sp, #44	; 0x2c
    19f4:	e8bd85f0 	pop	{r4, r5, r6, r7, r8, sl, pc}
    19f8:	00002950 	andeq	r2, r0, r0, asr r9

000019fc <print_align>:
    19fc:	e92d40f0 	push	{r4, r5, r6, r7, lr}
    1a00:	e1510002 	cmp	r1, r2
    1a04:	e59f4048 	ldr	r4, [pc, #72]	; 1a54 <print_align+0x58>
    1a08:	e1a05001 	mov	r5, r1
    1a0c:	e1a06002 	mov	r6, r2
    1a10:	e1a07000 	mov	r7, r0
    1a14:	e24dd01c 	sub	sp, sp, #28
    1a18:	a3a05000 	movge	r5, #0
    1a1c:	e28dc004 	add	ip, sp, #4
    1a20:	e8b4000f 	ldm	r4!, {r0, r1, r2, r3}
    1a24:	e5944000 	ldr	r4, [r4]
    1a28:	e8ac000f 	stmia	ip!, {r0, r1, r2, r3}
    1a2c:	e5cc4000 	strb	r4, [ip]
    1a30:	aa000004 	bge	1a48 <print_align+0x4c>
    1a34:	e0655006 	rsb	r5, r5, r6
    1a38:	e1a00007 	mov	r0, r7
    1a3c:	e28d1004 	add	r1, sp, #4
    1a40:	e1a02005 	mov	r2, r5
    1a44:	ebffff40 	bl	174c <strncat>
    1a48:	e1a00005 	mov	r0, r5
    1a4c:	e28dd01c 	add	sp, sp, #28
    1a50:	e8bd80f0 	pop	{r4, r5, r6, r7, pc}
    1a54:	00002964 	andeq	r2, r0, r4, ror #18

00001a58 <printk>:
    1a58:	e92d000f 	push	{r0, r1, r2, r3}
    1a5c:	e92d47f0 	push	{r4, r5, r6, r7, r8, r9, sl, lr}
    1a60:	e24dd018 	sub	sp, sp, #24
    1a64:	e28d303c 	add	r3, sp, #60	; 0x3c
    1a68:	e59d4038 	ldr	r4, [sp, #56]	; 0x38
    1a6c:	e58d3014 	str	r3, [sp, #20]
    1a70:	e59f82b0 	ldr	r8, [pc, #688]	; 1d28 <printk+0x2d0>
    1a74:	e5d43000 	ldrb	r3, [r4]
    1a78:	e3530000 	cmp	r3, #0
    1a7c:	01a05008 	moveq	r5, r8
    1a80:	0a00002c 	beq	1b38 <printk+0xe0>
    1a84:	e3a09025 	mov	r9, #37	; 0x25
    1a88:	e28d6004 	add	r6, sp, #4
    1a8c:	e1a05008 	mov	r5, r8
    1a90:	ea000003 	b	1aa4 <printk+0x4c>
    1a94:	e5d43001 	ldrb	r3, [r4, #1]
    1a98:	e2844001 	add	r4, r4, #1
    1a9c:	e3530000 	cmp	r3, #0
    1aa0:	0a000024 	beq	1b38 <printk+0xe0>
    1aa4:	e3530025 	cmp	r3, #37	; 0x25
    1aa8:	14c53001 	strbne	r3, [r5], #1
    1aac:	1afffff8 	bne	1a94 <printk+0x3c>
    1ab0:	e5d43001 	ldrb	r3, [r4, #1]
    1ab4:	e2432031 	sub	r2, r3, #49	; 0x31
    1ab8:	e3520008 	cmp	r2, #8
    1abc:	92437030 	subls	r7, r3, #48	; 0x30
    1ac0:	95d43002 	ldrbls	r3, [r4, #2]
    1ac4:	82844001 	addhi	r4, r4, #1
    1ac8:	83a07000 	movhi	r7, #0
    1acc:	92844002 	addls	r4, r4, #2
    1ad0:	e2433063 	sub	r3, r3, #99	; 0x63
    1ad4:	e3530015 	cmp	r3, #21
    1ad8:	979ff103 	ldrls	pc, [pc, r3, lsl #2]
    1adc:	ea000070 	b	1ca4 <printk+0x24c>
    1ae0:	00001c8c 	andeq	r1, r0, ip, lsl #25
    1ae4:	00001cb8 			; <UNDEFINED> instruction: 0x00001cb8
    1ae8:	00001ca4 	andeq	r1, r0, r4, lsr #25
    1aec:	00001ca4 	andeq	r1, r0, r4, lsr #25
    1af0:	00001ca4 	andeq	r1, r0, r4, lsr #25
    1af4:	00001ca4 	andeq	r1, r0, r4, lsr #25
    1af8:	00001ca4 	andeq	r1, r0, r4, lsr #25
    1afc:	00001ca4 	andeq	r1, r0, r4, lsr #25
    1b00:	00001ca4 	andeq	r1, r0, r4, lsr #25
    1b04:	00001ca4 	andeq	r1, r0, r4, lsr #25
    1b08:	00001ca4 	andeq	r1, r0, r4, lsr #25
    1b0c:	00001ca4 	andeq	r1, r0, r4, lsr #25
    1b10:	00001ca4 	andeq	r1, r0, r4, lsr #25
    1b14:	00001c1c 	andeq	r1, r0, ip, lsl ip
    1b18:	00001ca4 	andeq	r1, r0, r4, lsr #25
    1b1c:	00001ca4 	andeq	r1, r0, r4, lsr #25
    1b20:	00001bcc 	andeq	r1, r0, ip, asr #23
    1b24:	00001ca4 	andeq	r1, r0, r4, lsr #25
    1b28:	00001b5c 	andeq	r1, r0, ip, asr fp
    1b2c:	00001ca4 	andeq	r1, r0, r4, lsr #25
    1b30:	00001ca4 	andeq	r1, r0, r4, lsr #25
    1b34:	00001c1c 	andeq	r1, r0, ip, lsl ip
    1b38:	e3a03000 	mov	r3, #0
    1b3c:	e59f01e4 	ldr	r0, [pc, #484]	; 1d28 <printk+0x2d0>
    1b40:	e4c53001 	strb	r3, [r5], #1
    1b44:	ebfffe8d 	bl	1580 <serial_puts>
    1b48:	e0680005 	rsb	r0, r8, r5
    1b4c:	e28dd018 	add	sp, sp, #24
    1b50:	e8bd47f0 	pop	{r4, r5, r6, r7, r8, r9, sl, lr}
    1b54:	e28dd010 	add	sp, sp, #16
    1b58:	e12fff1e 	bx	lr
    1b5c:	e59d0014 	ldr	r0, [sp, #20]
    1b60:	e1a01006 	mov	r1, r6
    1b64:	e3a0200a 	mov	r2, #10
    1b68:	e2803004 	add	r3, r0, #4
    1b6c:	e5900000 	ldr	r0, [r0]
    1b70:	e58d3014 	str	r3, [sp, #20]
    1b74:	ebffff71 	bl	1940 <utoa>
    1b78:	e5d6a000 	ldrb	sl, [r6]
    1b7c:	e35a0000 	cmp	sl, #0
    1b80:	0a000004 	beq	1b98 <printk+0x140>
    1b84:	e1a0a006 	mov	sl, r6
    1b88:	e5fa3001 	ldrb	r3, [sl, #1]!
    1b8c:	e3530000 	cmp	r3, #0
    1b90:	1afffffc 	bne	1b88 <printk+0x130>
    1b94:	e066a00a 	rsb	sl, r6, sl
    1b98:	e1a0100a 	mov	r1, sl
    1b9c:	e1a00006 	mov	r0, r6
    1ba0:	e1a02007 	mov	r2, r7
    1ba4:	ebffff94 	bl	19fc <print_align>
    1ba8:	e28d3003 	add	r3, sp, #3
    1bac:	e080000a 	add	r0, r0, sl
    1bb0:	e1a01005 	mov	r1, r5
    1bb4:	e5f32001 	ldrb	r2, [r3, #1]!
    1bb8:	e3520000 	cmp	r2, #0
    1bbc:	e4c12001 	strb	r2, [r1], #1
    1bc0:	1afffffb 	bne	1bb4 <printk+0x15c>
    1bc4:	e0855000 	add	r5, r5, r0
    1bc8:	eaffffb1 	b	1a94 <printk+0x3c>
    1bcc:	e59d3014 	ldr	r3, [sp, #20]
    1bd0:	e1a01005 	mov	r1, r5
    1bd4:	e2832004 	add	r2, r3, #4
    1bd8:	e58d2014 	str	r2, [sp, #20]
    1bdc:	e5930000 	ldr	r0, [r3]
    1be0:	e2402001 	sub	r2, r0, #1
    1be4:	e5f23001 	ldrb	r3, [r2, #1]!
    1be8:	e3530000 	cmp	r3, #0
    1bec:	e4c13001 	strb	r3, [r1], #1
    1bf0:	1afffffb 	bne	1be4 <printk+0x18c>
    1bf4:	e5d03000 	ldrb	r3, [r0]
    1bf8:	e3530000 	cmp	r3, #0
    1bfc:	0a000004 	beq	1c14 <printk+0x1bc>
    1c00:	e1a03000 	mov	r3, r0
    1c04:	e5f32001 	ldrb	r2, [r3, #1]!
    1c08:	e3520000 	cmp	r2, #0
    1c0c:	1afffffc 	bne	1c04 <printk+0x1ac>
    1c10:	e0603003 	rsb	r3, r0, r3
    1c14:	e0855003 	add	r5, r5, r3
    1c18:	eaffff9d 	b	1a94 <printk+0x3c>
    1c1c:	e59d0014 	ldr	r0, [sp, #20]
    1c20:	e1a01006 	mov	r1, r6
    1c24:	e3a02010 	mov	r2, #16
    1c28:	e2803004 	add	r3, r0, #4
    1c2c:	e5900000 	ldr	r0, [r0]
    1c30:	e58d3014 	str	r3, [sp, #20]
    1c34:	ebffff41 	bl	1940 <utoa>
    1c38:	e5d6a000 	ldrb	sl, [r6]
    1c3c:	e35a0000 	cmp	sl, #0
    1c40:	0a000004 	beq	1c58 <printk+0x200>
    1c44:	e1a0a006 	mov	sl, r6
    1c48:	e5fa3001 	ldrb	r3, [sl, #1]!
    1c4c:	e3530000 	cmp	r3, #0
    1c50:	1afffffc 	bne	1c48 <printk+0x1f0>
    1c54:	e066a00a 	rsb	sl, r6, sl
    1c58:	e1a0100a 	mov	r1, sl
    1c5c:	e1a00006 	mov	r0, r6
    1c60:	e1a02007 	mov	r2, r7
    1c64:	ebffff64 	bl	19fc <print_align>
    1c68:	e28d3003 	add	r3, sp, #3
    1c6c:	e080000a 	add	r0, r0, sl
    1c70:	e1a01005 	mov	r1, r5
    1c74:	e5f32001 	ldrb	r2, [r3, #1]!
    1c78:	e3520000 	cmp	r2, #0
    1c7c:	e4c12001 	strb	r2, [r1], #1
    1c80:	1afffffb 	bne	1c74 <printk+0x21c>
    1c84:	e0855000 	add	r5, r5, r0
    1c88:	eaffff81 	b	1a94 <printk+0x3c>
    1c8c:	e59d3014 	ldr	r3, [sp, #20]
    1c90:	e5932000 	ldr	r2, [r3]
    1c94:	e2833004 	add	r3, r3, #4
    1c98:	e58d3014 	str	r3, [sp, #20]
    1c9c:	e5c52000 	strb	r2, [r5]
    1ca0:	eaffff7b 	b	1a94 <printk+0x3c>
    1ca4:	e5c59000 	strb	r9, [r5]
    1ca8:	e5d43000 	ldrb	r3, [r4]
    1cac:	e5c53001 	strb	r3, [r5, #1]
    1cb0:	e2855002 	add	r5, r5, #2
    1cb4:	eaffff76 	b	1a94 <printk+0x3c>
    1cb8:	e59d0014 	ldr	r0, [sp, #20]
    1cbc:	e1a01006 	mov	r1, r6
    1cc0:	e3a0200a 	mov	r2, #10
    1cc4:	e2803004 	add	r3, r0, #4
    1cc8:	e5900000 	ldr	r0, [r0]
    1ccc:	e58d3014 	str	r3, [sp, #20]
    1cd0:	ebfffee1 	bl	185c <itoa>
    1cd4:	e5d6a000 	ldrb	sl, [r6]
    1cd8:	e35a0000 	cmp	sl, #0
    1cdc:	0a000004 	beq	1cf4 <printk+0x29c>
    1ce0:	e1a0a006 	mov	sl, r6
    1ce4:	e5fa3001 	ldrb	r3, [sl, #1]!
    1ce8:	e3530000 	cmp	r3, #0
    1cec:	1afffffc 	bne	1ce4 <printk+0x28c>
    1cf0:	e066a00a 	rsb	sl, r6, sl
    1cf4:	e1a0100a 	mov	r1, sl
    1cf8:	e1a00006 	mov	r0, r6
    1cfc:	e1a02007 	mov	r2, r7
    1d00:	ebffff3d 	bl	19fc <print_align>
    1d04:	e28d3003 	add	r3, sp, #3
    1d08:	e080000a 	add	r0, r0, sl
    1d0c:	e1a01005 	mov	r1, r5
    1d10:	e5f32001 	ldrb	r2, [r3, #1]!
    1d14:	e3520000 	cmp	r2, #0
    1d18:	e4c12001 	strb	r2, [r1], #1
    1d1c:	1afffffb 	bne	1d10 <printk+0x2b8>
    1d20:	e0855000 	add	r5, r5, r0
    1d24:	eaffff5a 	b	1a94 <printk+0x3c>
    1d28:	00002d88 	andeq	r2, r0, r8, lsl #27

00001d2c <printk_nommu>:
    1d2c:	e92d000f 	push	{r0, r1, r2, r3}
    1d30:	e92d47f0 	push	{r4, r5, r6, r7, r8, r9, sl, lr}
    1d34:	e24dd018 	sub	sp, sp, #24
    1d38:	e28d303c 	add	r3, sp, #60	; 0x3c
    1d3c:	e59d4038 	ldr	r4, [sp, #56]	; 0x38
    1d40:	e58d3014 	str	r3, [sp, #20]
    1d44:	e59f82b0 	ldr	r8, [pc, #688]	; 1ffc <printk_nommu+0x2d0>
    1d48:	e5d43000 	ldrb	r3, [r4]
    1d4c:	e3530000 	cmp	r3, #0
    1d50:	01a05008 	moveq	r5, r8
    1d54:	0a00002c 	beq	1e0c <printk_nommu+0xe0>
    1d58:	e3a09025 	mov	r9, #37	; 0x25
    1d5c:	e28d6004 	add	r6, sp, #4
    1d60:	e1a05008 	mov	r5, r8
    1d64:	ea000003 	b	1d78 <printk_nommu+0x4c>
    1d68:	e5d43001 	ldrb	r3, [r4, #1]
    1d6c:	e2844001 	add	r4, r4, #1
    1d70:	e3530000 	cmp	r3, #0
    1d74:	0a000024 	beq	1e0c <printk_nommu+0xe0>
    1d78:	e3530025 	cmp	r3, #37	; 0x25
    1d7c:	14c53001 	strbne	r3, [r5], #1
    1d80:	1afffff8 	bne	1d68 <printk_nommu+0x3c>
    1d84:	e5d43001 	ldrb	r3, [r4, #1]
    1d88:	e2432031 	sub	r2, r3, #49	; 0x31
    1d8c:	e3520008 	cmp	r2, #8
    1d90:	92437030 	subls	r7, r3, #48	; 0x30
    1d94:	95d43002 	ldrbls	r3, [r4, #2]
    1d98:	82844001 	addhi	r4, r4, #1
    1d9c:	83a07000 	movhi	r7, #0
    1da0:	92844002 	addls	r4, r4, #2
    1da4:	e2433063 	sub	r3, r3, #99	; 0x63
    1da8:	e3530015 	cmp	r3, #21
    1dac:	979ff103 	ldrls	pc, [pc, r3, lsl #2]
    1db0:	ea000070 	b	1f78 <printk_nommu+0x24c>
    1db4:	00001f60 	andeq	r1, r0, r0, ror #30
    1db8:	00001f8c 	andeq	r1, r0, ip, lsl #31
    1dbc:	00001f78 	andeq	r1, r0, r8, ror pc
    1dc0:	00001f78 	andeq	r1, r0, r8, ror pc
    1dc4:	00001f78 	andeq	r1, r0, r8, ror pc
    1dc8:	00001f78 	andeq	r1, r0, r8, ror pc
    1dcc:	00001f78 	andeq	r1, r0, r8, ror pc
    1dd0:	00001f78 	andeq	r1, r0, r8, ror pc
    1dd4:	00001f78 	andeq	r1, r0, r8, ror pc
    1dd8:	00001f78 	andeq	r1, r0, r8, ror pc
    1ddc:	00001f78 	andeq	r1, r0, r8, ror pc
    1de0:	00001f78 	andeq	r1, r0, r8, ror pc
    1de4:	00001f78 	andeq	r1, r0, r8, ror pc
    1de8:	00001ef0 	strdeq	r1, [r0], -r0
    1dec:	00001f78 	andeq	r1, r0, r8, ror pc
    1df0:	00001f78 	andeq	r1, r0, r8, ror pc
    1df4:	00001ea0 	andeq	r1, r0, r0, lsr #29
    1df8:	00001f78 	andeq	r1, r0, r8, ror pc
    1dfc:	00001e30 	andeq	r1, r0, r0, lsr lr
    1e00:	00001f78 	andeq	r1, r0, r8, ror pc
    1e04:	00001f78 	andeq	r1, r0, r8, ror pc
    1e08:	00001ef0 	strdeq	r1, [r0], -r0
    1e0c:	e3a03000 	mov	r3, #0
    1e10:	e59f01e4 	ldr	r0, [pc, #484]	; 1ffc <printk_nommu+0x2d0>
    1e14:	e4c53001 	strb	r3, [r5], #1
    1e18:	ebfffd5c 	bl	1390 <serial_puts_nommu>
    1e1c:	e0680005 	rsb	r0, r8, r5
    1e20:	e28dd018 	add	sp, sp, #24
    1e24:	e8bd47f0 	pop	{r4, r5, r6, r7, r8, r9, sl, lr}
    1e28:	e28dd010 	add	sp, sp, #16
    1e2c:	e12fff1e 	bx	lr
    1e30:	e59d0014 	ldr	r0, [sp, #20]
    1e34:	e1a01006 	mov	r1, r6
    1e38:	e3a0200a 	mov	r2, #10
    1e3c:	e2803004 	add	r3, r0, #4
    1e40:	e5900000 	ldr	r0, [r0]
    1e44:	e58d3014 	str	r3, [sp, #20]
    1e48:	ebfffebc 	bl	1940 <utoa>
    1e4c:	e5d6a000 	ldrb	sl, [r6]
    1e50:	e35a0000 	cmp	sl, #0
    1e54:	0a000004 	beq	1e6c <printk_nommu+0x140>
    1e58:	e1a0a006 	mov	sl, r6
    1e5c:	e5fa3001 	ldrb	r3, [sl, #1]!
    1e60:	e3530000 	cmp	r3, #0
    1e64:	1afffffc 	bne	1e5c <printk_nommu+0x130>
    1e68:	e066a00a 	rsb	sl, r6, sl
    1e6c:	e1a0100a 	mov	r1, sl
    1e70:	e1a00006 	mov	r0, r6
    1e74:	e1a02007 	mov	r2, r7
    1e78:	ebfffedf 	bl	19fc <print_align>
    1e7c:	e28d3003 	add	r3, sp, #3
    1e80:	e080000a 	add	r0, r0, sl
    1e84:	e1a01005 	mov	r1, r5
    1e88:	e5f32001 	ldrb	r2, [r3, #1]!
    1e8c:	e3520000 	cmp	r2, #0
    1e90:	e4c12001 	strb	r2, [r1], #1
    1e94:	1afffffb 	bne	1e88 <printk_nommu+0x15c>
    1e98:	e0855000 	add	r5, r5, r0
    1e9c:	eaffffb1 	b	1d68 <printk_nommu+0x3c>
    1ea0:	e59d3014 	ldr	r3, [sp, #20]
    1ea4:	e1a01005 	mov	r1, r5
    1ea8:	e2832004 	add	r2, r3, #4
    1eac:	e58d2014 	str	r2, [sp, #20]
    1eb0:	e5930000 	ldr	r0, [r3]
    1eb4:	e2402001 	sub	r2, r0, #1
    1eb8:	e5f23001 	ldrb	r3, [r2, #1]!
    1ebc:	e3530000 	cmp	r3, #0
    1ec0:	e4c13001 	strb	r3, [r1], #1
    1ec4:	1afffffb 	bne	1eb8 <printk_nommu+0x18c>
    1ec8:	e5d03000 	ldrb	r3, [r0]
    1ecc:	e3530000 	cmp	r3, #0
    1ed0:	0a000004 	beq	1ee8 <printk_nommu+0x1bc>
    1ed4:	e1a03000 	mov	r3, r0
    1ed8:	e5f32001 	ldrb	r2, [r3, #1]!
    1edc:	e3520000 	cmp	r2, #0
    1ee0:	1afffffc 	bne	1ed8 <printk_nommu+0x1ac>
    1ee4:	e0603003 	rsb	r3, r0, r3
    1ee8:	e0855003 	add	r5, r5, r3
    1eec:	eaffff9d 	b	1d68 <printk_nommu+0x3c>
    1ef0:	e59d0014 	ldr	r0, [sp, #20]
    1ef4:	e1a01006 	mov	r1, r6
    1ef8:	e3a02010 	mov	r2, #16
    1efc:	e2803004 	add	r3, r0, #4
    1f00:	e5900000 	ldr	r0, [r0]
    1f04:	e58d3014 	str	r3, [sp, #20]
    1f08:	ebfffe8c 	bl	1940 <utoa>
    1f0c:	e5d6a000 	ldrb	sl, [r6]
    1f10:	e35a0000 	cmp	sl, #0
    1f14:	0a000004 	beq	1f2c <printk_nommu+0x200>
    1f18:	e1a0a006 	mov	sl, r6
    1f1c:	e5fa3001 	ldrb	r3, [sl, #1]!
    1f20:	e3530000 	cmp	r3, #0
    1f24:	1afffffc 	bne	1f1c <printk_nommu+0x1f0>
    1f28:	e066a00a 	rsb	sl, r6, sl
    1f2c:	e1a0100a 	mov	r1, sl
    1f30:	e1a00006 	mov	r0, r6
    1f34:	e1a02007 	mov	r2, r7
    1f38:	ebfffeaf 	bl	19fc <print_align>
    1f3c:	e28d3003 	add	r3, sp, #3
    1f40:	e080000a 	add	r0, r0, sl
    1f44:	e1a01005 	mov	r1, r5
    1f48:	e5f32001 	ldrb	r2, [r3, #1]!
    1f4c:	e3520000 	cmp	r2, #0
    1f50:	e4c12001 	strb	r2, [r1], #1
    1f54:	1afffffb 	bne	1f48 <printk_nommu+0x21c>
    1f58:	e0855000 	add	r5, r5, r0
    1f5c:	eaffff81 	b	1d68 <printk_nommu+0x3c>
    1f60:	e59d3014 	ldr	r3, [sp, #20]
    1f64:	e5932000 	ldr	r2, [r3]
    1f68:	e2833004 	add	r3, r3, #4
    1f6c:	e58d3014 	str	r3, [sp, #20]
    1f70:	e5c52000 	strb	r2, [r5]
    1f74:	eaffff7b 	b	1d68 <printk_nommu+0x3c>
    1f78:	e5c59000 	strb	r9, [r5]
    1f7c:	e5d43000 	ldrb	r3, [r4]
    1f80:	e5c53001 	strb	r3, [r5, #1]
    1f84:	e2855002 	add	r5, r5, #2
    1f88:	eaffff76 	b	1d68 <printk_nommu+0x3c>
    1f8c:	e59d0014 	ldr	r0, [sp, #20]
    1f90:	e1a01006 	mov	r1, r6
    1f94:	e3a0200a 	mov	r2, #10
    1f98:	e2803004 	add	r3, r0, #4
    1f9c:	e5900000 	ldr	r0, [r0]
    1fa0:	e58d3014 	str	r3, [sp, #20]
    1fa4:	ebfffe2c 	bl	185c <itoa>
    1fa8:	e5d6a000 	ldrb	sl, [r6]
    1fac:	e35a0000 	cmp	sl, #0
    1fb0:	0a000004 	beq	1fc8 <printk_nommu+0x29c>
    1fb4:	e1a0a006 	mov	sl, r6
    1fb8:	e5fa3001 	ldrb	r3, [sl, #1]!
    1fbc:	e3530000 	cmp	r3, #0
    1fc0:	1afffffc 	bne	1fb8 <printk_nommu+0x28c>
    1fc4:	e066a00a 	rsb	sl, r6, sl
    1fc8:	e1a0100a 	mov	r1, sl
    1fcc:	e1a00006 	mov	r0, r6
    1fd0:	e1a02007 	mov	r2, r7
    1fd4:	ebfffe88 	bl	19fc <print_align>
    1fd8:	e28d3003 	add	r3, sp, #3
    1fdc:	e080000a 	add	r0, r0, sl
    1fe0:	e1a01005 	mov	r1, r5
    1fe4:	e5f32001 	ldrb	r2, [r3, #1]!
    1fe8:	e3520000 	cmp	r2, #0
    1fec:	e4c12001 	strb	r2, [r1], #1
    1ff0:	1afffffb 	bne	1fe4 <printk_nommu+0x2b8>
    1ff4:	e0855000 	add	r5, r5, r0
    1ff8:	eaffff5a 	b	1d68 <printk_nommu+0x3c>
    1ffc:	00002d88 	andeq	r2, r0, r8, lsl #27

00002000 <standby_delay>:
    2000:	e92d000f 	push	{r0, r1, r2, r3}
    2004:	e3a01011 	mov	r1, #17
    2008:	e1a03000 	mov	r3, r0

0000200c <standby_delay_loop2>:
    200c:	e2500001 	subs	r0, r0, #1
    2010:	8afffffd 	bhi	200c <standby_delay_loop2>
    2014:	e1a00003 	mov	r0, r3
    2018:	e2511001 	subs	r1, r1, #1
    201c:	8afffffa 	bhi	200c <standby_delay_loop2>
    2020:	e8bd000f 	pop	{r0, r1, r2, r3}
    2024:	e1a0f00e 	mov	pc, lr

00002028 <standby_delay_cycle>:
    2028:	e2500001 	subs	r0, r0, #1
    202c:	8afffffd 	bhi	2028 <standby_delay_cycle>
    2030:	e1a0f00e 	mov	pc, lr

00002034 <Ldiv0>:
    2034:	e52de008 	str	lr, [sp, #-8]!
    2038:	eb000067 	bl	21dc <__div0>
    203c:	e3a00000 	mov	r0, #0
    2040:	e49df008 	ldr	pc, [sp], #8

00002044 <__aeabi_uidiv>:
    2044:	e2512001 	subs	r2, r1, #1
    2048:	01a0f00e 	moveq	pc, lr
    204c:	3afffff8 	bcc	2034 <Ldiv0>
    2050:	e1500001 	cmp	r0, r1
    2054:	9a00001a 	bls	20c4 <__aeabi_uidiv+0x80>
    2058:	e1110002 	tst	r1, r2
    205c:	0a00001b 	beq	20d0 <__aeabi_uidiv+0x8c>
    2060:	e16f3f11 	clz	r3, r1
    2064:	e16f2f10 	clz	r2, r0
    2068:	e0432002 	sub	r2, r3, r2
    206c:	e3a03001 	mov	r3, #1
    2070:	e1a01211 	lsl	r1, r1, r2
    2074:	e1a03213 	lsl	r3, r3, r2
    2078:	e3a02000 	mov	r2, #0
    207c:	e1500001 	cmp	r0, r1
    2080:	20400001 	subcs	r0, r0, r1
    2084:	21822003 	orrcs	r2, r2, r3
    2088:	e15000a1 	cmp	r0, r1, lsr #1
    208c:	204000a1 	subcs	r0, r0, r1, lsr #1
    2090:	218220a3 	orrcs	r2, r2, r3, lsr #1
    2094:	e1500121 	cmp	r0, r1, lsr #2
    2098:	20400121 	subcs	r0, r0, r1, lsr #2
    209c:	21822123 	orrcs	r2, r2, r3, lsr #2
    20a0:	e15001a1 	cmp	r0, r1, lsr #3
    20a4:	204001a1 	subcs	r0, r0, r1, lsr #3
    20a8:	218221a3 	orrcs	r2, r2, r3, lsr #3
    20ac:	e3500000 	cmp	r0, #0
    20b0:	11b03223 	lsrsne	r3, r3, #4
    20b4:	11a01221 	lsrne	r1, r1, #4
    20b8:	1affffef 	bne	207c <__aeabi_uidiv+0x38>
    20bc:	e1a00002 	mov	r0, r2
    20c0:	e1a0f00e 	mov	pc, lr
    20c4:	03a00001 	moveq	r0, #1
    20c8:	13a00000 	movne	r0, #0
    20cc:	e1a0f00e 	mov	pc, lr
    20d0:	e16f2f11 	clz	r2, r1
    20d4:	e262201f 	rsb	r2, r2, #31
    20d8:	e1a00230 	lsr	r0, r0, r2
    20dc:	e1a0f00e 	mov	pc, lr

000020e0 <__aeabi_idiv>:
    20e0:	e3510000 	cmp	r1, #0
    20e4:	e020c001 	eor	ip, r0, r1
    20e8:	0affffd1 	beq	2034 <Ldiv0>
    20ec:	42611000 	rsbmi	r1, r1, #0
    20f0:	e2512001 	subs	r2, r1, #1
    20f4:	0a00001f 	beq	2178 <__aeabi_idiv+0x98>
    20f8:	e1b03000 	movs	r3, r0
    20fc:	42603000 	rsbmi	r3, r0, #0
    2100:	e1530001 	cmp	r3, r1
    2104:	9a00001e 	bls	2184 <__aeabi_idiv+0xa4>
    2108:	e1110002 	tst	r1, r2
    210c:	0a000020 	beq	2194 <__aeabi_idiv+0xb4>
    2110:	e16f2f11 	clz	r2, r1
    2114:	e16f0f13 	clz	r0, r3
    2118:	e0420000 	sub	r0, r2, r0
    211c:	e3a02001 	mov	r2, #1
    2120:	e1a01011 	lsl	r1, r1, r0
    2124:	e1a02012 	lsl	r2, r2, r0
    2128:	e3a00000 	mov	r0, #0
    212c:	e1530001 	cmp	r3, r1
    2130:	20433001 	subcs	r3, r3, r1
    2134:	21800002 	orrcs	r0, r0, r2
    2138:	e15300a1 	cmp	r3, r1, lsr #1
    213c:	204330a1 	subcs	r3, r3, r1, lsr #1
    2140:	218000a2 	orrcs	r0, r0, r2, lsr #1
    2144:	e1530121 	cmp	r3, r1, lsr #2
    2148:	20433121 	subcs	r3, r3, r1, lsr #2
    214c:	21800122 	orrcs	r0, r0, r2, lsr #2
    2150:	e15301a1 	cmp	r3, r1, lsr #3
    2154:	204331a1 	subcs	r3, r3, r1, lsr #3
    2158:	218001a2 	orrcs	r0, r0, r2, lsr #3
    215c:	e3530000 	cmp	r3, #0
    2160:	11b02222 	lsrsne	r2, r2, #4
    2164:	11a01221 	lsrne	r1, r1, #4
    2168:	1affffef 	bne	212c <__aeabi_idiv+0x4c>
    216c:	e35c0000 	cmp	ip, #0
    2170:	42600000 	rsbmi	r0, r0, #0
    2174:	e1a0f00e 	mov	pc, lr
    2178:	e13c0000 	teq	ip, r0
    217c:	42600000 	rsbmi	r0, r0, #0
    2180:	e1a0f00e 	mov	pc, lr
    2184:	33a00000 	movcc	r0, #0
    2188:	01a00fcc 	asreq	r0, ip, #31
    218c:	03800001 	orreq	r0, r0, #1
    2190:	e1a0f00e 	mov	pc, lr
    2194:	e16f2f11 	clz	r2, r1
    2198:	e262201f 	rsb	r2, r2, #31
    219c:	e35c0000 	cmp	ip, #0
    21a0:	e1a00233 	lsr	r0, r3, r2
    21a4:	42600000 	rsbmi	r0, r0, #0
    21a8:	e1a0f00e 	mov	pc, lr

000021ac <__aeabi_uidivmod>:
    21ac:	e92d5003 	push	{r0, r1, ip, lr}
    21b0:	ebffffa3 	bl	2044 <__aeabi_uidiv>
    21b4:	e8bd5006 	pop	{r1, r2, ip, lr}
    21b8:	e0030290 	mul	r3, r0, r2
    21bc:	e0411003 	sub	r1, r1, r3
    21c0:	e1a0f00e 	mov	pc, lr

000021c4 <__aeabi_idivmod>:
    21c4:	e92d5003 	push	{r0, r1, ip, lr}
    21c8:	ebffffc4 	bl	20e0 <__aeabi_idiv>
    21cc:	e8bd5006 	pop	{r1, r2, ip, lr}
    21d0:	e0030290 	mul	r3, r0, r2
    21d4:	e0411003 	sub	r1, r1, r3
    21d8:	e1a0f00e 	mov	pc, lr

000021dc <__div0>:
    21dc:	e3020978 	movw	r0, #10616	; 0x2978
    21e0:	e3400000 	movt	r0, #0
    21e4:	eafffe1b 	b	1a58 <printk>

000021e8 <raw_lib_udiv>:
    21e8:	e3510000 	cmp	r1, #0
    21ec:	01a02001 	moveq	r2, r1
    21f0:	0a00000d 	beq	222c <raw_lib_udiv+0x44>
    21f4:	e3a03000 	mov	r3, #0
    21f8:	ba000002 	blt	2208 <raw_lib_udiv+0x20>
    21fc:	e1b01081 	lsls	r1, r1, #1
    2200:	e2833001 	add	r3, r3, #1
    2204:	5afffffc 	bpl	21fc <raw_lib_udiv+0x14>
    2208:	e3a02000 	mov	r2, #0
    220c:	e1a0c082 	lsl	ip, r2, #1
    2210:	e1500001 	cmp	r0, r1
    2214:	20610000 	rsbcs	r0, r1, r0
    2218:	31a02082 	lslcc	r2, r2, #1
    221c:	238c2001 	orrcs	r2, ip, #1
    2220:	e1a010a1 	lsr	r1, r1, #1
    2224:	e2533001 	subs	r3, r3, #1
    2228:	5afffff7 	bpl	220c <raw_lib_udiv+0x24>
    222c:	e1a00002 	mov	r0, r2
    2230:	e12fff1e 	bx	lr

00002234 <mem_int_init>:
    2234:	e59f0080 	ldr	r0, [pc, #128]	; 22bc <mem_int_init+0x88>
    2238:	e3013184 	movw	r3, #4484	; 0x1184
    223c:	e3a02d47 	mov	r2, #4544	; 0x11c0
    2240:	e92d4010 	push	{r4, lr}
    2244:	e3a0ca02 	mov	ip, #8192	; 0x2000
    2248:	e3a04a01 	mov	r4, #4096	; 0x1000
    224c:	e34f31c8 	movt	r3, #61896	; 0xf1c8
    2250:	e3e01000 	mvn	r1, #0
    2254:	e34f21c8 	movt	r2, #61896	; 0xf1c8
    2258:	e34f41c8 	movt	r4, #61896	; 0xf1c8
    225c:	e34fc1c8 	movt	ip, #61896	; 0xf1c8
    2260:	e8801010 	stm	r0, {r4, ip}
    2264:	e4831004 	str	r1, [r3], #4
    2268:	e1530002 	cmp	r3, r2
    226c:	1afffffc 	bne	2264 <mem_int_init+0x30>
    2270:	e3013284 	movw	r3, #4740	; 0x1284
    2274:	e3a02d4b 	mov	r2, #4800	; 0x12c0
    2278:	e34f31c8 	movt	r3, #61896	; 0xf1c8
    227c:	e3e01000 	mvn	r1, #0
    2280:	e34f21c8 	movt	r2, #61896	; 0xf1c8
    2284:	e4831004 	str	r1, [r3], #4
    2288:	e1530002 	cmp	r3, r2
    228c:	1afffffc 	bne	2284 <mem_int_init+0x50>
    2290:	e3a03a02 	mov	r3, #8192	; 0x2000
    2294:	e30023ff 	movw	r2, #1023	; 0x3ff
    2298:	e34f31c8 	movt	r3, #61896	; 0xf1c8
    229c:	e593100c 	ldr	r1, [r3, #12]
    22a0:	e1510002 	cmp	r1, r2
    22a4:	0a000002 	beq	22b4 <mem_int_init+0x80>
    22a8:	e5831010 	str	r1, [r3, #16]
    22ac:	e59f000c 	ldr	r0, [pc, #12]	; 22c0 <mem_int_init+0x8c>
    22b0:	ebfffde8 	bl	1a58 <printk>
    22b4:	e3a00000 	mov	r0, #0
    22b8:	e8bd8010 	pop	{r4, pc}
    22bc:	00002bb4 			; <UNDEFINED> instruction: 0x00002bb4
    22c0:	00002994 	muleq	r0, r4, r9

000022c4 <mem_int_exit>:
    22c4:	e3a02000 	mov	r2, #0
    22c8:	e24dd008 	sub	sp, sp, #8
    22cc:	e1a03002 	mov	r3, r2
    22d0:	e58d2004 	str	r2, [sp, #4]
    22d4:	e59f2038 	ldr	r2, [pc, #56]	; 2314 <mem_int_exit+0x50>
    22d8:	e5922000 	ldr	r2, [r2]
    22dc:	e282cc01 	add	ip, r2, #256	; 0x100
    22e0:	e2822d0a 	add	r2, r2, #640	; 0x280
    22e4:	e79c1003 	ldr	r1, [ip, r3]
    22e8:	e58d1004 	str	r1, [sp, #4]
    22ec:	e7921003 	ldr	r1, [r2, r3]
    22f0:	e59d0004 	ldr	r0, [sp, #4]
    22f4:	e1c11000 	bic	r1, r1, r0
    22f8:	e7821003 	str	r1, [r2, r3]
    22fc:	e2833004 	add	r3, r3, #4
    2300:	e3530040 	cmp	r3, #64	; 0x40
    2304:	1afffff6 	bne	22e4 <mem_int_exit+0x20>
    2308:	e3a00000 	mov	r0, #0
    230c:	e28dd008 	add	sp, sp, #8
    2310:	e12fff1e 	bx	lr
    2314:	00002bb4 			; <UNDEFINED> instruction: 0x00002bb4

00002318 <mem_enable_int>:
    2318:	e1a022a0 	lsr	r2, r0, #5
    231c:	e92d0030 	push	{r4, r5}
    2320:	e3023bb4 	movw	r3, #11188	; 0x2bb4
    2324:	e2822040 	add	r2, r2, #64	; 0x40
    2328:	e3a0ca01 	mov	ip, #4096	; 0x1000
    232c:	e1a02102 	lsl	r2, r2, #2
    2330:	e3a01a02 	mov	r1, #8192	; 0x2000
    2334:	e3403000 	movt	r3, #0
    2338:	e24226e3 	sub	r2, r2, #238026752	; 0xe300000
    233c:	e34fc1c8 	movt	ip, #61896	; 0xf1c8
    2340:	e2422a7f 	sub	r2, r2, #520192	; 0x7f000
    2344:	e34f11c8 	movt	r1, #61896	; 0xf1c8
    2348:	e5924000 	ldr	r4, [r2]
    234c:	e200501f 	and	r5, r0, #31
    2350:	e583c000 	str	ip, [r3]
    2354:	e3a00000 	mov	r0, #0
    2358:	e5831004 	str	r1, [r3, #4]
    235c:	e3a03001 	mov	r3, #1
    2360:	e1843513 	orr	r3, r4, r3, lsl r5
    2364:	e5823000 	str	r3, [r2]
    2368:	e8bd0030 	pop	{r4, r5}
    236c:	e12fff1e 	bx	lr

00002370 <mem_query_int>:
    2370:	e1a0c2a0 	lsr	ip, r0, #5
    2374:	e59f3040 	ldr	r3, [pc, #64]	; 23bc <mem_query_int+0x4c>
    2378:	e3a01a01 	mov	r1, #4096	; 0x1000
    237c:	e28cc080 	add	ip, ip, #128	; 0x80
    2380:	e34f11c8 	movt	r1, #61896	; 0xf1c8
    2384:	e1a0c10c 	lsl	ip, ip, #2
    2388:	e5831000 	str	r1, [r3]
    238c:	e3a02a02 	mov	r2, #8192	; 0x2000
    2390:	e24cc6e3 	sub	ip, ip, #238026752	; 0xe300000
    2394:	e34f21c8 	movt	r2, #61896	; 0xf1c8
    2398:	e24cca7f 	sub	ip, ip, #520192	; 0x7f000
    239c:	e200001f 	and	r0, r0, #31
    23a0:	e59c1000 	ldr	r1, [ip]
    23a4:	e5832004 	str	r2, [r3, #4]
    23a8:	e3a03001 	mov	r3, #1
    23ac:	e0113013 	ands	r3, r1, r3, lsl r0
    23b0:	03e00000 	mvneq	r0, #0
    23b4:	13a00000 	movne	r0, #0
    23b8:	e12fff1e 	bx	lr
    23bc:	00002bb4 			; <UNDEFINED> instruction: 0x00002bb4

000023c0 <mem_tmr_save>:
    23c0:	e3a03000 	mov	r3, #0
    23c4:	e1a02000 	mov	r2, r0
    23c8:	e34f31c2 	movt	r3, #61890	; 0xf1c2
    23cc:	e3020bbc 	movw	r0, #11196	; 0x2bbc
    23d0:	e5931c00 	ldr	r1, [r3, #3072]	; 0xc00
    23d4:	e3a0cb03 	mov	ip, #3072	; 0xc00
    23d8:	e3400000 	movt	r0, #0
    23dc:	e34fc1c2 	movt	ip, #61890	; 0xf1c2
    23e0:	e580c000 	str	ip, [r0]
    23e4:	e3a00000 	mov	r0, #0
    23e8:	e5821000 	str	r1, [r2]
    23ec:	e5931c10 	ldr	r1, [r3, #3088]	; 0xc10
    23f0:	e5821010 	str	r1, [r2, #16]
    23f4:	e5931c14 	ldr	r1, [r3, #3092]	; 0xc14
    23f8:	e5821014 	str	r1, [r2, #20]
    23fc:	e5931c18 	ldr	r1, [r3, #3096]	; 0xc18
    2400:	e5821018 	str	r1, [r2, #24]
    2404:	e5931c20 	ldr	r1, [r3, #3104]	; 0xc20
    2408:	e5821020 	str	r1, [r2, #32]
    240c:	e5931c24 	ldr	r1, [r3, #3108]	; 0xc24
    2410:	e5821024 	str	r1, [r2, #36]	; 0x24
    2414:	e5933c28 	ldr	r3, [r3, #3112]	; 0xc28
    2418:	e5823028 	str	r3, [r2, #40]	; 0x28
    241c:	e12fff1e 	bx	lr

00002420 <mem_tmr_restore>:
    2420:	e3023bbc 	movw	r3, #11196	; 0x2bbc
    2424:	e5901014 	ldr	r1, [r0, #20]
    2428:	e3403000 	movt	r3, #0
    242c:	e1a02000 	mov	r2, r0
    2430:	e5933000 	ldr	r3, [r3]
    2434:	e3a00000 	mov	r0, #0
    2438:	e5831014 	str	r1, [r3, #20]
    243c:	e5921018 	ldr	r1, [r2, #24]
    2440:	e5831018 	str	r1, [r3, #24]
    2444:	e5921010 	ldr	r1, [r2, #16]
    2448:	e5831010 	str	r1, [r3, #16]
    244c:	e5921024 	ldr	r1, [r2, #36]	; 0x24
    2450:	e5831024 	str	r1, [r3, #36]	; 0x24
    2454:	e5921028 	ldr	r1, [r2, #40]	; 0x28
    2458:	e5831028 	str	r1, [r3, #40]	; 0x28
    245c:	e5921020 	ldr	r1, [r2, #32]
    2460:	e5831020 	str	r1, [r3, #32]
    2464:	e5922000 	ldr	r2, [r2]
    2468:	e5832000 	str	r2, [r3]
    246c:	e12fff1e 	bx	lr

00002470 <mem_tmr_init>:
    2470:	e3a02000 	mov	r2, #0
    2474:	e3023bbc 	movw	r3, #11196	; 0x2bbc
    2478:	e34f21c2 	movt	r2, #61890	; 0xf1c2
    247c:	e3a01b03 	mov	r1, #3072	; 0xc00
    2480:	e592ccb4 	ldr	ip, [r2, #3252]	; 0xcb4
    2484:	e3403000 	movt	r3, #0
    2488:	e34f11c2 	movt	r1, #61890	; 0xf1c2
    248c:	e3a00000 	mov	r0, #0
    2490:	e8831002 	stm	r3, {r1, ip}
    2494:	e5921cb8 	ldr	r1, [r2, #3256]	; 0xcb8
    2498:	e5831008 	str	r1, [r3, #8]
    249c:	e5922ca0 	ldr	r2, [r2, #3232]	; 0xca0
    24a0:	e583200c 	str	r2, [r3, #12]
    24a4:	e12fff1e 	bx	lr

000024a8 <mem_tmr_exit>:
    24a8:	e3023bbc 	movw	r3, #11196	; 0x2bbc
    24ac:	e3a00000 	mov	r0, #0
    24b0:	e3403000 	movt	r3, #0
    24b4:	e8931004 	ldm	r3, {r2, ip}
    24b8:	e5931008 	ldr	r1, [r3, #8]
    24bc:	e593300c 	ldr	r3, [r3, #12]
    24c0:	e582c0b4 	str	ip, [r2, #180]	; 0xb4
    24c4:	e58210b8 	str	r1, [r2, #184]	; 0xb8
    24c8:	e58230a0 	str	r3, [r2, #160]	; 0xa0
    24cc:	e12fff1e 	bx	lr

000024d0 <mem_tmr_enable_watchdog>:
    24d0:	e3023bbc 	movw	r3, #11196	; 0x2bbc
    24d4:	e3403000 	movt	r3, #0
    24d8:	e5933000 	ldr	r3, [r3]
    24dc:	e59320b4 	ldr	r2, [r3, #180]	; 0xb4
    24e0:	e3c22003 	bic	r2, r2, #3
    24e4:	e58320b4 	str	r2, [r3, #180]	; 0xb4
    24e8:	e59320b4 	ldr	r2, [r3, #180]	; 0xb4
    24ec:	e3822001 	orr	r2, r2, #1
    24f0:	e58320b4 	str	r2, [r3, #180]	; 0xb4
    24f4:	e3a020b0 	mov	r2, #176	; 0xb0
    24f8:	e58320b8 	str	r2, [r3, #184]	; 0xb8
    24fc:	e59320a0 	ldr	r2, [r3, #160]	; 0xa0
    2500:	e3822001 	orr	r2, r2, #1
    2504:	e58320a0 	str	r2, [r3, #160]	; 0xa0
    2508:	e59320b8 	ldr	r2, [r3, #184]	; 0xb8
    250c:	e3822001 	orr	r2, r2, #1
    2510:	e58320b8 	str	r2, [r3, #184]	; 0xb8
    2514:	e12fff1e 	bx	lr

00002518 <mem_tmr_disable_watchdog>:
    2518:	e3023bbc 	movw	r3, #11196	; 0x2bbc
    251c:	e3403000 	movt	r3, #0
    2520:	e5933000 	ldr	r3, [r3]
    2524:	e59320b4 	ldr	r2, [r3, #180]	; 0xb4
    2528:	e3c22003 	bic	r2, r2, #3
    252c:	e58320b4 	str	r2, [r3, #180]	; 0xb4
    2530:	e59320b4 	ldr	r2, [r3, #180]	; 0xb4
    2534:	e3822002 	orr	r2, r2, #2
    2538:	e58320b4 	str	r2, [r3, #180]	; 0xb4
    253c:	e59320a0 	ldr	r2, [r3, #160]	; 0xa0
    2540:	e3c22001 	bic	r2, r2, #1
    2544:	e58320a0 	str	r2, [r3, #160]	; 0xa0
    2548:	e59320b8 	ldr	r2, [r3, #184]	; 0xb8
    254c:	e3c22001 	bic	r2, r2, #1
    2550:	e58320b8 	str	r2, [r3, #184]	; 0xb8
    2554:	e12fff1e 	bx	lr

00002558 <mem_clk_save>:
    2558:	e3a03000 	mov	r3, #0
    255c:	e1a02000 	mov	r2, r0
    2560:	e34f31c2 	movt	r3, #61890	; 0xf1c2
    2564:	e3020bcc 	movw	r0, #11212	; 0x2bcc
    2568:	e5931050 	ldr	r1, [r3, #80]	; 0x50
    256c:	e3400000 	movt	r0, #0
    2570:	e5803000 	str	r3, [r0]
    2574:	e3a00000 	mov	r0, #0
    2578:	e5823000 	str	r3, [r2]
    257c:	e5821004 	str	r1, [r2, #4]
    2580:	e5931058 	ldr	r1, [r3, #88]	; 0x58
    2584:	e5821008 	str	r1, [r2, #8]
    2588:	e5931054 	ldr	r1, [r3, #84]	; 0x54
    258c:	e582100c 	str	r1, [r2, #12]
    2590:	e5931000 	ldr	r1, [r3]
    2594:	e5821010 	str	r1, [r2, #16]
    2598:	e5931008 	ldr	r1, [r3, #8]
    259c:	e5821014 	str	r1, [r2, #20]
    25a0:	e5931010 	ldr	r1, [r3, #16]
    25a4:	e5821018 	str	r1, [r2, #24]
    25a8:	e5931018 	ldr	r1, [r3, #24]
    25ac:	e582101c 	str	r1, [r2, #28]
    25b0:	e5931020 	ldr	r1, [r3, #32]
    25b4:	e5821020 	str	r1, [r2, #32]
    25b8:	e5931028 	ldr	r1, [r3, #40]	; 0x28
    25bc:	e5821024 	str	r1, [r2, #36]	; 0x24
    25c0:	e5931030 	ldr	r1, [r3, #48]	; 0x30
    25c4:	e5821028 	str	r1, [r2, #40]	; 0x28
    25c8:	e593105c 	ldr	r1, [r3, #92]	; 0x5c
    25cc:	e582102c 	str	r1, [r2, #44]	; 0x2c
    25d0:	e5931060 	ldr	r1, [r3, #96]	; 0x60
    25d4:	e5821030 	str	r1, [r2, #48]	; 0x30
    25d8:	e5931064 	ldr	r1, [r3, #100]	; 0x64
    25dc:	e5821034 	str	r1, [r2, #52]	; 0x34
    25e0:	e5931068 	ldr	r1, [r3, #104]	; 0x68
    25e4:	e5821038 	str	r1, [r2, #56]	; 0x38
    25e8:	e593306c 	ldr	r3, [r3, #108]	; 0x6c
    25ec:	e582303c 	str	r3, [r2, #60]	; 0x3c
    25f0:	e12fff1e 	bx	lr

000025f4 <mem_clk_restore>:
    25f4:	e92d4038 	push	{r3, r4, r5, lr}
    25f8:	e1a04000 	mov	r4, r0
    25fc:	e5903000 	ldr	r3, [r0]
    2600:	e3025bcc 	movw	r5, #11212	; 0x2bcc
    2604:	e3405000 	movt	r5, #0
    2608:	e5902004 	ldr	r2, [r0, #4]
    260c:	e3090043 	movw	r0, #36931	; 0x9043
    2610:	e5853000 	str	r3, [r5]
    2614:	e5832050 	str	r2, [r3, #80]	; 0x50
    2618:	e5942008 	ldr	r2, [r4, #8]
    261c:	e5832058 	str	r2, [r3, #88]	; 0x58
    2620:	ebfff7e2 	bl	5b0 <save_mem_status>
    2624:	e5953000 	ldr	r3, [r5]
    2628:	e3090048 	movw	r0, #36936	; 0x9048
    262c:	e594200c 	ldr	r2, [r4, #12]
    2630:	e5832054 	str	r2, [r3, #84]	; 0x54
    2634:	e594202c 	ldr	r2, [r4, #44]	; 0x2c
    2638:	e583205c 	str	r2, [r3, #92]	; 0x5c
    263c:	e5942030 	ldr	r2, [r4, #48]	; 0x30
    2640:	e5832060 	str	r2, [r3, #96]	; 0x60
    2644:	e5942034 	ldr	r2, [r4, #52]	; 0x34
    2648:	e5832064 	str	r2, [r3, #100]	; 0x64
    264c:	e5942038 	ldr	r2, [r4, #56]	; 0x38
    2650:	e5832068 	str	r2, [r3, #104]	; 0x68
    2654:	ebfff7d5 	bl	5b0 <save_mem_status>
    2658:	e5953000 	ldr	r3, [r5]
    265c:	e3090049 	movw	r0, #36937	; 0x9049
    2660:	e594203c 	ldr	r2, [r4, #60]	; 0x3c
    2664:	e583206c 	str	r2, [r3, #108]	; 0x6c
    2668:	ebfff7d0 	bl	5b0 <save_mem_status>
    266c:	e3090050 	movw	r0, #36944	; 0x9050
    2670:	ebfff7ce 	bl	5b0 <save_mem_status>
    2674:	e5953000 	ldr	r3, [r5]
    2678:	e3090051 	movw	r0, #36945	; 0x9051
    267c:	e5942014 	ldr	r2, [r4, #20]
    2680:	e5832008 	str	r2, [r3, #8]
    2684:	ebfff7c9 	bl	5b0 <save_mem_status>
    2688:	e5953000 	ldr	r3, [r5]
    268c:	e3090052 	movw	r0, #36946	; 0x9052
    2690:	e5942018 	ldr	r2, [r4, #24]
    2694:	e5832010 	str	r2, [r3, #16]
    2698:	ebfff7c4 	bl	5b0 <save_mem_status>
    269c:	e5953000 	ldr	r3, [r5]
    26a0:	e3090053 	movw	r0, #36947	; 0x9053
    26a4:	e594201c 	ldr	r2, [r4, #28]
    26a8:	e5832018 	str	r2, [r3, #24]
    26ac:	ebfff7bf 	bl	5b0 <save_mem_status>
    26b0:	e5953000 	ldr	r3, [r5]
    26b4:	e3090054 	movw	r0, #36948	; 0x9054
    26b8:	e5942024 	ldr	r2, [r4, #36]	; 0x24
    26bc:	e5832028 	str	r2, [r3, #40]	; 0x28
    26c0:	ebfff7ba 	bl	5b0 <save_mem_status>
    26c4:	e5953000 	ldr	r3, [r5]
    26c8:	e3090055 	movw	r0, #36949	; 0x9055
    26cc:	e5942028 	ldr	r2, [r4, #40]	; 0x28
    26d0:	e5832030 	str	r2, [r3, #48]	; 0x30
    26d4:	ebfff7b5 	bl	5b0 <save_mem_status>
    26d8:	e3a00000 	mov	r0, #0
    26dc:	e8bd8038 	pop	{r3, r4, r5, pc}

000026e0 <mem_clk_init>:
    26e0:	e3500001 	cmp	r0, #1
    26e4:	e3a03000 	mov	r3, #0
    26e8:	059f201c 	ldreq	r2, [pc, #28]	; 270c <mem_clk_init+0x2c>
    26ec:	034f31c2 	movteq	r3, #61890	; 0xf1c2
    26f0:	159f2014 	ldrne	r2, [pc, #20]	; 270c <mem_clk_init+0x2c>
    26f4:	134031c2 	movtne	r3, #450	; 0x1c2
    26f8:	01a00003 	moveq	r0, r3
    26fc:	11a00003 	movne	r0, r3
    2700:	05823000 	streq	r3, [r2]
    2704:	15823000 	strne	r3, [r2]
    2708:	e12fff1e 	bx	lr
    270c:	00002bcc 	andeq	r2, r0, ip, asr #23

00002710 <mem_clk_setdiv>:
    2710:	e2502000 	subs	r2, r0, #0
    2714:	0a00000b 	beq	2748 <mem_clk_setdiv+0x38>
    2718:	e59f1030 	ldr	r1, [pc, #48]	; 2750 <mem_clk_setdiv+0x40>
    271c:	e3a03000 	mov	r3, #0
    2720:	e34031c2 	movt	r3, #450	; 0x1c2
    2724:	e592c000 	ldr	ip, [r2]
    2728:	e3a00000 	mov	r0, #0
    272c:	e5813000 	str	r3, [r1]
    2730:	e5931050 	ldr	r1, [r3, #80]	; 0x50
    2734:	e7c2101c 	bfi	r1, ip, #0, #3
    2738:	e5831050 	str	r1, [r3, #80]	; 0x50
    273c:	e5922004 	ldr	r2, [r2, #4]
    2740:	e5832054 	str	r2, [r3, #84]	; 0x54
    2744:	e12fff1e 	bx	lr
    2748:	e3e00000 	mvn	r0, #0
    274c:	e12fff1e 	bx	lr
    2750:	00002bcc 	andeq	r2, r0, ip, asr #23

00002754 <mem_clk_getdiv>:
    2754:	e2503000 	subs	r3, r0, #0
    2758:	159f2020 	ldrne	r2, [pc, #32]	; 2780 <mem_clk_getdiv+0x2c>
    275c:	13a00000 	movne	r0, #0
    2760:	03e00000 	mvneq	r0, #0
    2764:	15922000 	ldrne	r2, [r2]
    2768:	15921050 	ldrne	r1, [r2, #80]	; 0x50
    276c:	12011007 	andne	r1, r1, #7
    2770:	15831000 	strne	r1, [r3]
    2774:	15922054 	ldrne	r2, [r2, #84]	; 0x54
    2778:	15832004 	strne	r2, [r3, #4]
    277c:	e12fff1e 	bx	lr
    2780:	00002bcc 	andeq	r2, r0, ip, asr #23

00002784 <mem_clk_set_pll_factor>:
    2784:	e3021bcc 	movw	r1, #11212	; 0x2bcc
    2788:	e3a03000 	mov	r3, #0
    278c:	e34031c2 	movt	r3, #450	; 0x1c2
    2790:	e3401000 	movt	r1, #0
    2794:	e5d0c001 	ldrb	ip, [r0, #1]
    2798:	e1a02000 	mov	r2, r0
    279c:	e5813000 	str	r3, [r1]
    27a0:	e3a00000 	mov	r0, #0
    27a4:	e5931000 	ldr	r1, [r3]
    27a8:	e7c5121c 	bfi	r1, ip, #4, #2
    27ac:	e5831000 	str	r1, [r3]
    27b0:	e5931000 	ldr	r1, [r3]
    27b4:	e5d2c002 	ldrb	ip, [r2, #2]
    27b8:	e7c1101c 	bfi	r1, ip, #0, #2
    27bc:	e5831000 	str	r1, [r3]
    27c0:	e5d21000 	ldrb	r1, [r2]
    27c4:	e5932000 	ldr	r2, [r3]
    27c8:	e7cc2411 	bfi	r2, r1, #8, #5
    27cc:	e5832000 	str	r2, [r3]
    27d0:	e12fff1e 	bx	lr

000027d4 <mem_clk_get_pll_factor>:
    27d4:	e3022bcc 	movw	r2, #11212	; 0x2bcc
    27d8:	e1a03000 	mov	r3, r0
    27dc:	e3402000 	movt	r2, #0
    27e0:	e3a00000 	mov	r0, #0
    27e4:	e5922000 	ldr	r2, [r2]
    27e8:	e5921000 	ldr	r1, [r2]
    27ec:	e7e41451 	ubfx	r1, r1, #8, #5
    27f0:	e5c31000 	strb	r1, [r3]
    27f4:	e5921000 	ldr	r1, [r2]
    27f8:	e7e11251 	ubfx	r1, r1, #4, #2
    27fc:	e5c31001 	strb	r1, [r3, #1]
    2800:	e5922000 	ldr	r2, [r2]
    2804:	e7e12052 	ubfx	r2, r2, #0, #2
    2808:	e5c32002 	strb	r2, [r3, #2]
    280c:	e12fff1e 	bx	lr

00002810 <mem_clk_set_misc>:
    2810:	e1a02000 	mov	r2, r0
    2814:	e3a03000 	mov	r3, #0
    2818:	e5921000 	ldr	r1, [r2]
    281c:	e3020bcc 	movw	r0, #11212	; 0x2bcc
    2820:	e34031c2 	movt	r3, #450	; 0x1c2
    2824:	e3400000 	movt	r0, #0
    2828:	e5803000 	str	r3, [r0]
    282c:	e3a00000 	mov	r0, #0
    2830:	e5831220 	str	r1, [r3, #544]	; 0x220
    2834:	e5921004 	ldr	r1, [r2, #4]
    2838:	e5831234 	str	r1, [r3, #564]	; 0x234
    283c:	e5922008 	ldr	r2, [r2, #8]
    2840:	e5832250 	str	r2, [r3, #592]	; 0x250
    2844:	e12fff1e 	bx	lr

00002848 <mem_clk_get_misc>:
    2848:	e3022bcc 	movw	r2, #11212	; 0x2bcc
    284c:	e1a03000 	mov	r3, r0
    2850:	e3402000 	movt	r2, #0
    2854:	e3a00000 	mov	r0, #0
    2858:	e5922000 	ldr	r2, [r2]
    285c:	e592c220 	ldr	ip, [r2, #544]	; 0x220
    2860:	e5921234 	ldr	r1, [r2, #564]	; 0x234
    2864:	e5922250 	ldr	r2, [r2, #592]	; 0x250
    2868:	e583c000 	str	ip, [r3]
    286c:	e9830006 	stmib	r3, {r1, r2}
    2870:	e12fff1e 	bx	lr

Disassembly of section .rodata:

00002874 <CSWTCH.23>:
    2874:	00000001 	andeq	r0, r0, r1
    2878:	00000002 	andeq	r0, r0, r2
    287c:	00000000 	andeq	r0, r0, r0
    2880:	00000003 	andeq	r0, r0, r3

00002884 <CSWTCH.11>:
    2884:	00007d00 	andeq	r7, r0, r0, lsl #26
    2888:	016e3600 	cmneq	lr, r0, lsl #12
    288c:	23c34600 	biccs	r4, r3, #0

Disassembly of section .rodata.str1.4:

00002890 <.rodata.str1.4>:
    2890:	75736572 	ldrbvc	r6, [r3, #-1394]!	; 0x572
    2894:	3a31656d 	bcc	c5be50 <__bss_end+0xc58fc8>
    2898:	202e3020 	eorcs	r3, lr, r0, lsr #32
    289c:	0000000a 	andeq	r0, r0, sl
    28a0:	75736572 	ldrbvc	r6, [r3, #-1394]!	; 0x572
    28a4:	3a31656d 	bcc	c5be60 <__bss_end+0xc58fd8>
    28a8:	202e3120 	eorcs	r3, lr, r0, lsr #2
    28ac:	6f666562 	svcvs	0x00666562
    28b0:	72206572 	eorvc	r6, r0, #478150656	; 0x1c800000
    28b4:	6f747365 	svcvs	0x00747365
    28b8:	6d206572 	cfstr32vs	mvfx6, [r0, #-456]!	; 0xfffffe38
    28bc:	202e756d 	eorcs	r7, lr, sp, ror #10
    28c0:	0000000a 	andeq	r0, r0, sl
    28c4:	75736572 	ldrbvc	r6, [r3, #-1394]!	; 0x572
    28c8:	3a31656d 	bcc	c5be84 <__bss_end+0xc58ffc>
    28cc:	202e3320 	eorcs	r3, lr, r0, lsr #6
    28d0:	65746661 	ldrbvs	r6, [r4, #-1633]!	; 0x661
    28d4:	65722072 	ldrbvs	r2, [r2, #-114]!	; 0x72
    28d8:	726f7473 	rsbvc	r7, pc, #1929379840	; 0x73000000
    28dc:	6d6d2065 	stclvs	0, cr2, [sp, #-404]!	; 0xfffffe6c
    28e0:	62202c75 	eorvs	r2, r0, #29952	; 0x7500
    28e4:	726f6665 	rsbvc	r6, pc, #105906176	; 0x6500000
    28e8:	756a2065 	strbvc	r2, [sl, #-101]!	; 0x65
    28ec:	0a2e706d 	beq	b9eaa8 <__bss_end+0xb9bc20>
    28f0:	00000000 	andeq	r0, r0, r0
    28f4:	31757063 	cmncc	r5, r3, rrx
    28f8:	6677202b 	ldrbtvs	r2, [r7], -fp, lsr #32
    28fc:	74732069 	ldrbtvc	r2, [r3], #-105	; 0x69
    2900:	20657461 	rsbcs	r7, r5, r1, ror #8
    2904:	66207361 	strtvs	r7, [r0], -r1, ror #6
    2908:	6f6c6c6f 	svcvs	0x006c6c6f
    290c:	0a203a77 	beq	8112f0 <__bss_end+0x80e468>
    2910:	00000000 	andeq	r0, r0, r0
    2914:	31757063 	cmncc	r5, r3, rrx
    2918:	69667720 	stmdbvs	r6!, {r5, r8, r9, sl, ip, sp, lr}^
    291c:	25203d20 	strcs	r3, [r0, #-3360]!	; 0xd20
    2920:	0a202e64 	beq	80e2b8 <__bss_end+0x80b430>
    2924:	00000000 	andeq	r0, r0, r0
    2928:	32757063 	rsbscc	r7, r5, #99	; 0x63
    292c:	69667720 	stmdbvs	r6!, {r5, r8, r9, sl, ip, sp, lr}^
    2930:	25203d20 	strcs	r3, [r0, #-3360]!	; 0xd20
    2934:	0a202e64 	beq	80e2cc <__bss_end+0x80b444>
    2938:	00000000 	andeq	r0, r0, r0
    293c:	33757063 	cmncc	r5, #99	; 0x63
    2940:	69667720 	stmdbvs	r6!, {r5, r8, r9, sl, ip, sp, lr}^
    2944:	25203d20 	strcs	r3, [r0, #-3360]!	; 0xd20
    2948:	0a202e64 	beq	80e2e0 <__bss_end+0x80b458>
    294c:	00000000 	andeq	r0, r0, r0
    2950:	33323130 	teqcc	r2, #12
    2954:	37363534 			; <UNDEFINED> instruction: 0x37363534
    2958:	42413938 	submi	r3, r1, #917504	; 0xe0000
    295c:	46454443 	strbmi	r4, [r5], -r3, asr #8
    2960:	00000000 	andeq	r0, r0, r0
    2964:	20202020 	eorcs	r2, r0, r0, lsr #32
    2968:	20202020 	eorcs	r2, r0, r0, lsr #32
    296c:	20202020 	eorcs	r2, r0, r0, lsr #32
    2970:	20202020 	eorcs	r2, r0, r0, lsr #32
    2974:	00000000 	andeq	r0, r0, r0
    2978:	65747441 	ldrbvs	r7, [r4, #-1089]!	; 0x441
    297c:	6974706d 	ldmdbvs	r4!, {r0, r2, r3, r5, r6, ip, sp, lr}^
    2980:	6420676e 	strtvs	r6, [r0], #-1902	; 0x76e
    2984:	73697669 	cmnvc	r9, #110100480	; 0x6900000
    2988:	206e6f69 	rsbcs	r6, lr, r9, ror #30
    298c:	30207962 	eorcc	r7, r0, r2, ror #18
    2990:	00000021 	andeq	r0, r0, r1, lsr #32
    2994:	69746f6e 	ldmdbvs	r4!, {r1, r2, r3, r5, r6, r8, r9, sl, fp, sp, lr}^
    2998:	203a6563 	eorscs	r6, sl, r3, ror #10
    299c:	20636967 	rsbcs	r6, r3, r7, ror #18
    29a0:	20726169 	rsbscs	r6, r2, r9, ror #2
    29a4:	30203d3d 	eorcc	r3, r0, sp, lsr sp
    29a8:	2e782578 	mrccs	5, 3, r2, cr8, cr8, {3}
    29ac:	00000a20 	andeq	r0, r0, r0, lsr #20

Disassembly of section .data:

000029b0 <tmpPtr>:
    29b0:	000029b4 			; <UNDEFINED> instruction: 0x000029b4

Disassembly of section .bss:

000029b4 <mem_para_info>:
	...

00002b90 <print_flag>:
    2b90:	00000000 	andeq	r0, r0, r0

00002b94 <backup_perf_counter_ctrl_reg>:
    2b94:	00000000 	andeq	r0, r0, r0

00002b98 <backup_perf_counter_enable_reg>:
    2b98:	00000000 	andeq	r0, r0, r0

00002b9c <overhead>:
    2b9c:	00000000 	andeq	r0, r0, r0

00002ba0 <cpu_freq>:
    2ba0:	00000000 	andeq	r0, r0, r0

00002ba4 <backup_ccu_uart>:
    2ba4:	00000000 	andeq	r0, r0, r0

00002ba8 <backup_ccu_uart_reset>:
    2ba8:	00000000 	andeq	r0, r0, r0

00002bac <backup_gpio_uart>:
    2bac:	00000000 	andeq	r0, r0, r0

00002bb0 <serial_inited_flag>:
    2bb0:	00000000 	andeq	r0, r0, r0

00002bb4 <GicDDisc>:
    2bb4:	00000000 	andeq	r0, r0, r0

00002bb8 <GicCDisc>:
    2bb8:	00000000 	andeq	r0, r0, r0

00002bbc <TmrReg>:
    2bbc:	00000000 	andeq	r0, r0, r0

00002bc0 <WatchDog1_Config_Reg_Bak>:
    2bc0:	00000000 	andeq	r0, r0, r0

00002bc4 <WatchDog1_Mod_Reg_Bak>:
    2bc4:	00000000 	andeq	r0, r0, r0

00002bc8 <WatchDog1_Irq_En_Bak>:
    2bc8:	00000000 	andeq	r0, r0, r0

00002bcc <CmuReg>:
    2bcc:	00000000 	andeq	r0, r0, r0

00002bd0 <saved_context_r13_irq>:
	...

00002bd8 <saved_context_r12_svc>:
	...

00002be0 <saved_spsr_fiq>:
    2be0:	00000000 	andeq	r0, r0, r0

00002be4 <saved_spsr_und>:
    2be4:	00000000 	andeq	r0, r0, r0

00002be8 <saved_spsr_irq>:
    2be8:	00000000 	andeq	r0, r0, r0

00002bec <saved_context_r13_abt>:
	...

00002bf4 <saved_spsr_mon>:
    2bf4:	00000000 	andeq	r0, r0, r0

00002bf8 <saved_empty_context_svc>:
	...

00002ca8 <saved_context_r13_fiq>:
	...

00002cc4 <saved_cpsr_svc>:
    2cc4:	00000000 	andeq	r0, r0, r0

00002cc8 <saved_context_r13_sys>:
	...

00002cd0 <saved_spsr_abt>:
    2cd0:	00000000 	andeq	r0, r0, r0

00002cd4 <saved_context_r13_mon>:
	...

00002cdc <saved_context>:
	...

00002d7c <saved_spsr_svc>:
    2d7c:	00000000 	andeq	r0, r0, r0

00002d80 <saved_context_r13_und>:
	...

00002d88 <debugger_buffer>:
	...

Disassembly of section .debug_info:

00000000 <.debug_info>:
       0:	0000013d 	andeq	r0, r0, sp, lsr r1
       4:	00000002 	andeq	r0, r0, r2
       8:	01040000 	mrseq	r0, (UNDEF: 4)
       c:	0000009a 	muleq	r0, sl, r0
      10:	00014a01 	andeq	r4, r1, r1, lsl #20
      14:	0000bc00 	andeq	fp, r0, r0, lsl #24
      18:	00009000 	andeq	r9, r0, r0
      1c:	00009000 	andeq	r9, r0, r0
      20:	00000000 	andeq	r0, r0, r0
      24:	06010200 	streq	r0, [r1], -r0, lsl #4
      28:	0000007a 	andeq	r0, r0, sl, ror r0
      2c:	00000603 	andeq	r0, r0, r3, lsl #12
      30:	37230100 	strcc	r0, [r3, -r0, lsl #2]!
      34:	02000000 	andeq	r0, r0, #0
      38:	00780801 	rsbseq	r0, r8, r1, lsl #16
      3c:	02020000 	andeq	r0, r2, #0
      40:	00009005 	andeq	r9, r0, r5
      44:	07020200 	streq	r0, [r2, -r0, lsl #4]
      48:	0000012e 	andeq	r0, r0, lr, lsr #2
      4c:	69050404 	stmdbvs	r5, {r2, sl}
      50:	0300746e 	movweq	r7, #1134	; 0x46e
      54:	00000000 	andeq	r0, r0, r0
      58:	005e2701 	subseq	r2, lr, r1, lsl #14
      5c:	04020000 	streq	r0, [r2], #-0
      60:	0001a607 	andeq	sl, r1, r7, lsl #12
      64:	000b0500 	andeq	r0, fp, r0, lsl #10
      68:	01300000 	teqeq	r0, r0
      6c:	0000fe3a 	andeq	pc, r0, sl, lsr lr	; <UNPREDICTABLE>
      70:	00590600 	subseq	r0, r9, r0, lsl #12
      74:	3c010000 	stccc	0, cr0, [r1], {-0}
      78:	00000053 	andeq	r0, r0, r3, asr r0
      7c:	06002302 	streq	r2, [r0], -r2, lsl #6
      80:	00000053 	andeq	r0, r0, r3, asr r0
      84:	00fe3d01 	rscseq	r3, lr, r1, lsl #26
      88:	23020000 	movwcs	r0, #8192	; 0x2000
      8c:	00860604 	addeq	r0, r6, r4, lsl #12
      90:	3e010000 	cdpcc	0, 0, cr0, cr1, cr0, {0}
      94:	00000053 	andeq	r0, r0, r3, asr r0
      98:	060c2302 	streq	r2, [ip], -r2, lsl #6
      9c:	0000002b 	andeq	r0, r0, fp, lsr #32
      a0:	00533f01 	subseq	r3, r3, r1, lsl #30
      a4:	23020000 	movwcs	r0, #8192	; 0x2000
      a8:	006a0610 	rsbeq	r0, sl, r0, lsl r6
      ac:	40010000 	andmi	r0, r1, r0
      b0:	00000053 	andeq	r0, r0, r3, asr r0
      b4:	06142302 	ldreq	r2, [r4], -r2, lsl #6
      b8:	00000032 	andeq	r0, r0, r2, lsr r0
      bc:	010e4101 	tsteq	lr, r1, lsl #2
      c0:	23020000 	movwcs	r0, #8192	; 0x2000
      c4:	001d0618 	andseq	r0, sp, r8, lsl r6
      c8:	42010000 	andmi	r0, r1, #0
      cc:	0000010e 	andeq	r0, r0, lr, lsl #2
      d0:	061c2302 	ldreq	r2, [ip], -r2, lsl #6
      d4:	00000048 	andeq	r0, r0, r8, asr #32
      d8:	010e4301 	tsteq	lr, r1, lsl #6
      dc:	23020000 	movwcs	r0, #8192	; 0x2000
      e0:	003f0620 	eorseq	r0, pc, r0, lsr #12
      e4:	44010000 	strmi	r0, [r1], #-0
      e8:	0000010e 	andeq	r0, r0, lr, lsl #2
      ec:	06242302 	strteq	r2, [r4], -r2, lsl #6
      f0:	00000141 	andeq	r0, r0, r1, asr #2
      f4:	00fe4501 	rscseq	r4, lr, r1, lsl #10
      f8:	23020000 	movwcs	r0, #8192	; 0x2000
      fc:	2c070028 	stccs	0, cr0, [r7], {40}	; 0x28
     100:	0e000000 	cdpeq	0, 0, cr0, cr0, cr0, {0}
     104:	08000001 	stmdaeq	r0, {r0}
     108:	0000005e 	andeq	r0, r0, lr, asr r0
     10c:	2c070007 	stccs	0, cr0, [r7], {7}
     110:	1e000000 	cdpne	0, 0, cr0, cr0, cr0, {0}
     114:	08000001 	stmdaeq	r0, {r0}
     118:	0000005e 	andeq	r0, r0, lr, asr r0
     11c:	73030003 	movwvc	r0, #12291	; 0x3003
     120:	01000001 	tsteq	r0, r1
     124:	00006546 	andeq	r6, r0, r6, asr #10
     128:	01670900 	cmneq	r7, r0, lsl #18
     12c:	4b010000 	blmi	40134 <__bss_end+0x3d2ac>
     130:	0000013b 	andeq	r0, r0, fp, lsr r1
     134:	00030501 	andeq	r0, r3, r1, lsl #10
     138:	0a000000 	beq	140 <super_enable_aw_cpu+0x20>
     13c:	0000011e 	andeq	r0, r0, lr, lsl r1
     140:	0000ad00 	andeq	sl, r0, r0, lsl #26
     144:	7f000200 	svcvc	0x00000200
     148:	04000000 	streq	r0, [r0], #-0
     14c:	00003d01 	andeq	r3, r0, r1, lsl #26
     150:	00003000 	andeq	r3, r0, r0
     154:	00009000 	andeq	r9, r0, r0
     158:	732f2e00 	teqvc	pc, #0
     15c:	72657075 	rsbvc	r7, r5, #117	; 0x75
     160:	7365722f 	cmnvc	r5, #-268435454	; 0xf0000002
     164:	2f656d75 	svccs	0x00656d75
     168:	75736572 	ldrbvc	r6, [r3, #-1394]!	; 0x572
     16c:	2e31656d 	cdpcs	5, 3, cr6, cr1, cr13, {3}
     170:	682f0053 	stmdavs	pc!, {r0, r1, r4, r6}	; <UNPREDICTABLE>
     174:	2f656d6f 	svccs	0x00656d6f
     178:	676e6164 	strbvs	r6, [lr, -r4, ror #2]!
     17c:	6d2f756b 	cfstr32vs	mvfx7, [pc, #-428]!	; ffffffd8 <__bss_end+0xffffd150>
     180:	6f726479 	svcvs	0x00726479
     184:	622f6469 	eorvs	r6, pc, #1761607680	; 0x69000000
     188:	6e616e61 	cdpvs	14, 6, cr6, cr1, cr1, {3}
     18c:	2f695061 	svccs	0x00695061
     190:	732f326d 	teqvc	pc, #-805306362	; 0xd0000006
     194:	6372756f 	cmnvs	r2, #465567744	; 0x1bc00000
     198:	6e612f65 	cdpvs	15, 6, cr2, cr1, cr5, {3}
     19c:	696f7264 	stmdbvs	pc!, {r2, r5, r6, r9, ip, sp, lr}^	; <UNPREDICTABLE>
     1a0:	50422f64 	subpl	r2, r2, r4, ror #30
     1a4:	324d2d49 	subcc	r2, sp, #4672	; 0x1240
     1a8:	646e412d 	strbtvs	r4, [lr], #-301	; 0x12d
     1ac:	64696f72 	strbtvs	r6, [r9], #-3954	; 0xf72
     1b0:	2f342e34 	svccs	0x00342e34
     1b4:	6863696c 	stmdavs	r3!, {r2, r3, r5, r6, r8, fp, sp, lr}^
     1b8:	6c2f6565 	cfstr32vs	mvfx6, [pc], #-404	; 2c <__resume1_start+0x2c>
     1bc:	78756e69 	ldmdavc	r5!, {r0, r3, r5, r6, r9, sl, fp, sp, lr}^
     1c0:	332e332d 	teqcc	lr, #-1275068416	; 0xb4000000
     1c4:	6372612f 	cmnvs	r2, #-1073741813	; 0xc000000b
     1c8:	72612f68 	rsbvc	r2, r1, #416	; 0x1a0
     1cc:	616d2f6d 	cmnvs	sp, sp, ror #30
     1d0:	732d6863 	teqvc	sp, #6488064	; 0x630000
     1d4:	69366e75 	ldmdbvs	r6!, {r0, r2, r4, r5, r6, r9, sl, fp, sp, lr}
     1d8:	2f6d702f 	svccs	0x006d702f
     1dc:	6e617473 	mcrvs	4, 3, r7, cr1, cr3, {3}
     1e0:	00796264 	rsbseq	r6, r9, r4, ror #4
     1e4:	20554e47 	subscs	r4, r5, r7, asr #28
     1e8:	32205341 	eorcc	r5, r0, #67108865	; 0x4000001
     1ec:	0032322e 	eorseq	r3, r2, lr, lsr #4
     1f0:	00d08001 	sbcseq	r8, r0, r1
     1f4:	00020000 	andeq	r0, r2, r0
     1f8:	00000093 	muleq	r0, r3, r0
     1fc:	009a0104 	addseq	r0, sl, r4, lsl #2
     200:	b3010000 	movwlt	r0, #4096	; 0x1000
     204:	bc000001 	stclt	0, cr0, [r0], {1}
     208:	90000000 	andls	r0, r0, r0
     20c:	b4000000 	strlt	r0, [r0], #-0
     210:	9f000000 	svcls	0x00000000
     214:	02000000 	andeq	r0, r0, #0
     218:	007a0601 	rsbseq	r0, sl, r1, lsl #12
     21c:	01020000 	mrseq	r0, (UNDEF: 2)
     220:	00007808 	andeq	r7, r0, r8, lsl #16
     224:	05020200 	streq	r0, [r2, #-512]	; 0x200
     228:	00000090 	muleq	r0, r0, r0
     22c:	2e070202 	cdpcs	2, 0, cr0, cr7, cr2, {0}
     230:	03000001 	movweq	r0, #1
     234:	6e690504 	cdpvs	5, 6, cr0, cr9, cr4, {0}
     238:	04020074 	streq	r0, [r2], #-116	; 0x74
     23c:	0001a607 	andeq	sl, r1, r7, lsl #12
     240:	05080200 	streq	r0, [r8, #-512]	; 0x200
     244:	00000186 	andeq	r0, r0, r6, lsl #3
     248:	9c070802 	stcls	8, cr0, [r7], {2}
     24c:	04000001 	streq	r0, [r0], #-1
     250:	07040204 	streq	r0, [r4, -r4, lsl #4]
     254:	000001a1 	andeq	r0, r0, r1, lsr #3
     258:	01cc0105 	biceq	r0, ip, r5, lsl #2
     25c:	23010000 	movwcs	r0, #4096	; 0x1000
     260:	00009001 	andeq	r9, r0, r1
     264:	0000b400 	andeq	fp, r0, r0, lsl #8
     268:	007d0200 	rsbseq	r0, sp, r0, lsl #4
     26c:	000000c6 	andeq	r0, r0, r6, asr #1
     270:	00184806 	andseq	r4, r8, r6, lsl #16
     274:	5d230100 	stfpls	f0, [r3, #-0]
     278:	00000000 	andeq	r0, r0, r0
     27c:	07000000 	streq	r0, [r0, -r0]
     280:	00637273 	rsbeq	r7, r3, r3, ror r2
     284:	005d2301 	subseq	r2, sp, r1, lsl #6
     288:	00130000 	andseq	r0, r3, r0
     28c:	6e070000 	cdpvs	0, 0, cr0, cr7, cr0, {0}
     290:	41230100 	teqmi	r3, r0, lsl #2
     294:	33000000 	movwcc	r0, #0
     298:	08000000 	stmdaeq	r0, {}	; <UNPREDICTABLE>
     29c:	000001c4 	andeq	r0, r0, r4, asr #3
     2a0:	00c62501 	sbceq	r2, r6, r1, lsl #10
     2a4:	00460000 	subeq	r0, r6, r0
     2a8:	94090000 	strls	r0, [r9], #-0
     2ac:	01000001 	tsteq	r0, r1
     2b0:	0000c626 	andeq	ip, r0, r6, lsr #12
     2b4:	00500100 	subseq	r0, r0, r0, lsl #2
     2b8:	00cc040a 	sbceq	r0, ip, sl, lsl #8
     2bc:	01020000 	mrseq	r0, (UNDEF: 2)
     2c0:	00008108 	andeq	r8, r0, r8, lsl #2
     2c4:	00610000 	rsbeq	r0, r1, r0
     2c8:	00020000 	andeq	r0, r2, r0
     2cc:	00000120 	andeq	r0, r0, r0, lsr #2
     2d0:	009a0104 	addseq	r0, sl, r4, lsl #2
     2d4:	d7010000 	strle	r0, [r1, -r0]
     2d8:	bc000001 	stclt	0, cr0, [r0], {1}
     2dc:	b4000000 	strlt	r0, [r0], #-0
     2e0:	b4000000 	strlt	r0, [r0], #-0
     2e4:	f1000000 	cps	#0
     2e8:	02000000 	andeq	r0, r0, #0
     2ec:	007a0601 	rsbseq	r0, sl, r1, lsl #12
     2f0:	01020000 	mrseq	r0, (UNDEF: 2)
     2f4:	00007808 	andeq	r7, r0, r8, lsl #16
     2f8:	05020200 	streq	r0, [r2, #-512]	; 0x200
     2fc:	00000090 	muleq	r0, r0, r0
     300:	2e070202 	cdpcs	2, 0, cr0, cr7, cr2, {0}
     304:	03000001 	movweq	r0, #1
     308:	6e690504 	cdpvs	5, 6, cr0, cr9, cr4, {0}
     30c:	04020074 	streq	r0, [r2], #-116	; 0x74
     310:	0001a607 	andeq	sl, r1, r7, lsl #12
     314:	05080200 	streq	r0, [r8, #-512]	; 0x200
     318:	00000186 	andeq	r0, r0, r6, lsl #3
     31c:	9c070802 	stcls	8, cr0, [r7], {2}
     320:	02000001 	andeq	r0, r0, #1
     324:	01a10704 			; <UNDEFINED> instruction: 0x01a10704
     328:	aa000000 	bge	330 <set_pll+0x8c>
     32c:	02000000 	andeq	r0, r0, #0
     330:	00014a00 	andeq	r4, r1, r0, lsl #20
     334:	0e010400 	cfcpyseq	mvf0, mvf1
     338:	b4000001 	strlt	r0, [r0], #-1
     33c:	dc000000 	stcle	0, cr0, [r0], {-0}
     340:	2e000000 	cdpcs	0, 0, cr0, cr0, cr0, {0}
     344:	7075732f 	rsbsvc	r7, r5, pc, lsr #6
     348:	732f7265 	teqvc	pc, #1342177286	; 0x50000006
     34c:	72657075 	rsbvc	r7, r5, #117	; 0x75
     350:	6c65645f 	cfstrdvs	mvd6, [r5], #-380	; 0xfffffe84
     354:	532e7961 	teqpl	lr, #1589248	; 0x184000
     358:	6f682f00 	svcvs	0x00682f00
     35c:	642f656d 	strtvs	r6, [pc], #-1389	; 364 <set_pll+0xc0>
     360:	6b676e61 	blvs	19dbcec <__bss_end+0x19d8e64>
     364:	796d2f75 	stmdbvc	sp!, {r0, r2, r4, r5, r6, r8, r9, sl, fp, sp}^
     368:	696f7264 	stmdbvs	pc!, {r2, r5, r6, r9, ip, sp, lr}^	; <UNPREDICTABLE>
     36c:	61622f64 	cmnvs	r2, r4, ror #30
     370:	616e616e 	cmnvs	lr, lr, ror #2
     374:	6d2f6950 	stcvs	9, cr6, [pc, #-320]!	; 23c <resume1_c_part+0x70>
     378:	6f732f32 	svcvs	0x00732f32
     37c:	65637275 	strbvs	r7, [r3, #-629]!	; 0x275
     380:	646e612f 	strbtvs	r6, [lr], #-303	; 0x12f
     384:	64696f72 	strbtvs	r6, [r9], #-3954	; 0xf72
     388:	4950422f 	ldmdbmi	r0, {r0, r1, r2, r3, r5, r9, lr}^
     38c:	2d324d2d 	ldccs	13, cr4, [r2, #-180]!	; 0xffffff4c
     390:	72646e41 	rsbvc	r6, r4, #1040	; 0x410
     394:	3464696f 	strbtcc	r6, [r4], #-2415	; 0x96f
     398:	6c2f342e 	cfstrsvs	mvf3, [pc], #-184	; 2e8 <set_pll+0x44>
     39c:	65686369 	strbvs	r6, [r8, #-873]!	; 0x369
     3a0:	696c2f65 	stmdbvs	ip!, {r0, r2, r5, r6, r8, r9, sl, fp, sp}^
     3a4:	2d78756e 	cfldr64cs	mvdx7, [r8, #-440]!	; 0xfffffe48
     3a8:	2f332e33 	svccs	0x00332e33
     3ac:	68637261 	stmdavs	r3!, {r0, r5, r6, r9, ip, sp, lr}^
     3b0:	6d72612f 	ldfvse	f6, [r2, #-188]!	; 0xffffff44
     3b4:	63616d2f 	cmnvs	r1, #3008	; 0xbc0
     3b8:	75732d68 	ldrbvc	r2, [r3, #-3432]!	; 0xd68
     3bc:	2f69366e 	svccs	0x0069366e
     3c0:	732f6d70 	teqvc	pc, #7168	; 0x1c00
     3c4:	646e6174 	strbtvs	r6, [lr], #-372	; 0x174
     3c8:	47007962 	strmi	r7, [r0, -r2, ror #18]
     3cc:	4120554e 	teqmi	r0, lr, asr #10
     3d0:	2e322053 	mrccs	0, 1, r2, cr2, cr3, {2}
     3d4:	01003232 	tsteq	r0, r2, lsr r2
     3d8:	00006180 	andeq	r6, r0, r0, lsl #3
     3dc:	5e000200 	cdppl	2, 0, cr0, cr0, cr0, {0}
     3e0:	04000001 	streq	r0, [r0], #-1
     3e4:	00009a01 	andeq	r9, r0, r1, lsl #20
     3e8:	01eb0100 	mvneq	r0, r0, lsl #2
     3ec:	00bc0000 	adcseq	r0, ip, r0
     3f0:	00dc0000 	sbcseq	r0, ip, r0
     3f4:	00dc0000 	sbcseq	r0, ip, r0
     3f8:	015c0000 	cmpeq	ip, r0
     3fc:	01020000 	mrseq	r0, (UNDEF: 2)
     400:	00007a06 	andeq	r7, r0, r6, lsl #20
     404:	08010200 	stmdaeq	r1, {r9}
     408:	00000078 	andeq	r0, r0, r8, ror r0
     40c:	90050202 	andls	r0, r5, r2, lsl #4
     410:	02000000 	andeq	r0, r0, #0
     414:	012e0702 	teqeq	lr, r2, lsl #14
     418:	04030000 	streq	r0, [r3], #-0
     41c:	746e6905 	strbtvc	r6, [lr], #-2309	; 0x905
     420:	07040200 	streq	r0, [r4, -r0, lsl #4]
     424:	000001a6 	andeq	r0, r0, r6, lsr #3
     428:	86050802 	strhi	r0, [r5], -r2, lsl #16
     42c:	02000001 	andeq	r0, r0, #1
     430:	019c0708 	orrseq	r0, ip, r8, lsl #14
     434:	04020000 	streq	r0, [r2], #-0
     438:	0001a107 	andeq	sl, r1, r7, lsl #2
     43c:	00610000 	rsbeq	r0, r1, r0
     440:	00020000 	andeq	r0, r2, r0
     444:	00000188 	andeq	r0, r0, r8, lsl #3
     448:	009a0104 	addseq	r0, sl, r4, lsl #2
     44c:	01010000 	mrseq	r0, (UNDEF: 1)
     450:	bc000002 	stclt	0, cr0, [r0], {2}
     454:	dc000000 	stcle	0, cr0, [r0], {-0}
     458:	dc000000 	stcle	0, cr0, [r0], {-0}
     45c:	79000000 	stmdbvc	r0, {}	; <UNPREDICTABLE>
     460:	02000001 	andeq	r0, r0, #1
     464:	007a0601 	rsbseq	r0, sl, r1, lsl #12
     468:	01020000 	mrseq	r0, (UNDEF: 2)
     46c:	00007808 	andeq	r7, r0, r8, lsl #16
     470:	05020200 	streq	r0, [r2, #-512]	; 0x200
     474:	00000090 	muleq	r0, r0, r0
     478:	2e070202 	cdpcs	2, 0, cr0, cr7, cr2, {0}
     47c:	03000001 	movweq	r0, #1
     480:	6e690504 	cdpvs	5, 6, cr0, cr9, cr4, {0}
     484:	04020074 	streq	r0, [r2], #-116	; 0x74
     488:	0001a607 	andeq	sl, r1, r7, lsl #12
     48c:	05080200 	streq	r0, [r8, #-512]	; 0x200
     490:	00000186 	andeq	r0, r0, r6, lsl #3
     494:	9c070802 	stcls	8, cr0, [r7], {2}
     498:	02000001 	andeq	r0, r0, #1
     49c:	01a10704 			; <UNDEFINED> instruction: 0x01a10704
     4a0:	05000000 	streq	r0, [r0, #-0]
     4a4:	02000001 	andeq	r0, r0, #1
     4a8:	0001b200 	andeq	fp, r1, r0, lsl #4
     4ac:	9a010400 	bls	414b4 <__bss_end+0x3e62c>
     4b0:	01000000 	mrseq	r0, (UNDEF: 0)
     4b4:	0000025a 	andeq	r0, r0, sl, asr r2
     4b8:	000000bc 	strheq	r0, [r0], -ip
     4bc:	000000dc 	ldrdeq	r0, [r0], -ip
     4c0:	000001cc 	andeq	r0, r0, ip, asr #3
     4c4:	00000196 	muleq	r0, r6, r1
     4c8:	7a060102 	bvc	1808d8 <__bss_end+0x17da50>
     4cc:	02000000 	andeq	r0, r0, #0
     4d0:	00780801 	rsbseq	r0, r8, r1, lsl #16
     4d4:	02020000 	andeq	r0, r2, #0
     4d8:	00009005 	andeq	r9, r0, r5
     4dc:	07020200 	streq	r0, [r2, -r0, lsl #4]
     4e0:	0000012e 	andeq	r0, r0, lr, lsr #2
     4e4:	00023903 	andeq	r3, r2, r3, lsl #18
     4e8:	4c120200 	lfmmi	f0, 4, [r2], {-0}
     4ec:	04000000 	streq	r0, [r0], #-0
     4f0:	6e690504 	cdpvs	5, 6, cr0, cr9, cr4, {0}
     4f4:	00030074 	andeq	r0, r3, r4, ror r0
     4f8:	02000000 	andeq	r0, r0, #0
     4fc:	00005e13 	andeq	r5, r0, r3, lsl lr
     500:	07040200 	streq	r0, [r4, -r0, lsl #4]
     504:	000001a6 	andeq	r0, r0, r6, lsr #3
     508:	86050802 	strhi	r0, [r5], -r2, lsl #16
     50c:	02000001 	andeq	r0, r0, #1
     510:	019c0708 	orrseq	r0, ip, r8, lsl #14
     514:	53050000 	movwpl	r0, #20480	; 0x5000
     518:	02000000 	andeq	r0, r0, #0
     51c:	01a10704 			; <UNDEFINED> instruction: 0x01a10704
     520:	01060000 	mrseq	r0, (UNDEF: 6)
     524:	0000023f 	andeq	r0, r0, pc, lsr r2
     528:	41012001 	tstmi	r1, r1
     52c:	dc000000 	stcle	0, cr0, [r0], {-0}
     530:	20000000 	andcs	r0, r0, r0
     534:	66000001 	strvs	r0, [r0], -r1
     538:	c8000000 	stmdagt	r0, {}	; <UNPREDICTABLE>
     53c:	07000000 	streq	r0, [r0, -r0]
     540:	0000026f 	andeq	r0, r0, pc, ror #4
     544:	00532001 	subseq	r2, r3, r1
     548:	00860000 	addeq	r0, r6, r0
     54c:	59080000 	stmdbpl	r8, {}	; <UNPREDICTABLE>
     550:	0100001c 	tsteq	r0, ip, lsl r0
     554:	00004120 	andeq	r4, r0, r0, lsr #2
     558:	09510100 	ldmdbeq	r1, {r8}^
     55c:	00001616 	andeq	r1, r0, r6, lsl r6
     560:	00732201 	rsbseq	r2, r3, r1, lsl #4
     564:	00a80000 	adceq	r0, r8, r0
     568:	0a000000 	beq	570 <busy_waiting+0x8>
     56c:	00021d01 	andeq	r1, r2, r1, lsl #26
     570:	012d0100 	teqeq	sp, r0, lsl #2
     574:	00000120 	andeq	r0, r0, r0, lsr #2
     578:	000001cc 	andeq	r0, r0, ip, asr #3
     57c:	000000f5 	strdeq	r0, [r0], -r5
     580:	7570630b 	ldrbvc	r6, [r0, #-779]!	; 0x30b
     584:	4c2d0100 	stfmis	f0, [sp], #-0
     588:	15000000 	strne	r0, [r0, #-0]
     58c:	0c000001 	stceq	0, cr0, [r0], {1}
     590:	00000217 	andeq	r0, r0, r7, lsl r2
     594:	00532f01 	subseq	r2, r3, r1, lsl #30
     598:	09000000 	stmdbeq	r0, {}	; <UNPREDICTABLE>
     59c:	00000231 	andeq	r0, r0, r1, lsr r2
     5a0:	00533001 	subseq	r3, r3, r1
     5a4:	01280000 	teqeq	r8, r0
     5a8:	00000000 	andeq	r0, r0, r0
     5ac:	00002a75 	andeq	r2, r0, r5, ror sl
     5b0:	02690002 	rsbeq	r0, r9, #2
     5b4:	01040000 	mrseq	r0, (UNDEF: 4)
     5b8:	0000009a 	muleq	r0, sl, r0
     5bc:	0008aa01 	andeq	sl, r8, r1, lsl #20
     5c0:	0000bc00 	andeq	fp, r0, r0, lsl #24
     5c4:	0001cc00 	andeq	ip, r1, r0, lsl #24
     5c8:	00056800 	andeq	r6, r5, r0, lsl #16
     5cc:	00023500 	andeq	r3, r2, r0, lsl #10
     5d0:	06010200 	streq	r0, [r1], -r0, lsl #4
     5d4:	0000007a 	andeq	r0, r0, sl, ror r0
     5d8:	00000603 	andeq	r0, r0, r3, lsl #12
     5dc:	370f0200 	strcc	r0, [pc, -r0, lsl #4]
     5e0:	02000000 	andeq	r0, r0, #0
     5e4:	00780801 	rsbseq	r0, r8, r1, lsl #16
     5e8:	02020000 	andeq	r0, r2, #0
     5ec:	00009005 	andeq	r9, r0, r5
     5f0:	07020200 	streq	r0, [r2, -r0, lsl #4]
     5f4:	0000012e 	andeq	r0, r0, lr, lsr #2
     5f8:	00023903 	andeq	r3, r2, r3, lsl #18
     5fc:	57120200 	ldrpl	r0, [r2, -r0, lsl #4]
     600:	04000000 	streq	r0, [r0], #-0
     604:	6e690504 	cdpvs	5, 6, cr0, cr9, cr4, {0}
     608:	00030074 	andeq	r0, r3, r4, ror r0
     60c:	02000000 	andeq	r0, r0, #0
     610:	00006913 	andeq	r6, r0, r3, lsl r9
     614:	07040200 	streq	r0, [r4, -r0, lsl #4]
     618:	000001a6 	andeq	r0, r0, r6, lsr #3
     61c:	86050802 	strhi	r0, [r5], -r2, lsl #16
     620:	02000001 	andeq	r0, r0, #1
     624:	019c0708 	orrseq	r0, ip, r8, lsl #14
     628:	72050000 	andvc	r0, r5, #0
     62c:	a0000011 	andge	r0, r0, r1, lsl r0
     630:	02c21b03 	sbceq	r1, r2, #3072	; 0xc00
     634:	f2060000 	vhadd.s8	d0, d6, d0
     638:	03000010 	movweq	r0, #16
     63c:	00005e20 	andeq	r5, r0, r0, lsr #28
     640:	00230200 	eoreq	r0, r3, r0, lsl #4
     644:	00726307 	rsbseq	r6, r2, r7, lsl #6
     648:	005e3003 	subseq	r3, lr, r3
     64c:	23020000 	movwcs	r0, #8192	; 0x2000
     650:	63610704 	cmnvs	r1, #1048576	; 0x100000
     654:	31030072 	tstcc	r3, r2, ror r0
     658:	0000005e 	andeq	r0, r0, lr, asr r0
     65c:	06082302 	streq	r2, [r8], -r2, lsl #6
     660:	00000e9e 	muleq	r0, lr, lr
     664:	005e3203 	subseq	r3, lr, r3, lsl #4
     668:	23020000 	movwcs	r0, #8192	; 0x2000
     66c:	03ea060c 	mvneq	r0, #12582912	; 0xc00000
     670:	33030000 	movwcc	r0, #12288	; 0x3000
     674:	0000005e 	andeq	r0, r0, lr, asr r0
     678:	06102302 	ldreq	r2, [r0], -r2, lsl #6
     67c:	00000b83 	andeq	r0, r0, r3, lsl #23
     680:	005e3403 	subseq	r3, lr, r3, lsl #8
     684:	23020000 	movwcs	r0, #8192	; 0x2000
     688:	09770614 	ldmdbeq	r7!, {r2, r4, r9, sl}^
     68c:	35030000 	strcc	r0, [r3, #-0]
     690:	0000005e 	andeq	r0, r0, lr, asr r0
     694:	06182302 	ldreq	r2, [r8], -r2, lsl #6
     698:	00000ee0 	andeq	r0, r0, r0, ror #29
     69c:	005e3903 	subseq	r3, lr, r3, lsl #18
     6a0:	23020000 	movwcs	r0, #8192	; 0x2000
     6a4:	0fd7061c 	svceq	0x00d7061c
     6a8:	3a030000 	bcc	c06b0 <__bss_end+0xbd828>
     6ac:	0000005e 	andeq	r0, r0, lr, asr r0
     6b0:	06202302 	strteq	r2, [r0], -r2, lsl #6
     6b4:	00000efb 	strdeq	r0, [r0], -fp
     6b8:	005e3b03 	subseq	r3, lr, r3, lsl #22
     6bc:	23020000 	movwcs	r0, #8192	; 0x2000
     6c0:	08760624 	ldmdaeq	r6!, {r2, r5, r9, sl}^
     6c4:	3d030000 	stccc	0, cr0, [r3, #-0]
     6c8:	0000005e 	andeq	r0, r0, lr, asr r0
     6cc:	06282302 	strteq	r2, [r8], -r2, lsl #6
     6d0:	0000031e 	andeq	r0, r0, lr, lsl r3
     6d4:	005e3f03 	subseq	r3, lr, r3, lsl #30
     6d8:	23020000 	movwcs	r0, #8192	; 0x2000
     6dc:	07af062c 	streq	r0, [pc, ip, lsr #12]!
     6e0:	40030000 	andmi	r0, r3, r0
     6e4:	0000005e 	andeq	r0, r0, lr, asr r0
     6e8:	06302302 	ldrteq	r2, [r0], -r2, lsl #6
     6ec:	000003a6 	andeq	r0, r0, r6, lsr #7
     6f0:	005e4103 	subseq	r4, lr, r3, lsl #2
     6f4:	23020000 	movwcs	r0, #8192	; 0x2000
     6f8:	09840634 	stmibeq	r4, {r2, r4, r5, r9, sl}
     6fc:	42030000 	andmi	r0, r3, #0
     700:	0000005e 	andeq	r0, r0, lr, asr r0
     704:	06382302 	ldrteq	r2, [r8], -r2, lsl #6
     708:	00000f43 	andeq	r0, r0, r3, asr #30
     70c:	005e4403 	subseq	r4, lr, r3, lsl #8
     710:	23020000 	movwcs	r0, #8192	; 0x2000
     714:	046b063c 	strbteq	r0, [fp], #-1596	; 0x63c
     718:	45030000 	strmi	r0, [r3, #-0]
     71c:	0000005e 	andeq	r0, r0, lr, asr r0
     720:	07402302 	strbeq	r2, [r0, -r2, lsl #6]
     724:	00726170 	rsbseq	r6, r2, r0, ror r1
     728:	005e4703 	subseq	r4, lr, r3, lsl #14
     72c:	23020000 	movwcs	r0, #8192	; 0x2000
     730:	03cf0644 	biceq	r0, pc, #71303168	; 0x4400000
     734:	49030000 	stmdbmi	r3, {}	; <UNPREDICTABLE>
     738:	0000005e 	andeq	r0, r0, lr, asr r0
     73c:	06482302 	strbeq	r2, [r8], -r2, lsl #6
     740:	0000098b 	andeq	r0, r0, fp, lsl #19
     744:	005e4a03 	subseq	r4, lr, r3, lsl #20
     748:	23020000 	movwcs	r0, #8192	; 0x2000
     74c:	089d064c 	ldmeq	sp, {r2, r3, r6, r9, sl}
     750:	4b030000 	blmi	c0758 <__bss_end+0xbd8d0>
     754:	0000005e 	andeq	r0, r0, lr, asr r0
     758:	06502302 	ldrbeq	r2, [r0], -r2, lsl #6
     75c:	00000e02 	andeq	r0, r0, r2, lsl #28
     760:	005e4c03 	subseq	r4, lr, r3, lsl #24
     764:	23020000 	movwcs	r0, #8192	; 0x2000
     768:	69730754 	ldmdbvs	r3!, {r2, r4, r6, r8, r9, sl}^
     76c:	50030072 	andpl	r0, r3, r2, ror r0
     770:	0000005e 	andeq	r0, r0, lr, asr r0
     774:	06582302 	ldrbeq	r2, [r8], -r2, lsl #6
     778:	0000049e 	muleq	r0, lr, r4
     77c:	005e5203 	subseq	r5, lr, r3, lsl #4
     780:	23020000 	movwcs	r0, #8192	; 0x2000
     784:	6363075c 	cmnvs	r3, #24117248	; 0x1700000
     788:	53030072 	movwpl	r0, #12402	; 0x3072
     78c:	0000005e 	andeq	r0, r0, lr, asr r0
     790:	07602302 	strbeq	r2, [r0, -r2, lsl #6]!
     794:	00727365 	rsbseq	r7, r2, r5, ror #6
     798:	005e5403 	subseq	r5, lr, r3, lsl #8
     79c:	23020000 	movwcs	r0, #8192	; 0x2000
     7a0:	11690664 	cmnne	r9, r4, ror #12
     7a4:	55030000 	strpl	r0, [r3, #-0]
     7a8:	0000005e 	andeq	r0, r0, lr, asr r0
     7ac:	07682302 	strbeq	r2, [r8, -r2, lsl #6]!
     7b0:	00726575 	rsbseq	r6, r2, r5, ror r5
     7b4:	005e5603 	subseq	r5, lr, r3, lsl #12
     7b8:	23020000 	movwcs	r0, #8192	; 0x2000
     7bc:	0f9b066c 	svceq	0x009b066c
     7c0:	57030000 	strpl	r0, [r3, -r0]
     7c4:	0000005e 	andeq	r0, r0, lr, asr r0
     7c8:	06702302 	ldrbteq	r2, [r0], -r2, lsl #6
     7cc:	00000ee7 	andeq	r0, r0, r7, ror #29
     7d0:	005e5803 	subseq	r5, lr, r3, lsl #16
     7d4:	23020000 	movwcs	r0, #8192	; 0x2000
     7d8:	11cc0674 	bicne	r0, ip, r4, ror r6
     7dc:	66030000 	strvs	r0, [r3], -r0
     7e0:	0000005e 	andeq	r0, r0, lr, asr r0
     7e4:	06782302 	ldrbteq	r2, [r8], -r2, lsl #6
     7e8:	00000f38 	andeq	r0, r0, r8, lsr pc
     7ec:	005e6703 	subseq	r6, lr, r3, lsl #14
     7f0:	23020000 	movwcs	r0, #8192	; 0x2000
     7f4:	0965067c 	stmdbeq	r5!, {r2, r3, r4, r5, r6, r9, sl}^
     7f8:	7d030000 	stcvc	0, cr0, [r3, #-0]
     7fc:	0000005e 	andeq	r0, r0, lr, asr r0
     800:	01802303 	orreq	r2, r0, r3, lsl #6
     804:	00096406 	andeq	r6, r9, r6, lsl #8
     808:	5e7e0300 	cdppl	3, 7, cr0, cr14, cr0, {0}
     80c:	03000000 	movweq	r0, #0
     810:	07018423 	streq	r8, [r1, -r3, lsr #8]
     814:	00727369 	rsbseq	r7, r2, r9, ror #6
     818:	005e7f03 	subseq	r7, lr, r3, lsl #30
     81c:	23030000 	movwcs	r0, #12288	; 0x3000
     820:	32060188 	andcc	r0, r6, #34	; 0x22
     824:	03000008 	movweq	r0, #8
     828:	00005e83 	andeq	r5, r0, r3, lsl #29
     82c:	8c230300 	stchi	3, cr0, [r3], #-0
     830:	69630701 	stmdbvs	r3!, {r0, r8, r9, sl}^
     834:	84030064 	strhi	r0, [r3], #-100	; 0x64
     838:	0000005e 	andeq	r0, r0, lr, asr r0
     83c:	01902303 	orrseq	r2, r0, r3, lsl #6
     840:	000c5606 	andeq	r5, ip, r6, lsl #12
     844:	5e850300 	cdppl	3, 8, cr0, cr5, cr0, {0}
     848:	03000000 	movweq	r0, #0
     84c:	06019423 	streq	r9, [r1], -r3, lsr #8
     850:	0000096a 	andeq	r0, r0, sl, ror #18
     854:	005e8603 	subseq	r8, lr, r3, lsl #12
     858:	23030000 	movwcs	r0, #12288	; 0x3000
     85c:	30060198 	mulcc	r6, r8, r1
     860:	03000011 	movweq	r0, #17
     864:	00005e87 	andeq	r5, r0, r7, lsl #29
     868:	9c230300 	stcls	3, cr0, [r3], #-0
     86c:	5e080001 	cdppl	0, 0, cr0, cr8, cr1, {0}
     870:	09000000 	stmdbeq	r0, {}	; <UNPREDICTABLE>
     874:	0000005e 	andeq	r0, r0, lr, asr r0
     878:	000002d7 	ldrdeq	r0, [r0], -r7
     87c:	0000690a 	andeq	r6, r0, sl, lsl #18
     880:	09000100 	stmdbeq	r0, {r8}
     884:	0000005e 	andeq	r0, r0, lr, asr r0
     888:	000002e7 	andeq	r0, r0, r7, ror #5
     88c:	0000690a 	andeq	r6, r0, sl, lsl #18
     890:	05000300 	streq	r0, [r0, #-768]	; 0x300
     894:	00000446 	andeq	r0, r0, r6, asr #8
     898:	af190404 	svcge	0x00190404
     89c:	0b000003 	bleq	8b0 <set_event_counter+0x8>
     8a0:	00000693 	muleq	r0, r3, r6
     8a4:	005e1b04 	subseq	r1, lr, r4, lsl #22
     8a8:	02040000 	andeq	r0, r4, #0
     8ac:	0023021e 	eoreq	r0, r3, lr, lsl r2
     8b0:	000e280b 	andeq	r2, lr, fp, lsl #16
     8b4:	5e1c0400 	cfmulspl	mvf0, mvf12, mvf0
     8b8:	04000000 	streq	r0, [r0], #-0
     8bc:	23021c02 	movwcs	r1, #11266	; 0x2c02
     8c0:	068b0b00 	streq	r0, [fp], r0, lsl #22
     8c4:	1d040000 	stcne	0, cr0, [r4, #-0]
     8c8:	0000005e 	andeq	r0, r0, lr, asr r0
     8cc:	021a0204 	andseq	r0, sl, #1073741824	; 0x40000000
     8d0:	320b0023 	andcc	r0, fp, #35	; 0x23
     8d4:	0400000e 	streq	r0, [r0], #-14
     8d8:	00005e1e 	andeq	r5, r0, lr, lsl lr
     8dc:	18020400 	stmdane	r2, {sl}
     8e0:	0b002302 	bleq	94f0 <__bss_end+0x6668>
     8e4:	0000069b 	muleq	r0, fp, r6
     8e8:	005e1f04 	subseq	r1, lr, r4, lsl #30
     8ec:	05040000 	streq	r0, [r4, #-0]
     8f0:	00230213 	eoreq	r0, r3, r3, lsl r2
     8f4:	000e3c0b 	andeq	r3, lr, fp, lsl #24
     8f8:	5e200400 	cdppl	4, 2, cr0, cr0, cr0, {0}
     8fc:	04000000 	streq	r0, [r0], #-0
     900:	2302080b 	movwcs	r0, #10251	; 0x280b
     904:	0a320b00 	beq	c8350c <__bss_end+0xc80684>
     908:	21040000 	mrscs	r0, (UNDEF: 4)
     90c:	0000005e 	andeq	r0, r0, lr, asr r0
     910:	02070104 	andeq	r0, r7, #1
     914:	460b0023 	strmi	r0, [fp], -r3, lsr #32
     918:	0400000e 	streq	r0, [r0], #-14
     91c:	00005e22 	andeq	r5, r0, r2, lsr #28
     920:	04030400 	streq	r0, [r3], #-1024	; 0x400
     924:	0b002302 	bleq	9534 <__bss_end+0x66ac>
     928:	00000c62 	andeq	r0, r0, r2, ror #24
     92c:	005e2304 	subseq	r2, lr, r4, lsl #6
     930:	01040000 	mrseq	r0, (UNDEF: 4)
     934:	00230203 	eoreq	r0, r3, r3, lsl #4
     938:	000e500b 	andeq	r5, lr, fp
     93c:	5e240400 	cdppl	4, 2, cr0, cr4, cr0, {0}
     940:	04000000 	streq	r0, [r0], #-0
     944:	23020102 	movwcs	r0, #8450	; 0x2102
     948:	0dbd0b00 	ldceq	11, cr0, [sp]
     94c:	25040000 	strcs	r0, [r4, #-0]
     950:	0000005e 	andeq	r0, r0, lr, asr r0
     954:	02000104 	andeq	r0, r0, #1
     958:	03000023 	movweq	r0, #35	; 0x23
     95c:	00000dc3 	andeq	r0, r0, r3, asr #27
     960:	02e72704 	rsceq	r2, r7, #1048576	; 0x100000
     964:	d9050000 	stmdble	r5, {}	; <UNPREDICTABLE>
     968:	0400000d 	streq	r0, [r0], #-13
     96c:	04822a04 	streq	r2, [r2], #2564	; 0xa04
     970:	930b0000 	movwls	r0, #45056	; 0xb000
     974:	04000006 	streq	r0, [r0], #-6
     978:	00005e2c 	andeq	r5, r0, ip, lsr #28
     97c:	1b050400 	blne	141984 <__bss_end+0x13eafc>
     980:	0b002302 	bleq	9590 <__bss_end+0x6708>
     984:	00000e28 	andeq	r0, r0, r8, lsr #28
     988:	005e2d04 	subseq	r2, lr, r4, lsl #26
     98c:	03040000 	movweq	r0, #16384	; 0x4000
     990:	00230218 	eoreq	r0, r3, r8, lsl r2
     994:	00069b0b 	andeq	r9, r6, fp, lsl #22
     998:	5e2e0400 	cdppl	4, 2, cr0, cr14, cr0, {0}
     99c:	04000000 	streq	r0, [r0], #-0
     9a0:	23021107 	movwcs	r1, #8455	; 0x2107
     9a4:	0e320b00 	vaddeq.f64	d0, d2, d0
     9a8:	2f040000 	svccs	0x00040000
     9ac:	0000005e 	andeq	r0, r0, lr, asr r0
     9b0:	02100104 	andseq	r0, r0, #1
     9b4:	ab0b0023 	blge	2c0a48 <__bss_end+0x2bdbc0>
     9b8:	04000006 	streq	r0, [r0], #-6
     9bc:	00005e30 	andeq	r5, r0, r0, lsr lr
     9c0:	0c040400 	cfstrseq	mvf0, [r4], {-0}
     9c4:	0b002302 	bleq	95d4 <__bss_end+0x674c>
     9c8:	00000e3c 	andeq	r0, r0, ip, lsr lr
     9cc:	005e3104 	subseq	r3, lr, r4, lsl #2
     9d0:	04040000 	streq	r0, [r4], #-0
     9d4:	00230208 	eoreq	r0, r3, r8, lsl #4
     9d8:	000c270b 	andeq	r2, ip, fp, lsl #14
     9dc:	5e320400 	cfabsspl	mvf0, mvf2
     9e0:	04000000 	streq	r0, [r0], #-0
     9e4:	23020701 	movwcs	r0, #9985	; 0x2701
     9e8:	0e460b00 	vmlaeq.f64	d16, d6, d0
     9ec:	33040000 	movwcc	r0, #16384	; 0x4000
     9f0:	0000005e 	andeq	r0, r0, lr, asr r0
     9f4:	02040304 	andeq	r0, r4, #268435456	; 0x10000000
     9f8:	620b0023 	andvs	r0, fp, #35	; 0x23
     9fc:	0400000c 	streq	r0, [r0], #-12
     a00:	00005e34 	andeq	r5, r0, r4, lsr lr
     a04:	03010400 	movweq	r0, #5120	; 0x1400
     a08:	0b002302 	bleq	9618 <__bss_end+0x6790>
     a0c:	00000e50 	andeq	r0, r0, r0, asr lr
     a10:	005e3504 	subseq	r3, lr, r4, lsl #10
     a14:	02040000 	andeq	r0, r4, #0
     a18:	00230201 	eoreq	r0, r3, r1, lsl #4
     a1c:	000dbd0b 	andeq	fp, sp, fp, lsl #26
     a20:	5e360400 	cfabsspl	mvf0, mvf6
     a24:	04000000 	streq	r0, [r0], #-0
     a28:	23020001 	movwcs	r0, #8193	; 0x2001
     a2c:	b5030000 	strlt	r0, [r3, #-0]
     a30:	0400000c 	streq	r0, [r0], #-12
     a34:	0003ba37 	andeq	fp, r3, r7, lsr sl
     a38:	03480500 	movteq	r0, #34048	; 0x8500
     a3c:	04040000 	streq	r0, [r4], #-0
     a40:	0005773a 	andeq	r7, r5, sl, lsr r7
     a44:	06930b00 	ldreq	r0, [r3], r0, lsl #22
     a48:	3c040000 	stccc	0, cr0, [r4], {-0}
     a4c:	0000005e 	andeq	r0, r0, lr, asr r0
     a50:	021c0404 	andseq	r0, ip, #67108864	; 0x4000000
     a54:	280b0023 	stmdacs	fp, {r0, r1, r5}
     a58:	0400000e 	streq	r0, [r0], #-14
     a5c:	00005e3d 	andeq	r5, r0, sp, lsr lr
     a60:	18040400 	stmdane	r4, {sl}
     a64:	0b002302 	bleq	9674 <__bss_end+0x67ec>
     a68:	0000069b 	muleq	r0, fp, r6
     a6c:	005e3e04 	subseq	r3, lr, r4, lsl #28
     a70:	07040000 	streq	r0, [r4, -r0]
     a74:	00230211 	eoreq	r0, r3, r1, lsl r2
     a78:	000e320b 	andeq	r3, lr, fp, lsl #4
     a7c:	5e3f0400 	cfabsspl	mvf0, mvf15
     a80:	04000000 	streq	r0, [r0], #-0
     a84:	23020c05 	movwcs	r0, #11269	; 0x2c05
     a88:	0c270b00 	stceq	11, cr0, [r7], #-0
     a8c:	40040000 	andmi	r0, r4, r0
     a90:	0000005e 	andeq	r0, r0, lr, asr r0
     a94:	020b0104 	andeq	r0, fp, #1
     a98:	3c0b0023 	stccc	0, cr0, [fp], {35}	; 0x23
     a9c:	0400000e 	streq	r0, [r0], #-14
     aa0:	00005e41 	andeq	r5, r0, r1, asr #28
     aa4:	08030400 	stmdaeq	r3, {sl}
     aa8:	0b002302 	bleq	96b8 <__bss_end+0x6830>
     aac:	00000d06 	andeq	r0, r0, r6, lsl #26
     ab0:	005e4204 	subseq	r4, lr, r4, lsl #4
     ab4:	01040000 	mrseq	r0, (UNDEF: 4)
     ab8:	00230207 	eoreq	r0, r3, r7, lsl #4
     abc:	000ead0b 	andeq	sl, lr, fp, lsl #26
     ac0:	5e430400 	cdppl	4, 4, cr0, cr3, cr0, {0}
     ac4:	04000000 	streq	r0, [r0], #-0
     ac8:	23020601 	movwcs	r0, #9729	; 0x2601
     acc:	0e460b00 	vmlaeq.f64	d16, d6, d0
     ad0:	44040000 	strmi	r0, [r4], #-0
     ad4:	0000005e 	andeq	r0, r0, lr, asr r0
     ad8:	02040204 	andeq	r0, r4, #1073741824	; 0x40000000
     adc:	620b0023 	andvs	r0, fp, #35	; 0x23
     ae0:	0400000c 	streq	r0, [r0], #-12
     ae4:	00005e45 	andeq	r5, r0, r5, asr #28
     ae8:	03010400 	movweq	r0, #5120	; 0x1400
     aec:	0b002302 	bleq	96fc <__bss_end+0x6874>
     af0:	00000e50 	andeq	r0, r0, r0, asr lr
     af4:	005e4604 	subseq	r4, lr, r4, lsl #12
     af8:	01040000 	mrseq	r0, (UNDEF: 4)
     afc:	00230202 	eoreq	r0, r3, r2, lsl #4
     b00:	000a660b 	andeq	r6, sl, fp, lsl #12
     b04:	5e470400 	cdppl	4, 4, cr0, cr7, cr0, {0}
     b08:	04000000 	streq	r0, [r0], #-0
     b0c:	23020101 	movwcs	r0, #8449	; 0x2101
     b10:	0dbd0b00 	ldceq	11, cr0, [sp]
     b14:	48040000 	stmdami	r4, {}	; <UNPREDICTABLE>
     b18:	0000005e 	andeq	r0, r0, lr, asr r0
     b1c:	02000104 	andeq	r0, r0, #1
     b20:	03000023 	movweq	r0, #35	; 0x23
     b24:	00000fe8 	andeq	r0, r0, r8, ror #31
     b28:	048d4904 	streq	r4, [sp], #2308	; 0x904
     b2c:	a3050000 	movwge	r0, #20480	; 0x5000
     b30:	0400000d 	streq	r0, [r0], #-13
     b34:	066c4c04 	strbteq	r4, [ip], -r4, lsl #24
     b38:	930b0000 	movwls	r0, #45056	; 0xb000
     b3c:	04000006 	streq	r0, [r0], #-6
     b40:	00005e4e 	andeq	r5, r0, lr, asr #28
     b44:	1e020400 	cfcpysne	mvf0, mvf2
     b48:	0b002302 	bleq	9758 <__bss_end+0x68d0>
     b4c:	00000e28 	andeq	r0, r0, r8, lsr #28
     b50:	005e4f04 	subseq	r4, lr, r4, lsl #30
     b54:	02040000 	andeq	r0, r4, #0
     b58:	0023021c 	eoreq	r0, r3, ip, lsl r2
     b5c:	00068b0b 	andeq	r8, r6, fp, lsl #22
     b60:	5e500400 	cdppl	4, 5, cr0, cr0, cr0, {0}
     b64:	04000000 	streq	r0, [r0], #-0
     b68:	23021a02 	movwcs	r1, #10754	; 0x2a02
     b6c:	0e320b00 	vaddeq.f64	d0, d2, d0
     b70:	51040000 	mrspl	r0, (UNDEF: 4)
     b74:	0000005e 	andeq	r0, r0, lr, asr r0
     b78:	02180204 	andseq	r0, r8, #1073741824	; 0x40000000
     b7c:	9b0b0023 	blls	2c0c10 <__bss_end+0x2bdd88>
     b80:	04000006 	streq	r0, [r0], #-6
     b84:	00005e52 	andeq	r5, r0, r2, asr lr
     b88:	13050400 	movwne	r0, #21504	; 0x5400
     b8c:	0b002302 	bleq	979c <__bss_end+0x6914>
     b90:	00000e3c 	andeq	r0, r0, ip, lsr lr
     b94:	005e5304 	subseq	r5, lr, r4, lsl #6
     b98:	07040000 	streq	r0, [r4, -r0]
     b9c:	0023020c 	eoreq	r0, r3, ip, lsl #4
     ba0:	0005660b 	andeq	r6, r5, fp, lsl #12
     ba4:	5e540400 	cdppl	4, 5, cr0, cr4, cr0, {0}
     ba8:	04000000 	streq	r0, [r0], #-0
     bac:	23020b01 	movwcs	r0, #11009	; 0x2b01
     bb0:	0e460b00 	vmlaeq.f64	d16, d6, d0
     bb4:	55040000 	strpl	r0, [r4, #-0]
     bb8:	0000005e 	andeq	r0, r0, lr, asr r0
     bbc:	02080304 	andeq	r0, r8, #268435456	; 0x10000000
     bc0:	530b0023 	movwpl	r0, #45091	; 0xb023
     bc4:	0400000a 	streq	r0, [r0], #-10
     bc8:	00005e56 	andeq	r5, r0, r6, asr lr
     bcc:	07010400 	streq	r0, [r1, -r0, lsl #8]
     bd0:	0b002302 	bleq	97e0 <__bss_end+0x6958>
     bd4:	00000e50 	andeq	r0, r0, r0, asr lr
     bd8:	005e5704 	subseq	r5, lr, r4, lsl #14
     bdc:	03040000 	movweq	r0, #16384	; 0x4000
     be0:	00230204 	eoreq	r0, r3, r4, lsl #4
     be4:	000c620b 	andeq	r6, ip, fp, lsl #4
     be8:	5e580400 	cdppl	4, 5, cr0, cr8, cr0, {0}
     bec:	04000000 	streq	r0, [r0], #-0
     bf0:	23020301 	movwcs	r0, #8961	; 0x2301
     bf4:	0e5a0b00 	vnmlseq.f64	d16, d10, d0
     bf8:	59040000 	stmdbpl	r4, {}	; <UNPREDICTABLE>
     bfc:	0000005e 	andeq	r0, r0, lr, asr r0
     c00:	02010204 	andeq	r0, r1, #1073741824	; 0x40000000
     c04:	bd0b0023 	stclt	0, cr0, [fp, #-140]	; 0xffffff74
     c08:	0400000d 	streq	r0, [r0], #-13
     c0c:	00005e5a 	andeq	r5, r0, sl, asr lr
     c10:	00010400 	andeq	r0, r1, r0, lsl #8
     c14:	00002302 	andeq	r2, r0, r2, lsl #6
     c18:	0005ba03 	andeq	fp, r5, r3, lsl #20
     c1c:	825b0400 	subshi	r0, fp, #0
     c20:	05000005 	streq	r0, [r0, #-5]
     c24:	0000111c 	andeq	r1, r0, ip, lsl r1
     c28:	835e0404 	cmphi	lr, #67108864	; 0x4000000
     c2c:	0b000007 	bleq	c50 <mem_flush_tlb+0x14>
     c30:	00000693 	muleq	r0, r3, r6
     c34:	005e6004 	subseq	r6, lr, r4
     c38:	02040000 	andeq	r0, r4, #0
     c3c:	0023021e 	eoreq	r0, r3, lr, lsl r2
     c40:	000e280b 	andeq	r2, lr, fp, lsl #16
     c44:	5e610400 	cdppl	4, 6, cr0, cr1, cr0, {0}
     c48:	04000000 	streq	r0, [r0], #-0
     c4c:	23021c02 	movwcs	r1, #11266	; 0x2c02
     c50:	068b0b00 	streq	r0, [fp], r0, lsl #22
     c54:	62040000 	andvs	r0, r4, #0
     c58:	0000005e 	andeq	r0, r0, lr, asr r0
     c5c:	021a0204 	andseq	r0, sl, #1073741824	; 0x40000000
     c60:	320b0023 	andcc	r0, fp, #35	; 0x23
     c64:	0400000e 	streq	r0, [r0], #-14
     c68:	00005e63 	andeq	r5, r0, r3, ror #28
     c6c:	18020400 	stmdane	r2, {sl}
     c70:	0b002302 	bleq	9880 <__bss_end+0x69f8>
     c74:	0000069b 	muleq	r0, fp, r6
     c78:	005e6404 	subseq	r6, lr, r4, lsl #8
     c7c:	05040000 	streq	r0, [r4, #-0]
     c80:	00230213 	eoreq	r0, r3, r3, lsl r2
     c84:	000e3c0b 	andeq	r3, lr, fp, lsl #24
     c88:	5e650400 	cdppl	4, 6, cr0, cr5, cr0, {0}
     c8c:	04000000 	streq	r0, [r0], #-0
     c90:	23021003 	movwcs	r1, #8195	; 0x2003
     c94:	0f880b00 	svceq	0x00880b00
     c98:	66040000 	strvs	r0, [r4], -r0
     c9c:	0000005e 	andeq	r0, r0, lr, asr r0
     ca0:	020e0204 	andeq	r0, lr, #1073741824	; 0x40000000
     ca4:	770b0023 	strvc	r0, [fp, -r3, lsr #32]
     ca8:	04000002 	streq	r0, [r0], #-2
     cac:	00005e67 	andeq	r5, r0, r7, ror #28
     cb0:	0d010400 	cfstrseq	mvf0, [r1, #-0]
     cb4:	0b002302 	bleq	98c4 <__bss_end+0x6a3c>
     cb8:	00000e46 	andeq	r0, r0, r6, asr #28
     cbc:	005e6804 	subseq	r6, lr, r4, lsl #16
     cc0:	05040000 	streq	r0, [r4, #-0]
     cc4:	00230208 	eoreq	r0, r3, r8, lsl #4
     cc8:	000ba00b 	andeq	sl, fp, fp
     ccc:	5e690400 	cdppl	4, 6, cr0, cr9, cr0, {0}
     cd0:	04000000 	streq	r0, [r0], #-0
     cd4:	23020701 	movwcs	r0, #9985	; 0x2701
     cd8:	0b380b00 	bleq	e038e0 <__bss_end+0xe00a58>
     cdc:	6a040000 	bvs	100ce4 <__bss_end+0xfde5c>
     ce0:	0000005e 	andeq	r0, r0, lr, asr r0
     ce4:	02060104 	andeq	r0, r6, #1
     ce8:	500b0023 	andpl	r0, fp, r3, lsr #32
     cec:	0400000e 	streq	r0, [r0], #-14
     cf0:	00005e6b 	andeq	r5, r0, fp, ror #28
     cf4:	04020400 	streq	r0, [r2], #-1024	; 0x400
     cf8:	0b002302 	bleq	9908 <__bss_end+0x6a80>
     cfc:	00000c62 	andeq	r0, r0, r2, ror #24
     d00:	005e6c04 	subseq	r6, lr, r4, lsl #24
     d04:	01040000 	mrseq	r0, (UNDEF: 4)
     d08:	00230203 	eoreq	r0, r3, r3, lsl #4
     d0c:	000e5a0b 	andeq	r5, lr, fp, lsl #20
     d10:	5e6d0400 	cdppl	4, 6, cr0, cr13, cr0, {0}
     d14:	04000000 	streq	r0, [r0], #-0
     d18:	23020102 	movwcs	r0, #8450	; 0x2102
     d1c:	0dbd0b00 	ldceq	11, cr0, [sp]
     d20:	6e040000 	cdpvs	0, 0, cr0, cr4, cr0, {0}
     d24:	0000005e 	andeq	r0, r0, lr, asr r0
     d28:	02000104 	andeq	r0, r0, #1
     d2c:	03000023 	movweq	r0, #35	; 0x23
     d30:	000004d1 	ldrdeq	r0, [r0], -r1
     d34:	06776f04 	ldrbteq	r6, [r7], -r4, lsl #30
     d38:	3e050000 	cdpcc	0, 0, cr0, cr5, cr0, {0}
     d3c:	0400000c 	streq	r0, [r0], #-12
     d40:	08de7204 	ldmeq	lr, {r2, r9, ip, sp, lr}^
     d44:	930b0000 	movwls	r0, #45056	; 0xb000
     d48:	04000006 	streq	r0, [r0], #-6
     d4c:	00005e74 	andeq	r5, r0, r4, ror lr
     d50:	1c040400 	cfstrsne	mvf0, [r4], {-0}
     d54:	0b002302 	bleq	9964 <__bss_end+0x6adc>
     d58:	0000068b 	andeq	r0, r0, fp, lsl #13
     d5c:	005e7504 	subseq	r7, lr, r4, lsl #10
     d60:	02040000 	andeq	r0, r4, #0
     d64:	0023021a 	eoreq	r0, r3, sl, lsl r2
     d68:	000e280b 	andeq	r2, lr, fp, lsl #16
     d6c:	5e760400 	cdppl	4, 7, cr0, cr6, cr0, {0}
     d70:	04000000 	streq	r0, [r0], #-0
     d74:	23021802 	movwcs	r1, #10242	; 0x2802
     d78:	069b0b00 	ldreq	r0, [fp], r0, lsl #22
     d7c:	77040000 	strvc	r0, [r4, -r0]
     d80:	0000005e 	andeq	r0, r0, lr, asr r0
     d84:	02140404 	andseq	r0, r4, #67108864	; 0x4000000
     d88:	320b0023 	andcc	r0, fp, #35	; 0x23
     d8c:	0400000e 	streq	r0, [r0], #-14
     d90:	00005e78 	andeq	r5, r0, r8, ror lr
     d94:	10040400 	andne	r0, r4, r0, lsl #8
     d98:	0b002302 	bleq	99a8 <__bss_end+0x6b20>
     d9c:	00000609 	andeq	r0, r0, r9, lsl #12
     da0:	005e7904 	subseq	r7, lr, r4, lsl #18
     da4:	01040000 	mrseq	r0, (UNDEF: 4)
     da8:	0023020f 	eoreq	r0, r3, pc, lsl #4
     dac:	000d480b 	andeq	r4, sp, fp, lsl #16
     db0:	5e7b0400 	cdppl	4, 7, cr0, cr11, cr0, {0}
     db4:	04000000 	streq	r0, [r0], #-0
     db8:	23020e01 	movwcs	r0, #11777	; 0x2e01
     dbc:	0e3c0b00 	vaddeq.f64	d0, d12, d0
     dc0:	7c040000 	stcvc	0, cr0, [r4], {-0}
     dc4:	0000005e 	andeq	r0, r0, lr, asr r0
     dc8:	020c0204 	andeq	r0, ip, #1073741824	; 0x40000000
     dcc:	270b0023 	strcs	r0, [fp, -r3, lsr #32]
     dd0:	0400000c 	streq	r0, [r0], #-12
     dd4:	00005e7d 	andeq	r5, r0, sp, ror lr
     dd8:	0b010400 	bleq	41de0 <__bss_end+0x3ef58>
     ddc:	0b002302 	bleq	99ec <__bss_end+0x6b64>
     de0:	00000477 	andeq	r0, r0, r7, ror r4
     de4:	005e7e04 	subseq	r7, lr, r4, lsl #28
     de8:	01040000 	mrseq	r0, (UNDEF: 4)
     dec:	0023020a 	eoreq	r0, r3, sl, lsl #4
     df0:	0005290b 	andeq	r2, r5, fp, lsl #18
     df4:	5e7f0400 	cdppl	4, 7, cr0, cr15, cr0, {0}
     df8:	04000000 	streq	r0, [r0], #-0
     dfc:	23020901 	movwcs	r0, #10497	; 0x2901
     e00:	0e210b00 	vmuleq.f64	d0, d1, d0
     e04:	80040000 	andhi	r0, r4, r0
     e08:	0000005e 	andeq	r0, r0, lr, asr r0
     e0c:	02080104 	andeq	r0, r8, #1
     e10:	460b0023 	strmi	r0, [fp], -r3, lsr #32
     e14:	0400000e 	streq	r0, [r0], #-14
     e18:	00005e81 	andeq	r5, r0, r1, lsl #29
     e1c:	07010400 	streq	r0, [r1, -r0, lsl #8]
     e20:	0b002302 	bleq	9a30 <__bss_end+0x6ba8>
     e24:	00000ca9 	andeq	r0, r0, r9, lsr #25
     e28:	005e8204 	subseq	r8, lr, r4, lsl #4
     e2c:	01040000 	mrseq	r0, (UNDEF: 4)
     e30:	00230206 	eoreq	r0, r3, r6, lsl #4
     e34:	000db70b 	andeq	fp, sp, fp, lsl #14
     e38:	5e830400 	cdppl	4, 8, cr0, cr3, cr0, {0}
     e3c:	04000000 	streq	r0, [r0], #-0
     e40:	23020501 	movwcs	r0, #9473	; 0x2501
     e44:	0f290b00 	svceq	0x00290b00
     e48:	84040000 	strhi	r0, [r4], #-0
     e4c:	0000005e 	andeq	r0, r0, lr, asr r0
     e50:	02040104 	andeq	r0, r4, #1
     e54:	620b0023 	andvs	r0, fp, #35	; 0x23
     e58:	0400000c 	streq	r0, [r0], #-12
     e5c:	00005e85 	andeq	r5, r0, r5, lsl #29
     e60:	03010400 	movweq	r0, #5120	; 0x1400
     e64:	0b002302 	bleq	9a74 <__bss_end+0x6bec>
     e68:	00000e50 	andeq	r0, r0, r0, asr lr
     e6c:	005e8604 	subseq	r8, lr, r4, lsl #12
     e70:	02040000 	andeq	r0, r4, #0
     e74:	00230201 	eoreq	r0, r3, r1, lsl #4
     e78:	000dbd0b 	andeq	fp, sp, fp, lsl #26
     e7c:	5e870400 	cdppl	4, 8, cr0, cr7, cr0, {0}
     e80:	04000000 	streq	r0, [r0], #-0
     e84:	23020001 	movwcs	r0, #8193	; 0x2001
     e88:	04030000 	streq	r0, [r3], #-0
     e8c:	04000003 	streq	r0, [r0], #-3
     e90:	00078e88 	andeq	r8, r7, r8, lsl #29
     e94:	0eb50500 	cdpeq	5, 11, cr0, cr5, cr0, {0}
     e98:	04040000 	streq	r0, [r4], #-0
     e9c:	00095c8e 	andeq	r5, r9, lr, lsl #25
     ea0:	10df0b00 	sbcsne	r0, pc, r0, lsl #22
     ea4:	90040000 	andls	r0, r4, r0
     ea8:	0000005e 	andeq	r0, r0, lr, asr r0
     eac:	021d0304 	andseq	r0, sp, #268435456	; 0x10000000
     eb0:	280b0023 	stmdacs	fp, {r0, r1, r5}
     eb4:	0400000e 	streq	r0, [r0], #-14
     eb8:	00005e91 	muleq	r0, r1, lr
     ebc:	18050400 	stmdane	r5, {sl}
     ec0:	0b002302 	bleq	9ad0 <__bss_end+0x6c48>
     ec4:	00000df5 	strdeq	r0, [r0], -r5
     ec8:	005e9204 	subseq	r9, lr, r4, lsl #4
     ecc:	02040000 	andeq	r0, r4, #0
     ed0:	00230216 	eoreq	r0, r3, r6, lsl r2
     ed4:	000e320b 	andeq	r3, lr, fp, lsl #4
     ed8:	5e930400 	cdppl	4, 9, cr0, cr3, cr0, {0}
     edc:	04000000 	streq	r0, [r0], #-0
     ee0:	23021006 	movwcs	r1, #8198	; 0x2006
     ee4:	0fde0b00 	svceq	0x00de0b00
     ee8:	94040000 	strls	r0, [r4], #-0
     eec:	0000005e 	andeq	r0, r0, lr, asr r0
     ef0:	020e0204 	andeq	r0, lr, #1073741824	; 0x40000000
     ef4:	3c0b0023 	stccc	0, cr0, [fp], {35}	; 0x23
     ef8:	0400000e 	streq	r0, [r0], #-14
     efc:	00005e95 	muleq	r0, r5, lr
     f00:	000e0400 	andeq	r0, lr, r0, lsl #8
     f04:	00002302 	andeq	r2, r0, r2, lsl #6
     f08:	00050b03 	andeq	r0, r5, r3, lsl #22
     f0c:	e9960400 	ldmib	r6, {sl}
     f10:	05000008 	streq	r0, [r0, #-8]
     f14:	00000283 	andeq	r0, r0, r3, lsl #5
     f18:	eb9d0404 	bl	fe741f30 <__bss_end+0xfe73f0a8>
     f1c:	0b000009 	bleq	f48 <__save_processor_state+0x48>
     f20:	00000e28 	andeq	r0, r0, r8, lsr #28
     f24:	005e9f04 	subseq	r9, lr, r4, lsl #30
     f28:	04040000 	streq	r0, [r4], #-0
     f2c:	0023021c 	eoreq	r0, r3, ip, lsl r2
     f30:	000b650b 	andeq	r6, fp, fp, lsl #10
     f34:	5ea00400 	cdppl	4, 10, cr0, cr0, cr0, {0}
     f38:	04000000 	streq	r0, [r0], #-0
     f3c:	23021a02 	movwcs	r1, #10754	; 0x2a02
     f40:	10a40b00 	adcne	r0, r4, r0, lsl #22
     f44:	a1040000 	mrsge	r0, (UNDEF: 4)
     f48:	0000005e 	andeq	r0, r0, lr, asr r0
     f4c:	02180204 	andseq	r0, r8, #1073741824	; 0x40000000
     f50:	fe0b0023 	cdp2	0, 0, cr0, cr11, cr3, {1}
     f54:	0400000c 	streq	r0, [r0], #-12
     f58:	00005ea2 	andeq	r5, r0, r2, lsr #29
     f5c:	16020400 	strne	r0, [r2], -r0, lsl #8
     f60:	0b002302 	bleq	9b70 <__bss_end+0x6ce8>
     f64:	00000e32 	andeq	r0, r0, r2, lsr lr
     f68:	005ea304 	subseq	sl, lr, r4, lsl #6
     f6c:	02040000 	andeq	r0, r4, #0
     f70:	00230214 	eoreq	r0, r3, r4, lsl r2
     f74:	000f690b 	andeq	r6, pc, fp, lsl #18
     f78:	5ea40400 	cdppl	4, 10, cr0, cr4, cr0, {0}
     f7c:	04000000 	streq	r0, [r0], #-0
     f80:	23021202 	movwcs	r1, #8706	; 0x2202
     f84:	0e3c0b00 	vaddeq.f64	d0, d12, d0
     f88:	a5040000 	strge	r0, [r4, #-0]
     f8c:	0000005e 	andeq	r0, r0, lr, asr r0
     f90:	02001204 	andeq	r1, r0, #1073741824	; 0x40000000
     f94:	03000023 	movweq	r0, #35	; 0x23
     f98:	00000fa6 	andeq	r0, r0, r6, lsr #31
     f9c:	0967a604 	stmdbeq	r7!, {r2, r9, sl, sp, pc}^
     fa0:	2d050000 	stccs	0, cr0, [r5, #-0]
     fa4:	04000010 	streq	r0, [r0], #-16
     fa8:	0a69ac04 	beq	1a6bfc0 <__bss_end+0x1a69138>
     fac:	800b0000 	andhi	r0, fp, r0
     fb0:	04000007 	streq	r0, [r0], #-7
     fb4:	00005eae 	andeq	r5, r0, lr, lsr #29
     fb8:	1b050400 	blne	141fc0 <__bss_end+0x13f138>
     fbc:	0b002302 	bleq	9bcc <__bss_end+0x6d44>
     fc0:	000010d6 	ldrdeq	r1, [r0], -r6
     fc4:	005eaf04 	subseq	sl, lr, r4, lsl #30
     fc8:	0b040000 	bleq	100fd0 <__bss_end+0xfe148>
     fcc:	00230210 	eoreq	r0, r3, r0, lsl r2
     fd0:	0007850b 	andeq	r8, r7, fp, lsl #10
     fd4:	5eb00400 	cdppl	4, 11, cr0, cr0, cr0, {0}
     fd8:	04000000 	streq	r0, [r0], #-0
     fdc:	23020e02 	movwcs	r0, #11778	; 0x2e02
     fe0:	0e320b00 	vaddeq.f64	d0, d2, d0
     fe4:	b1040000 	mrslt	r0, (UNDEF: 4)
     fe8:	0000005e 	andeq	r0, r0, lr, asr r0
     fec:	02080604 	andeq	r0, r8, #4194304	; 0x400000
     ff0:	6d0b0023 	stcvs	0, cr0, [fp, #-140]	; 0xffffff74
     ff4:	0400000f 	streq	r0, [r0], #-15
     ff8:	00005eb2 			; <UNDEFINED> instruction: 0x00005eb2
     ffc:	06020400 	streq	r0, [r2], -r0, lsl #8
    1000:	0b002302 	bleq	9c10 <__bss_end+0x6d88>
    1004:	00000e3c 	andeq	r0, r0, ip, lsr lr
    1008:	005eb304 	subseq	fp, lr, r4, lsl #6
    100c:	06040000 	streq	r0, [r4], -r0
    1010:	00230200 	eoreq	r0, r3, r0, lsl #4
    1014:	0bcd0300 	bleq	ff341c1c <__bss_end+0xff33ed94>
    1018:	b4040000 	strlt	r0, [r4], #-0
    101c:	000009f6 	strdeq	r0, [r0], -r6
    1020:	00108305 	andseq	r8, r0, r5, lsl #6
    1024:	b7040400 	strlt	r0, [r4, -r0, lsl #8]
    1028:	00000aa3 	andeq	r0, r0, r3, lsr #21
    102c:	0009900b 	andeq	r9, r9, fp
    1030:	5eb90400 	cdppl	4, 11, cr0, cr9, cr0, {0}
    1034:	04000000 	streq	r0, [r0], #-0
    1038:	23021f01 	movwcs	r1, #12033	; 0x2f01
    103c:	0e280b00 	vmuleq.f64	d0, d8, d0
    1040:	ba040000 	blt	101048 <__bss_end+0xfe1c0>
    1044:	0000005e 	andeq	r0, r0, lr, asr r0
    1048:	02001f04 	andeq	r1, r0, #16
    104c:	03000023 	movweq	r0, #35	; 0x23
    1050:	00000818 	andeq	r0, r0, r8, lsl r8
    1054:	0a74bb04 	beq	1d2fc6c <__bss_end+0x1d2cde4>
    1058:	7b050000 	blvc	141060 <__bss_end+0x13e1d8>
    105c:	04000008 	streq	r0, [r0], #-8
    1060:	0ca6be04 	stceq	14, cr11, [r6], #16
    1064:	0f0b0000 	svceq	0x000b0000
    1068:	0400000e 	streq	r0, [r0], #-14
    106c:	00005ec0 	andeq	r5, r0, r0, asr #29
    1070:	1f010400 	svcne	0x00010400
    1074:	0b002302 	bleq	9c84 <__bss_end+0x6dfc>
    1078:	000004e7 	andeq	r0, r0, r7, ror #9
    107c:	005ec104 	subseq	ip, lr, r4, lsl #2
    1080:	01040000 	mrseq	r0, (UNDEF: 4)
    1084:	0023021e 	eoreq	r0, r3, lr, lsl r2
    1088:	000e280b 	andeq	r2, lr, fp, lsl #16
    108c:	5ec20400 	cdppl	4, 12, cr0, cr2, cr0, {0}
    1090:	04000000 	streq	r0, [r0], #-0
    1094:	23021b03 	movwcs	r1, #11011	; 0x2b03
    1098:	73530c00 	cmpvc	r3, #0
    109c:	5ec30400 	cdppl	4, 12, cr0, cr3, cr0, {0}
    10a0:	04000000 	streq	r0, [r0], #-0
    10a4:	23021a01 	movwcs	r1, #10753	; 0x2a01
    10a8:	6d440c00 	stclvs	12, cr0, [r4, #-0]
    10ac:	c4040061 	strgt	r0, [r4], #-97	; 0x61
    10b0:	0000005e 	andeq	r0, r0, lr, asr r0
    10b4:	02190104 	andseq	r0, r9, #1
    10b8:	320b0023 	andcc	r0, fp, #35	; 0x23
    10bc:	0400000e 	streq	r0, [r0], #-14
    10c0:	00005ec5 	andeq	r5, r0, r5, asr #29
    10c4:	18010400 	stmdane	r1, {sl}
    10c8:	0c002302 	stceq	3, cr2, [r0], {2}
    10cc:	00306453 	eorseq	r6, r0, r3, asr r4
    10d0:	005ec604 	subseq	ip, lr, r4, lsl #12
    10d4:	01040000 	mrseq	r0, (UNDEF: 4)
    10d8:	00230217 	eoreq	r0, r3, r7, lsl r2
    10dc:	3164530c 	cmncc	r4, ip, lsl #6
    10e0:	5ec70400 	cdppl	4, 12, cr0, cr7, cr0, {0}
    10e4:	04000000 	streq	r0, [r0], #-0
    10e8:	23021601 	movwcs	r1, #9729	; 0x2601
    10ec:	64530c00 	ldrbvs	r0, [r3], #-3072	; 0xc00
    10f0:	c8040032 	stmdagt	r4, {r1, r4, r5}
    10f4:	0000005e 	andeq	r0, r0, lr, asr r0
    10f8:	02150104 	andseq	r0, r5, #1
    10fc:	530c0023 	movwpl	r0, #49187	; 0xc023
    1100:	04003364 	streq	r3, [r0], #-868	; 0x364
    1104:	00005ec9 	andeq	r5, r0, r9, asr #29
    1108:	14010400 	strne	r0, [r1], #-1024	; 0x400
    110c:	0b002302 	bleq	9d1c <__bss_end+0x6e94>
    1110:	00001186 	andeq	r1, r0, r6, lsl #3
    1114:	005eca04 	subseq	ip, lr, r4, lsl #20
    1118:	01040000 	mrseq	r0, (UNDEF: 4)
    111c:	00230213 	eoreq	r0, r3, r3, lsl r2
    1120:	0011800b 	andseq	r8, r1, fp
    1124:	5ecb0400 	cdppl	4, 12, cr0, cr11, cr0, {0}
    1128:	04000000 	streq	r0, [r0], #-0
    112c:	23021201 	movwcs	r1, #8705	; 0x2201
    1130:	0afa0b00 	beq	ffe83d38 <__bss_end+0xffe80eb0>
    1134:	cc040000 	stcgt	0, cr0, [r4], {-0}
    1138:	0000005e 	andeq	r0, r0, lr, asr r0
    113c:	02110104 	andseq	r0, r1, #1
    1140:	3c0b0023 	stccc	0, cr0, [fp], {35}	; 0x23
    1144:	0400000e 	streq	r0, [r0], #-14
    1148:	00005ecd 	andeq	r5, r0, sp, asr #29
    114c:	0f020400 	svceq	0x00020400
    1150:	0b002302 	bleq	9d60 <__bss_end+0x6ed8>
    1154:	000006d7 	ldrdeq	r0, [r0], -r7
    1158:	005ece04 	subseq	ip, lr, r4, lsl #28
    115c:	01040000 	mrseq	r0, (UNDEF: 4)
    1160:	0023020e 	eoreq	r0, r3, lr, lsl #4
    1164:	0073540c 	rsbseq	r5, r3, ip, lsl #8
    1168:	005ecf04 	subseq	ip, lr, r4, lsl #30
    116c:	01040000 	mrseq	r0, (UNDEF: 4)
    1170:	0023020d 	eoreq	r0, r3, sp, lsl #4
    1174:	000ed10b 	andeq	sp, lr, fp, lsl #2
    1178:	5ed00400 	cdppl	4, 13, cr0, cr0, cr0, {0}
    117c:	04000000 	streq	r0, [r0], #-0
    1180:	23020c01 	movwcs	r0, #11265	; 0x2c01
    1184:	0eec0b00 	vfmaeq.f64	d16, d12, d0
    1188:	d1040000 	mrsle	r0, (UNDEF: 4)
    118c:	0000005e 	andeq	r0, r0, lr, asr r0
    1190:	020b0104 	andeq	r0, fp, #1
    1194:	f10b0023 			; <UNDEFINED> instruction: 0xf10b0023
    1198:	0400000e 	streq	r0, [r0], #-14
    119c:	00005ed2 	ldrdeq	r5, [r0], -r2
    11a0:	0a010400 	beq	421a8 <__bss_end+0x3f320>
    11a4:	0b002302 	bleq	9db4 <__bss_end+0x6f2c>
    11a8:	00000ef6 	strdeq	r0, [r0], -r6
    11ac:	005ed304 	subseq	sp, lr, r4, lsl #6
    11b0:	01040000 	mrseq	r0, (UNDEF: 4)
    11b4:	00230209 	eoreq	r0, r3, r9, lsl #4
    11b8:	000d540b 	andeq	r5, sp, fp, lsl #8
    11bc:	5ed40400 	cdppl	4, 13, cr0, cr4, cr0, {0}
    11c0:	04000000 	streq	r0, [r0], #-0
    11c4:	23020801 	movwcs	r0, #10241	; 0x2801
    11c8:	744f0c00 	strbvc	r0, [pc], #-3072	; 11d0 <set_ttbr0+0x4>
    11cc:	d5040067 	strle	r0, [r4, #-103]	; 0x67
    11d0:	0000005e 	andeq	r0, r0, lr, asr r0
    11d4:	02070104 	andeq	r0, r7, #1
    11d8:	460b0023 	strmi	r0, [fp], -r3, lsr #32
    11dc:	0400000e 	streq	r0, [r0], #-14
    11e0:	00005ed6 	ldrdeq	r5, [r0], -r6
    11e4:	06010400 	streq	r0, [r1], -r0, lsl #8
    11e8:	0b002302 	bleq	9df8 <__bss_end+0x6f70>
    11ec:	000004c5 	andeq	r0, r0, r5, asr #9
    11f0:	005ed704 	subseq	sp, lr, r4, lsl #14
    11f4:	01040000 	mrseq	r0, (UNDEF: 4)
    11f8:	00230205 	eoreq	r0, r3, r5, lsl #4
    11fc:	0004cb0b 	andeq	ip, r4, fp, lsl #22
    1200:	5ed80400 	cdppl	4, 13, cr0, cr8, cr0, {0}
    1204:	04000000 	streq	r0, [r0], #-0
    1208:	23020401 	movwcs	r0, #9217	; 0x2401
    120c:	0e500b00 	vnmlseq.f64	d16, d0, d0
    1210:	d9040000 	stmdble	r4, {}	; <UNPREDICTABLE>
    1214:	0000005e 	andeq	r0, r0, lr, asr r0
    1218:	02030104 	andeq	r0, r3, #1
    121c:	970b0023 	strls	r0, [fp, -r3, lsr #32]
    1220:	0400000c 	streq	r0, [r0], #-12
    1224:	00005eda 	ldrdeq	r5, [r0], -sl
    1228:	02010400 	andeq	r0, r1, #0
    122c:	0b002302 	bleq	9e3c <__bss_end+0x6fb4>
    1230:	00000c9d 	muleq	r0, sp, ip
    1234:	005edb04 	subseq	sp, lr, r4, lsl #22
    1238:	01040000 	mrseq	r0, (UNDEF: 4)
    123c:	00230201 	eoreq	r0, r3, r1, lsl #4
    1240:	000ca30b 	andeq	sl, ip, fp, lsl #6
    1244:	5edc0400 	cdppl	4, 13, cr0, cr12, cr0, {0}
    1248:	04000000 	streq	r0, [r0], #-0
    124c:	23020001 	movwcs	r0, #8193	; 0x2001
    1250:	9d030000 	stcls	0, cr0, [r3, #-0]
    1254:	04000002 	streq	r0, [r0], #-2
    1258:	000aaedd 	ldrdeq	sl, [sl], -sp
    125c:	038c0500 	orreq	r0, ip, #0
    1260:	04040000 	streq	r0, [r4], #-0
    1264:	000e65e0 	andeq	r6, lr, r0, ror #11
    1268:	65560c00 	ldrbvs	r0, [r6, #-3072]	; 0xc00
    126c:	5ee20400 	cdppl	4, 14, cr0, cr2, cr0, {0}
    1270:	04000000 	streq	r0, [r0], #-0
    1274:	23021f01 	movwcs	r1, #12033	; 0x2f01
    1278:	0e280b00 	vmuleq.f64	d0, d8, d0
    127c:	e3040000 	movw	r0, #16384	; 0x4000
    1280:	0000005e 	andeq	r0, r0, lr, asr r0
    1284:	021c0304 	andseq	r0, ip, #268435456	; 0x10000000
    1288:	8a0b0023 	bhi	2c131c <__bss_end+0x2be494>
    128c:	0400000a 	streq	r0, [r0], #-10
    1290:	00005ee4 	andeq	r5, r0, r4, ror #29
    1294:	1b010400 	blne	4229c <__bss_end+0x3f414>
    1298:	0b002302 	bleq	9ea8 <__bss_end+0x7020>
    129c:	00000c88 	andeq	r0, r0, r8, lsl #25
    12a0:	005ee504 	subseq	lr, lr, r4, lsl #10
    12a4:	01040000 	mrseq	r0, (UNDEF: 4)
    12a8:	0023021a 	eoreq	r0, r3, sl, lsl r2
    12ac:	000e320b 	andeq	r3, lr, fp, lsl #4
    12b0:	5ee60400 	cdppl	4, 14, cr0, cr6, cr0, {0}
    12b4:	04000000 	streq	r0, [r0], #-0
    12b8:	23021802 	movwcs	r1, #10242	; 0x2802
    12bc:	0ea30b00 	vfmaeq.f64	d0, d3, d0
    12c0:	e7040000 	str	r0, [r4, -r0]
    12c4:	0000005e 	andeq	r0, r0, lr, asr r0
    12c8:	02170104 	andseq	r0, r7, #1
    12cc:	a80b0023 	stmdage	fp, {r0, r1, r5}
    12d0:	0400000e 	streq	r0, [r0], #-14
    12d4:	00005ee8 	andeq	r5, r0, r8, ror #29
    12d8:	16010400 	strne	r0, [r1], -r0, lsl #8
    12dc:	0b002302 	bleq	9eec <__bss_end+0x7064>
    12e0:	00000e3c 	andeq	r0, r0, ip, lsr lr
    12e4:	005ee904 	subseq	lr, lr, r4, lsl #18
    12e8:	01040000 	mrseq	r0, (UNDEF: 4)
    12ec:	00230215 	eoreq	r0, r3, r5, lsl r2
    12f0:	0003430b 	andeq	r4, r3, fp, lsl #6
    12f4:	5eea0400 	cdppl	4, 14, cr0, cr10, cr0, {0}
    12f8:	04000000 	streq	r0, [r0], #-0
    12fc:	23021401 	movwcs	r1, #9217	; 0x2401
    1300:	65420c00 	strbvs	r0, [r2, #-3072]	; 0xc00
    1304:	eb040030 	bl	1013cc <__bss_end+0xfe544>
    1308:	0000005e 	andeq	r0, r0, lr, asr r0
    130c:	02130104 	andseq	r0, r3, #1
    1310:	420c0023 	andmi	r0, ip, #35	; 0x23
    1314:	04003165 	streq	r3, [r0], #-357	; 0x165
    1318:	00005eec 	andeq	r5, r0, ip, ror #29
    131c:	12010400 	andne	r0, r1, #0
    1320:	0c002302 	stceq	3, cr2, [r0], {2}
    1324:	00306546 	eorseq	r6, r0, r6, asr #10
    1328:	005eed04 	subseq	lr, lr, r4, lsl #26
    132c:	01040000 	mrseq	r0, (UNDEF: 4)
    1330:	00230211 	eoreq	r0, r3, r1, lsl r2
    1334:	3165460c 	cmncc	r5, ip, lsl #12
    1338:	5eee0400 	cdppl	4, 14, cr0, cr14, cr0, {0}
    133c:	04000000 	streq	r0, [r0], #-0
    1340:	23021001 	movwcs	r1, #8193	; 0x2001
    1344:	0e460b00 	vmlaeq.f64	d16, d6, d0
    1348:	ef040000 	svc	0x00040000
    134c:	0000005e 	andeq	r0, r0, lr, asr r0
    1350:	020e0204 	andeq	r0, lr, #1073741824	; 0x40000000
    1354:	4d0c0023 	stcmi	0, cr0, [ip, #-140]	; 0xffffff74
    1358:	f0040070 			; <UNDEFINED> instruction: 0xf0040070
    135c:	0000005e 	andeq	r0, r0, lr, asr r0
    1360:	020d0104 	andeq	r0, sp, #1
    1364:	500b0023 	andpl	r0, fp, r3, lsr #32
    1368:	0400000e 	streq	r0, [r0], #-14
    136c:	00005ef1 	strdeq	r5, [r0], -r1
    1370:	0c010400 	cfstrseq	mvf0, [r1], {-0}
    1374:	0c002302 	stceq	3, cr2, [r0], {2}
    1378:	00757047 	rsbseq	r7, r5, r7, asr #32
    137c:	005ef204 	subseq	pc, lr, r4, lsl #4
    1380:	01040000 	mrseq	r0, (UNDEF: 4)
    1384:	0023020b 	eoreq	r0, r3, fp, lsl #4
    1388:	0003ad0b 	andeq	sl, r3, fp, lsl #26
    138c:	5ef30400 	cdppl	4, 15, cr0, cr3, cr0, {0}
    1390:	04000000 	streq	r0, [r0], #-0
    1394:	23020a01 	movwcs	r0, #10753	; 0x2a01
    1398:	0ed70b00 	vfnmseq.f64	d16, d7, d0
    139c:	f4040000 	vst4.8	{d0-d3}, [r4], r0
    13a0:	0000005e 	andeq	r0, r0, lr, asr r0
    13a4:	02090104 	andeq	r0, r9, #1
    13a8:	5d0b0023 	stcpl	0, cr0, [fp, #-140]	; 0xffffff74
    13ac:	04000008 	streq	r0, [r0], #-8
    13b0:	00005ef5 	strdeq	r5, [r0], -r5	; <UNPREDICTABLE>
    13b4:	08010400 	stmdaeq	r1, {sl}
    13b8:	0b002302 	bleq	9fc8 <__bss_end+0x7140>
    13bc:	00000865 	andeq	r0, r0, r5, ror #16
    13c0:	005ef604 	subseq	pc, lr, r4, lsl #12
    13c4:	01040000 	mrseq	r0, (UNDEF: 4)
    13c8:	00230207 	eoreq	r0, r3, r7, lsl #4
    13cc:	00080b0b 	andeq	r0, r8, fp, lsl #22
    13d0:	5ef70400 	cdppl	4, 15, cr0, cr7, cr0, {0}
    13d4:	04000000 	streq	r0, [r0], #-0
    13d8:	23020601 	movwcs	r0, #9729	; 0x2601
    13dc:	08130b00 	ldmdaeq	r3, {r8, r9, fp}
    13e0:	f8040000 			; <UNDEFINED> instruction: 0xf8040000
    13e4:	0000005e 	andeq	r0, r0, lr, asr r0
    13e8:	02050104 	andeq	r0, r5, #1
    13ec:	b30b0023 	movwlt	r0, #45091	; 0xb023
    13f0:	04000005 	streq	r0, [r0], #-5
    13f4:	00005ef9 	strdeq	r5, [r0], -r9
    13f8:	04010400 	streq	r0, [r1], #-1024	; 0x400
    13fc:	0b002302 	bleq	a00c <__bss_end+0x7184>
    1400:	00000e5a 	andeq	r0, r0, sl, asr lr
    1404:	005efa04 	subseq	pc, lr, r4, lsl #20
    1408:	04040000 	streq	r0, [r4], #-0
    140c:	00230200 	eoreq	r0, r3, r0, lsl #4
    1410:	0a6e0300 	beq	1b82018 <__bss_end+0x1b7f190>
    1414:	fb040000 	blx	10141e <__bss_end+0xfe596>
    1418:	00000cb1 			; <UNDEFINED> instruction: 0x00000cb1
    141c:	00076705 	andeq	r6, r7, r5, lsl #14
    1420:	fe040400 	cdp2	4, 0, cr0, cr4, cr0, {0}
    1424:	00000f1f 	andeq	r0, r0, pc, lsl pc
    1428:	0009720d 	andeq	r7, r9, sp, lsl #4
    142c:	01000400 	tsteq	r0, r0, lsl #8
    1430:	0000005e 	andeq	r0, r0, lr, asr r0
    1434:	021f0104 	andseq	r0, pc, #1
    1438:	e40d0023 	str	r0, [sp], #-35	; 0x23
    143c:	04000007 	streq	r0, [r0], #-7
    1440:	005e0101 	subseq	r0, lr, r1, lsl #2
    1444:	01040000 	mrseq	r0, (UNDEF: 4)
    1448:	0023021e 	eoreq	r0, r3, lr, lsl r2
    144c:	000e280d 	andeq	r2, lr, sp, lsl #16
    1450:	01020400 	tsteq	r2, r0, lsl #8
    1454:	0000005e 	andeq	r0, r0, lr, asr r0
    1458:	021c0204 	andseq	r0, ip, #1073741824	; 0x40000000
    145c:	ff0d0023 			; <UNDEFINED> instruction: 0xff0d0023
    1460:	04000002 	streq	r0, [r0], #-2
    1464:	005e0103 	subseq	r0, lr, r3, lsl #2
    1468:	01040000 	mrseq	r0, (UNDEF: 4)
    146c:	0023021b 	eoreq	r0, r3, fp, lsl r2
    1470:	6f69500e 	svcvs	0x0069500e
    1474:	01040400 	tsteq	r4, r0, lsl #8
    1478:	0000005e 	andeq	r0, r0, lr, asr r0
    147c:	021a0104 	andseq	r0, sl, #1
    1480:	320d0023 	andcc	r0, sp, #35	; 0x23
    1484:	0400000e 	streq	r0, [r0], #-14
    1488:	005e0105 	subseq	r0, lr, r5, lsl #2
    148c:	06040000 	streq	r0, [r4], -r0
    1490:	00230214 	eoreq	r0, r3, r4, lsl r2
    1494:	0010c50d 	andseq	ip, r0, sp, lsl #10
    1498:	01060400 	tsteq	r6, r0, lsl #8
    149c:	0000005e 	andeq	r0, r0, lr, asr r0
    14a0:	02130104 	andseq	r0, r3, #1
    14a4:	a30d0023 	movwge	r0, #53283	; 0xd023
    14a8:	04000004 	streq	r0, [r0], #-4
    14ac:	005e0107 	subseq	r0, lr, r7, lsl #2
    14b0:	01040000 	mrseq	r0, (UNDEF: 4)
    14b4:	00230212 	eoreq	r0, r3, r2, lsl r2
    14b8:	000e3c0d 	andeq	r3, lr, sp, lsl #24
    14bc:	01080400 	tsteq	r8, r0, lsl #8
    14c0:	0000005e 	andeq	r0, r0, lr, asr r0
    14c4:	02001204 	andeq	r1, r0, #1073741824	; 0x40000000
    14c8:	0f000023 	svceq	0x00000023
    14cc:	000003b4 			; <UNDEFINED> instruction: 0x000003b4
    14d0:	70010904 	andvc	r0, r1, r4, lsl #18
    14d4:	1000000e 	andne	r0, r0, lr
    14d8:	00000714 	andeq	r0, r0, r4, lsl r7
    14dc:	010c0404 	tsteq	ip, r4, lsl #8
    14e0:	00001011 	andeq	r1, r0, r1, lsl r0
    14e4:	0005730d 	andeq	r7, r5, sp, lsl #6
    14e8:	010e0400 	tsteq	lr, r0, lsl #8
    14ec:	0000005e 	andeq	r0, r0, lr, asr r0
    14f0:	021f0104 	andseq	r0, pc, #1
    14f4:	780d0023 	stmdavc	sp, {r0, r1, r5}
    14f8:	04000005 	streq	r0, [r0], #-5
    14fc:	005e010f 	subseq	r0, lr, pc, lsl #2
    1500:	01040000 	mrseq	r0, (UNDEF: 4)
    1504:	0023021e 	eoreq	r0, r3, lr, lsl r2
    1508:	00057d0d 	andeq	r7, r5, sp, lsl #26
    150c:	01100400 	tsteq	r0, r0, lsl #8
    1510:	0000005e 	andeq	r0, r0, lr, asr r0
    1514:	021d0104 	andseq	r0, sp, #1
    1518:	820d0023 	andhi	r0, sp, #35	; 0x23
    151c:	04000005 	streq	r0, [r0], #-5
    1520:	005e0111 	subseq	r0, lr, r1, lsl r1
    1524:	01040000 	mrseq	r0, (UNDEF: 4)
    1528:	0023021c 	eoreq	r0, r3, ip, lsl r2
    152c:	000e280d 	andeq	r2, lr, sp, lsl #16
    1530:	01120400 	tsteq	r2, r0, lsl #8
    1534:	0000005e 	andeq	r0, r0, lr, asr r0
    1538:	02100c04 	andseq	r0, r0, #1024	; 0x400
    153c:	270d0023 	strcs	r0, [sp, -r3, lsr #32]
    1540:	0400000b 	streq	r0, [r0], #-11
    1544:	005e0113 	subseq	r0, lr, r3, lsl r1
    1548:	01040000 	mrseq	r0, (UNDEF: 4)
    154c:	0023020f 	eoreq	r0, r3, pc, lsl #4
    1550:	000f320d 	andeq	r3, pc, sp, lsl #4
    1554:	01140400 	tsteq	r4, r0, lsl #8
    1558:	0000005e 	andeq	r0, r0, lr, asr r0
    155c:	020e0104 	andeq	r0, lr, #1
    1560:	3d0d0023 	stccc	0, cr0, [sp, #-140]	; 0xffffff74
    1564:	0400000f 	streq	r0, [r0], #-15
    1568:	005e0115 	subseq	r0, lr, r5, lsl r1
    156c:	01040000 	mrseq	r0, (UNDEF: 4)
    1570:	0023020d 	eoreq	r0, r3, sp, lsl #4
    1574:	0005870d 	andeq	r8, r5, sp, lsl #14
    1578:	01160400 	tsteq	r6, r0, lsl #8
    157c:	0000005e 	andeq	r0, r0, lr, asr r0
    1580:	020c0104 	andeq	r0, ip, #1
    1584:	8d0d0023 	stchi	0, cr0, [sp, #-140]	; 0xffffff74
    1588:	04000005 	streq	r0, [r0], #-5
    158c:	005e0117 	subseq	r0, lr, r7, lsl r1
    1590:	01040000 	mrseq	r0, (UNDEF: 4)
    1594:	0023020b 	eoreq	r0, r3, fp, lsl #4
    1598:	0005930d 	andeq	r9, r5, sp, lsl #6
    159c:	01180400 	tsteq	r8, r0, lsl #8
    15a0:	0000005e 	andeq	r0, r0, lr, asr r0
    15a4:	020a0104 	andeq	r0, sl, #1
    15a8:	320d0023 	andcc	r0, sp, #35	; 0x23
    15ac:	0400000e 	streq	r0, [r0], #-14
    15b0:	005e0119 	subseq	r0, lr, r9, lsl r1
    15b4:	0a040000 	beq	1015bc <__bss_end+0xfe734>
    15b8:	00230200 	eoreq	r0, r3, r0, lsl #4
    15bc:	09410f00 	stmdbeq	r1, {r8, r9, sl, fp}^
    15c0:	1a040000 	bne	1015c8 <__bss_end+0xfe740>
    15c4:	000f2b01 	andeq	r2, pc, r1, lsl #22
    15c8:	0ac71000 	beq	ff1c55d0 <__bss_end+0xff1c2748>
    15cc:	04040000 	streq	r0, [r4], #-0
    15d0:	10f1011e 	rscsne	r0, r1, lr, lsl r1
    15d4:	800d0000 	andhi	r0, sp, r0
    15d8:	04000007 	streq	r0, [r0], #-7
    15dc:	005e0120 	subseq	r0, lr, r0, lsr #2
    15e0:	04040000 	streq	r0, [r4], #-0
    15e4:	0023021c 	eoreq	r0, r3, ip, lsl r2
    15e8:	000e280d 	andeq	r2, lr, sp, lsl #16
    15ec:	01210400 	teqeq	r1, r0, lsl #8
    15f0:	0000005e 	andeq	r0, r0, lr, asr r0
    15f4:	02180404 	andseq	r0, r8, #67108864	; 0x4000000
    15f8:	a60d0023 	strge	r0, [sp], -r3, lsr #32
    15fc:	04000009 	streq	r0, [r0], #-9
    1600:	005e0122 	subseq	r0, lr, r2, lsr #2
    1604:	03040000 	movweq	r0, #16384	; 0x4000
    1608:	00230215 	eoreq	r0, r3, r5, lsl r2
    160c:	000e320d 	andeq	r3, lr, sp, lsl #4
    1610:	01230400 	teqeq	r3, r0, lsl #8
    1614:	0000005e 	andeq	r0, r0, lr, asr r0
    1618:	02100504 	andseq	r0, r0, #16777216	; 0x1000000
    161c:	850d0023 	strhi	r0, [sp, #-35]	; 0x23
    1620:	04000007 	streq	r0, [r0], #-7
    1624:	005e0124 	subseq	r0, lr, r4, lsr #2
    1628:	02040000 	andeq	r0, r4, #0
    162c:	0023020e 	eoreq	r0, r3, lr, lsl #4
    1630:	000e3c0d 	andeq	r3, lr, sp, lsl #24
    1634:	01250400 	teqeq	r5, r0, lsl #8
    1638:	0000005e 	andeq	r0, r0, lr, asr r0
    163c:	020c0204 	andeq	r0, ip, #1073741824	; 0x40000000
    1640:	a80d0023 	stmdage	sp, {r0, r1, r5}
    1644:	04000004 	streq	r0, [r0], #-4
    1648:	005e0126 	subseq	r0, lr, r6, lsr #2
    164c:	03040000 	movweq	r0, #16384	; 0x4000
    1650:	00230209 	eoreq	r0, r3, r9, lsl #4
    1654:	000e460d 	andeq	r4, lr, sp, lsl #12
    1658:	01270400 	teqeq	r7, r0, lsl #8
    165c:	0000005e 	andeq	r0, r0, lr, asr r0
    1660:	02080104 	andeq	r0, r8, #1
    1664:	6d0d0023 	stcvs	0, cr0, [sp, #-140]	; 0xffffff74
    1668:	0400000f 	streq	r0, [r0], #-15
    166c:	005e0128 	subseq	r0, lr, r8, lsr #2
    1670:	03040000 	movweq	r0, #16384	; 0x4000
    1674:	00230205 	eoreq	r0, r3, r5, lsl #4
    1678:	000e500d 	andeq	r5, lr, sp
    167c:	01290400 	teqeq	r9, r0, lsl #8
    1680:	0000005e 	andeq	r0, r0, lr, asr r0
    1684:	02010404 	andeq	r0, r1, #67108864	; 0x4000000
    1688:	a70d0023 	strge	r0, [sp, -r3, lsr #32]
    168c:	04000007 	streq	r0, [r0], #-7
    1690:	005e012a 	subseq	r0, lr, sl, lsr #2
    1694:	01040000 	mrseq	r0, (UNDEF: 4)
    1698:	00230200 	eoreq	r0, r3, r0, lsl #4
    169c:	0d590f00 	ldcleq	15, cr0, [r9, #-0]
    16a0:	2b040000 	blcs	1016a8 <__bss_end+0xfe820>
    16a4:	00101d01 	andseq	r1, r0, r1, lsl #26
    16a8:	04ef1000 	strbteq	r1, [pc], #0	; 16b0 <strlen+0x14>
    16ac:	04040000 	streq	r0, [r4], #-0
    16b0:	1153012f 	cmpne	r3, pc, lsr #2
    16b4:	280d0000 	stmdacs	sp, {}	; <UNPREDICTABLE>
    16b8:	0400000e 	streq	r0, [r0], #-14
    16bc:	005e0131 	subseq	r0, lr, r1, lsr r1
    16c0:	10040000 	andne	r0, r4, r0
    16c4:	00230210 	eoreq	r0, r3, r0, lsl r2
    16c8:	000f6d0d 	andeq	r6, pc, sp, lsl #26
    16cc:	01320400 	teqeq	r2, r0, lsl #8
    16d0:	0000005e 	andeq	r0, r0, lr, asr r0
    16d4:	020e0204 	andeq	r0, lr, #1073741824	; 0x40000000
    16d8:	320d0023 	andcc	r0, sp, #35	; 0x23
    16dc:	0400000e 	streq	r0, [r0], #-14
    16e0:	005e0133 	subseq	r0, lr, r3, lsr r1
    16e4:	0d040000 	stceq	0, cr0, [r4, #-0]
    16e8:	00230201 	eoreq	r0, r3, r1, lsl #4
    16ec:	0007a70d 	andeq	sl, r7, sp, lsl #14
    16f0:	01340400 	teqeq	r4, r0, lsl #8
    16f4:	0000005e 	andeq	r0, r0, lr, asr r0
    16f8:	02000104 	andeq	r0, r0, #1
    16fc:	0f000023 	svceq	0x00000023
    1700:	000006e8 	andeq	r0, r0, r8, ror #13
    1704:	fd013604 	stc2	6, cr3, [r1, #-16]
    1708:	10000010 	andne	r0, r0, r0, lsl r0
    170c:	00000e8c 	andeq	r0, r0, ip, lsl #29
    1710:	013a0404 	teqeq	sl, r4, lsl #8
    1714:	00001191 	muleq	r0, r1, r1
    1718:	000e280d 	andeq	r2, lr, sp, lsl #16
    171c:	013c0400 	teqeq	ip, r0, lsl #8
    1720:	0000005e 	andeq	r0, r0, lr, asr r0
    1724:	02011f04 	andeq	r1, r1, #16
    1728:	a70d0023 	strge	r0, [sp, -r3, lsr #32]
    172c:	04000007 	streq	r0, [r0], #-7
    1730:	005e013d 	subseq	r0, lr, sp, lsr r1
    1734:	01040000 	mrseq	r0, (UNDEF: 4)
    1738:	00230200 	eoreq	r0, r3, r0, lsl #4
    173c:	118c0f00 	orrne	r0, ip, r0, lsl #30
    1740:	3f040000 	svccc	0x00040000
    1744:	00115f01 	andseq	r5, r1, r1, lsl #30
    1748:	09e91000 	stmibeq	r9!, {ip}^
    174c:	04040000 	streq	r0, [r4], #-0
    1750:	12830142 	addne	r0, r3, #-2147483632	; 0x80000010
    1754:	ea0d0000 	b	34175c <__bss_end+0x33e8d4>
    1758:	04000007 	streq	r0, [r0], #-7
    175c:	005e0144 	subseq	r0, lr, r4, asr #2
    1760:	01040000 	mrseq	r0, (UNDEF: 4)
    1764:	0023021f 	eoreq	r0, r3, pc, lsl r2
    1768:	000fcc0d 	andeq	ip, pc, sp, lsl #24
    176c:	01450400 	cmpeq	r5, r0, lsl #8
    1770:	0000005e 	andeq	r0, r0, lr, asr r0
    1774:	021e0104 	andseq	r0, lr, #1
    1778:	8f0d0023 	svchi	0x000d0023
    177c:	0400000a 	streq	r0, [r0], #-10
    1780:	005e0146 	subseq	r0, lr, r6, asr #2
    1784:	01040000 	mrseq	r0, (UNDEF: 4)
    1788:	0023021d 	eoreq	r0, r3, sp, lsl r2
    178c:	000e280d 	andeq	r2, lr, sp, lsl #16
    1790:	01470400 	cmpeq	r7, r0, lsl #8
    1794:	0000005e 	andeq	r0, r0, lr, asr r0
    1798:	02180504 	andseq	r0, r8, #16777216	; 0x1000000
    179c:	350d0023 	strcc	r0, [sp, #-35]	; 0x23
    17a0:	04000007 	streq	r0, [r0], #-7
    17a4:	005e0148 	subseq	r0, lr, r8, asr #2
    17a8:	01040000 	mrseq	r0, (UNDEF: 4)
    17ac:	00230217 	eoreq	r0, r3, r7, lsl r2
    17b0:	00104c0d 	andseq	r4, r0, sp, lsl #24
    17b4:	01490400 	cmpeq	r9, r0, lsl #8
    17b8:	0000005e 	andeq	r0, r0, lr, asr r0
    17bc:	02160104 	andseq	r0, r6, #1
    17c0:	ac0d0023 	stcge	0, cr0, [sp], {35}	; 0x23
    17c4:	0400000b 	streq	r0, [r0], #-11
    17c8:	005e014a 	subseq	r0, lr, sl, asr #2
    17cc:	01040000 	mrseq	r0, (UNDEF: 4)
    17d0:	00230215 	eoreq	r0, r3, r5, lsl r2
    17d4:	000e320d 	andeq	r3, lr, sp, lsl #4
    17d8:	014b0400 	cmpeq	fp, r0, lsl #8
    17dc:	0000005e 	andeq	r0, r0, lr, asr r0
    17e0:	02100504 	andseq	r0, r0, #16777216	; 0x1000000
    17e4:	9a0d0023 	bls	341878 <__bss_end+0x33e9f0>
    17e8:	0400000a 	streq	r0, [r0], #-10
    17ec:	005e014c 	subseq	r0, lr, ip, asr #2
    17f0:	01040000 	mrseq	r0, (UNDEF: 4)
    17f4:	0023020f 	eoreq	r0, r3, pc, lsl #4
    17f8:	0007fe0d 	andeq	pc, r7, sp, lsl #28
    17fc:	014d0400 	cmpeq	sp, r0, lsl #8
    1800:	0000005e 	andeq	r0, r0, lr, asr r0
    1804:	020e0104 	andeq	r0, lr, #1
    1808:	5f0d0023 	svcpl	0x000d0023
    180c:	04000011 	streq	r0, [r0], #-17
    1810:	005e014e 	subseq	r0, lr, lr, asr #2
    1814:	01040000 	mrseq	r0, (UNDEF: 4)
    1818:	0023020d 	eoreq	r0, r3, sp, lsl #4
    181c:	000e3c0d 	andeq	r3, lr, sp, lsl #24
    1820:	014f0400 	cmpeq	pc, r0, lsl #8
    1824:	0000005e 	andeq	r0, r0, lr, asr r0
    1828:	02000d04 	andeq	r0, r0, #256	; 0x100
    182c:	0f000023 	svceq	0x00000023
    1830:	00000659 	andeq	r0, r0, r9, asr r6
    1834:	9d015004 	stcls	0, cr5, [r1, #-16]
    1838:	10000011 	andne	r0, r0, r1, lsl r0
    183c:	000005f1 	strdeq	r0, [r0], -r1
    1840:	01530404 	cmpeq	r3, r4, lsl #8
    1844:	00001309 	andeq	r1, r0, r9, lsl #6
    1848:	00053b0d 	andeq	r3, r5, sp, lsl #22
    184c:	01550400 	cmpeq	r5, r0, lsl #8
    1850:	0000005e 	andeq	r0, r0, lr, asr r0
    1854:	021e0204 	andseq	r0, lr, #1073741824	; 0x40000000
    1858:	170d0023 	strne	r0, [sp, -r3, lsr #32]
    185c:	04000011 	streq	r0, [r0], #-17
    1860:	005e0157 	subseq	r0, lr, r7, asr r1
    1864:	01040000 	mrseq	r0, (UNDEF: 4)
    1868:	0023021d 	eoreq	r0, r3, sp, lsl r2
    186c:	000d1a0d 	andeq	r1, sp, sp, lsl #20
    1870:	01580400 	cmpeq	r8, r0, lsl #8
    1874:	0000005e 	andeq	r0, r0, lr, asr r0
    1878:	021c0104 	andseq	r0, ip, #1
    187c:	f80d0023 			; <UNDEFINED> instruction: 0xf80d0023
    1880:	0400000b 	streq	r0, [r0], #-11
    1884:	005e0159 	subseq	r0, lr, r9, asr r1
    1888:	01040000 	mrseq	r0, (UNDEF: 4)
    188c:	0023021b 	eoreq	r0, r3, fp, lsl r2
    1890:	00070e0d 	andeq	r0, r7, sp, lsl #28
    1894:	015a0400 	cmpeq	sl, r0, lsl #8
    1898:	0000005e 	andeq	r0, r0, lr, asr r0
    189c:	02180304 	andseq	r0, r8, #268435456	; 0x10000000
    18a0:	280d0023 	stmdacs	sp, {r0, r1, r5}
    18a4:	0400000e 	streq	r0, [r0], #-14
    18a8:	005e015b 	subseq	r0, lr, fp, asr r1
    18ac:	18040000 	stmdane	r4, {}	; <UNPREDICTABLE>
    18b0:	00230200 	eoreq	r0, r3, r0, lsl #4
    18b4:	09270f00 	stmdbeq	r7!, {r8, r9, sl, fp}
    18b8:	5c040000 	stcpl	0, cr0, [r4], {-0}
    18bc:	00128f01 	andseq	r8, r2, r1, lsl #30
    18c0:	0d201000 	stceq	0, cr1, [r0, #-0]
    18c4:	04040000 	streq	r0, [r4], #-0
    18c8:	13c5015f 	bicne	r0, r5, #-1073741801	; 0xc0000017
    18cc:	e50d0000 	str	r0, [sp, #-0]
    18d0:	0400000a 	streq	r0, [r0], #-10
    18d4:	005e0161 	subseq	r0, lr, r1, ror #2
    18d8:	04040000 	streq	r0, [r4], #-0
    18dc:	0023021c 	eoreq	r0, r3, ip, lsl r2
    18e0:	0008a20d 	andeq	sl, r8, sp, lsl #4
    18e4:	01620400 	cmneq	r2, r0, lsl #8
    18e8:	0000005e 	andeq	r0, r0, lr, asr r0
    18ec:	021b0104 	andseq	r0, fp, #1
    18f0:	280d0023 	stmdacs	sp, {r0, r1, r5}
    18f4:	0400000e 	streq	r0, [r0], #-14
    18f8:	005e0163 	subseq	r0, lr, r3, ror #2
    18fc:	03040000 	movweq	r0, #16384	; 0x4000
    1900:	00230218 	eoreq	r0, r3, r8, lsl r2
    1904:	000fa00d 	andeq	sl, pc, sp
    1908:	01640400 	cmneq	r4, r0, lsl #8
    190c:	0000005e 	andeq	r0, r0, lr, asr r0
    1910:	02140404 	andseq	r0, r4, #67108864	; 0x4000000
    1914:	950d0023 	strls	r0, [sp, #-35]	; 0x23
    1918:	04000008 	streq	r0, [r0], #-8
    191c:	005e0165 	subseq	r0, lr, r5, ror #2
    1920:	01040000 	mrseq	r0, (UNDEF: 4)
    1924:	00230213 	eoreq	r0, r3, r3, lsl r2
    1928:	000e320d 	andeq	r3, lr, sp, lsl #4
    192c:	01660400 	cmneq	r6, r0, lsl #8
    1930:	0000005e 	andeq	r0, r0, lr, asr r0
    1934:	02100304 	andseq	r0, r0, #268435456	; 0x10000000
    1938:	150d0023 	strne	r0, [sp, #-35]	; 0x23
    193c:	0400000b 	streq	r0, [r0], #-11
    1940:	005e0167 	subseq	r0, lr, r7, ror #2
    1944:	01040000 	mrseq	r0, (UNDEF: 4)
    1948:	0023020f 	eoreq	r0, r3, pc, lsl #4
    194c:	000e3c0d 	andeq	r3, lr, sp, lsl #24
    1950:	01680400 	cmneq	r8, r0, lsl #8
    1954:	0000005e 	andeq	r0, r0, lr, asr r0
    1958:	02010e04 	andeq	r0, r1, #64	; 0x40
    195c:	940d0023 	strls	r0, [sp], #-35	; 0x23
    1960:	04000004 	streq	r0, [r0], #-4
    1964:	005e0169 	subseq	r0, lr, r9, ror #2
    1968:	01040000 	mrseq	r0, (UNDEF: 4)
    196c:	00230200 	eoreq	r0, r3, r0, lsl #4
    1970:	05990f00 	ldreq	r0, [r9, #3840]	; 0xf00
    1974:	6a040000 	bvs	10197c <__bss_end+0xfeaf4>
    1978:	00131501 	andseq	r1, r3, r1, lsl #10
    197c:	04001000 	streq	r1, [r0], #-0
    1980:	04040000 	streq	r0, [r4], #-0
    1984:	14fc016d 	ldrbtne	r0, [ip], #365	; 0x16d
    1988:	560e0000 	strpl	r0, [lr], -r0
    198c:	6f040065 	svcvs	0x00040065
    1990:	00005e01 	andeq	r5, r0, r1, lsl #28
    1994:	1f010400 	svcne	0x00010400
    1998:	0d002302 	stceq	3, cr2, [r0, #-8]
    199c:	00000555 	andeq	r0, r0, r5, asr r5
    19a0:	5e017004 	cdppl	0, 0, cr7, cr1, cr4, {0}
    19a4:	04000000 	streq	r0, [r0], #-0
    19a8:	23021e01 	movwcs	r1, #11777	; 0x2e01
    19ac:	0e280d00 	cdpeq	13, 2, cr0, cr8, cr0, {0}
    19b0:	71040000 	mrsvc	r0, (UNDEF: 4)
    19b4:	00005e01 	andeq	r5, r0, r1, lsl #28
    19b8:	1d010400 	cfstrsne	mvf0, [r1, #-0]
    19bc:	0e002302 	cdpeq	3, 0, cr2, cr0, cr2, {0}
    19c0:	04007354 	streq	r7, [r0], #-852	; 0x354
    19c4:	005e0172 	subseq	r0, lr, r2, ror r1
    19c8:	01040000 	mrseq	r0, (UNDEF: 4)
    19cc:	0023021c 	eoreq	r0, r3, ip, lsl r2
    19d0:	000e320d 	andeq	r3, lr, sp, lsl #4
    19d4:	01730400 	cmneq	r3, r0, lsl #8
    19d8:	0000005e 	andeq	r0, r0, lr, asr r0
    19dc:	02100c04 	andseq	r0, r0, #1024	; 0x400
    19e0:	0b0d0023 	bleq	341a74 <__bss_end+0x33ebec>
    19e4:	04000008 	streq	r0, [r0], #-8
    19e8:	005e0174 	subseq	r0, lr, r4, ror r1
    19ec:	01040000 	mrseq	r0, (UNDEF: 4)
    19f0:	0023020f 	eoreq	r0, r3, pc, lsl #4
    19f4:	0008130d 	andeq	r1, r8, sp, lsl #6
    19f8:	01750400 	cmneq	r5, r0, lsl #8
    19fc:	0000005e 	andeq	r0, r0, lr, asr r0
    1a00:	020e0104 	andeq	r0, lr, #1
    1a04:	5d0d0023 	stcpl	0, cr0, [sp, #-140]	; 0xffffff74
    1a08:	04000008 	streq	r0, [r0], #-8
    1a0c:	005e0176 	subseq	r0, lr, r6, ror r1
    1a10:	01040000 	mrseq	r0, (UNDEF: 4)
    1a14:	0023020d 	eoreq	r0, r3, sp, lsl #4
    1a18:	0008650d 	andeq	r6, r8, sp, lsl #10
    1a1c:	01770400 	cmneq	r7, r0, lsl #8
    1a20:	0000005e 	andeq	r0, r0, lr, asr r0
    1a24:	020c0104 	andeq	r0, ip, #1
    1a28:	3c0d0023 	stccc	0, cr0, [sp], {35}	; 0x23
    1a2c:	0400000e 	streq	r0, [r0], #-14
    1a30:	005e0178 	subseq	r0, lr, r8, ror r1
    1a34:	04040000 	streq	r0, [r4], #-0
    1a38:	00230208 	eoreq	r0, r3, r8, lsl #4
    1a3c:	3065460e 	rsbcc	r4, r5, lr, lsl #12
    1a40:	01790400 	cmneq	r9, r0, lsl #8
    1a44:	0000005e 	andeq	r0, r0, lr, asr r0
    1a48:	02070104 	andeq	r0, r7, #1
    1a4c:	460e0023 	strmi	r0, [lr], -r3, lsr #32
    1a50:	04003165 	streq	r3, [r0], #-357	; 0x165
    1a54:	005e017a 	subseq	r0, lr, sl, ror r1
    1a58:	01040000 	mrseq	r0, (UNDEF: 4)
    1a5c:	00230206 	eoreq	r0, r3, r6, lsl #4
    1a60:	3065420e 	rsbcc	r4, r5, lr, lsl #4
    1a64:	017b0400 	cmneq	fp, r0, lsl #8
    1a68:	0000005e 	andeq	r0, r0, lr, asr r0
    1a6c:	02050104 	andeq	r0, r5, #1
    1a70:	420e0023 	andmi	r0, lr, #35	; 0x23
    1a74:	04003165 	streq	r3, [r0], #-357	; 0x165
    1a78:	005e017c 	subseq	r0, lr, ip, ror r1
    1a7c:	01040000 	mrseq	r0, (UNDEF: 4)
    1a80:	00230204 	eoreq	r0, r3, r4, lsl #4
    1a84:	00704d0e 	rsbseq	r4, r0, lr, lsl #26
    1a88:	5e017d04 	cdppl	13, 0, cr7, cr1, cr4, {0}
    1a8c:	04000000 	streq	r0, [r0], #-0
    1a90:	23020301 	movwcs	r0, #8961	; 0x2301
    1a94:	0e460d00 	cdpeq	13, 4, cr0, cr6, cr0, {0}
    1a98:	7e040000 	cdpvc	0, 0, cr0, cr4, cr0, {0}
    1a9c:	00005e01 	andeq	r5, r0, r1, lsl #28
    1aa0:	00030400 	andeq	r0, r3, r0, lsl #8
    1aa4:	00002302 	andeq	r2, r0, r2, lsl #6
    1aa8:	0004190f 	andeq	r1, r4, pc, lsl #18
    1aac:	017f0400 	cmneq	pc, r0, lsl #8
    1ab0:	000013d1 	ldrdeq	r1, [r0], -r1	; <UNPREDICTABLE>
    1ab4:	000d3810 	andeq	r3, sp, r0, lsl r8
    1ab8:	83040400 	movwhi	r0, #17408	; 0x4400
    1abc:	00157001 	andseq	r7, r5, r1
    1ac0:	07800d00 	streq	r0, [r0, r0, lsl #26]
    1ac4:	85040000 	strhi	r0, [r4, #-0]
    1ac8:	00005e01 	andeq	r5, r0, r1, lsl #28
    1acc:	1c040400 	cfstrsne	mvf0, [r4], {-0}
    1ad0:	0d002302 	stceq	3, cr2, [r0, #-8]
    1ad4:	00000e28 	andeq	r0, r0, r8, lsr #28
    1ad8:	5e018604 	cfmadd32pl	mvax0, mvfx8, mvfx1, mvfx4
    1adc:	04000000 	streq	r0, [r0], #-0
    1ae0:	23020814 	movwcs	r0, #10260	; 0x2814
    1ae4:	0f6d0d00 	svceq	0x006d0d00
    1ae8:	87040000 	strhi	r0, [r4, -r0]
    1aec:	00005e01 	andeq	r5, r0, r1, lsl #28
    1af0:	05030400 	streq	r0, [r3, #-1024]	; 0x400
    1af4:	0d002302 	stceq	3, cr2, [r0, #-8]
    1af8:	00000e32 	andeq	r0, r0, r2, lsr lr
    1afc:	5e018904 	cdppl	9, 0, cr8, cr1, cr4, {0}
    1b00:	04000000 	streq	r0, [r0], #-0
    1b04:	23020104 	movwcs	r0, #8452	; 0x2104
    1b08:	07a70d00 	streq	r0, [r7, r0, lsl #26]!
    1b0c:	8a040000 	bhi	101b14 <__bss_end+0xfec8c>
    1b10:	00005e01 	andeq	r5, r0, r1, lsl #28
    1b14:	00010400 	andeq	r0, r1, r0, lsl #8
    1b18:	00002302 	andeq	r2, r0, r2, lsl #6
    1b1c:	0004340f 	andeq	r3, r4, pc, lsl #8
    1b20:	018b0400 	orreq	r0, fp, r0, lsl #8
    1b24:	00001508 	andeq	r1, r0, r8, lsl #10
    1b28:	00091810 	andeq	r1, r9, r0, lsl r8
    1b2c:	8f040400 	svchi	0x00040400
    1b30:	00163e01 	andseq	r3, r6, r1, lsl #28
    1b34:	033b0d00 	teqeq	fp, #0
    1b38:	91040000 	mrsls	r0, (UNDEF: 4)
    1b3c:	00005e01 	andeq	r5, r0, r1, lsl #28
    1b40:	1c040400 	cfstrsne	mvf0, [r4], {-0}
    1b44:	0d002302 	stceq	3, cr2, [r0, #-8]
    1b48:	00000e28 	andeq	r0, r0, r8, lsr #28
    1b4c:	5e019204 	cdppl	2, 0, cr9, cr1, cr4, {0}
    1b50:	04000000 	streq	r0, [r0], #-0
    1b54:	23021804 	movwcs	r1, #10244	; 0x2804
    1b58:	0bb50d00 	bleq	fed44f60 <__bss_end+0xfed420d8>
    1b5c:	93040000 	movwls	r0, #16384	; 0x4000
    1b60:	00005e01 	andeq	r5, r0, r1, lsl #28
    1b64:	15030400 	strne	r0, [r3, #-1024]	; 0x400
    1b68:	0d002302 	stceq	3, cr2, [r0, #-8]
    1b6c:	00000e32 	andeq	r0, r0, r2, lsr lr
    1b70:	5e019404 	cdppl	4, 0, cr9, cr1, cr4, {0}
    1b74:	04000000 	streq	r0, [r0], #-0
    1b78:	23021104 	movwcs	r1, #8452	; 0x2104
    1b7c:	07a60d00 	streq	r0, [r6, r0, lsl #26]!
    1b80:	95040000 	strls	r0, [r4, #-0]
    1b84:	00005e01 	andeq	r5, r0, r1, lsl #28
    1b88:	10010400 	andne	r0, r1, r0, lsl #8
    1b8c:	0d002302 	stceq	3, cr2, [r0, #-8]
    1b90:	00000996 	muleq	r0, r6, r9
    1b94:	5e019604 	cfmadd32pl	mvax0, mvfx9, mvfx1, mvfx4
    1b98:	04000000 	streq	r0, [r0], #-0
    1b9c:	23020c04 	movwcs	r0, #11268	; 0x2c04
    1ba0:	0e3c0d00 	cdpeq	13, 3, cr0, cr12, cr0, {0}
    1ba4:	97040000 	strls	r0, [r4, -r0]
    1ba8:	00005e01 	andeq	r5, r0, r1, lsl #28
    1bac:	08040400 	stmdaeq	r4, {sl}
    1bb0:	0d002302 	stceq	3, cr2, [r0, #-8]
    1bb4:	00000be9 	andeq	r0, r0, r9, ror #23
    1bb8:	5e019804 	cdppl	8, 0, cr9, cr1, cr4, {0}
    1bbc:	04000000 	streq	r0, [r0], #-0
    1bc0:	23020503 	movwcs	r0, #9475	; 0x2503
    1bc4:	0e460d00 	cdpeq	13, 4, cr0, cr6, cr0, {0}
    1bc8:	9a040000 	bls	101bd0 <__bss_end+0xfed48>
    1bcc:	00005e01 	andeq	r5, r0, r1, lsl #28
    1bd0:	01040400 	tsteq	r4, r0, lsl #8
    1bd4:	0d002302 	stceq	3, cr2, [r0, #-8]
    1bd8:	00000756 	andeq	r0, r0, r6, asr r7
    1bdc:	5e019b04 	vmlapl.f64	d9, d1, d4
    1be0:	04000000 	streq	r0, [r0], #-0
    1be4:	23020001 	movwcs	r0, #8193	; 0x2001
    1be8:	490f0000 	stmdbmi	pc, {}	; <UNPREDICTABLE>
    1bec:	04000008 	streq	r0, [r0], #-8
    1bf0:	157c019c 	ldrbne	r0, [ip, #-412]!	; 0x19c
    1bf4:	af100000 	svcge	0x00100000
    1bf8:	04000010 	streq	r0, [r0], #-16
    1bfc:	a0019f04 	andge	r9, r1, r4, lsl #30
    1c00:	0d000016 	stceq	0, cr0, [r0, #-88]	; 0xffffffa8
    1c04:	00000e28 	andeq	r0, r0, r8, lsr #28
    1c08:	5e01a104 	mvfpls	f2, f4
    1c0c:	04000000 	streq	r0, [r0], #-0
    1c10:	23021010 	movwcs	r1, #8208	; 0x2010
    1c14:	10e20d00 	rscne	r0, r2, r0, lsl #26
    1c18:	a2040000 	andge	r0, r4, #0
    1c1c:	00005e01 	andeq	r5, r0, r1, lsl #28
    1c20:	0d030400 	cfstrseq	mvf0, [r3, #-0]
    1c24:	0d002302 	stceq	3, cr2, [r0, #-8]
    1c28:	00000e32 	andeq	r0, r0, r2, lsr lr
    1c2c:	5e01a304 	cdppl	3, 0, cr10, cr1, cr4, {0}
    1c30:	04000000 	streq	r0, [r0], #-0
    1c34:	2302010c 	movwcs	r0, #8460	; 0x210c
    1c38:	07a70d00 	streq	r0, [r7, r0, lsl #26]!
    1c3c:	a4040000 	strge	r0, [r4], #-0
    1c40:	00005e01 	andeq	r5, r0, r1, lsl #28
    1c44:	00010400 	andeq	r0, r1, r0, lsl #8
    1c48:	00002302 	andeq	r2, r0, r2, lsl #6
    1c4c:	000d760f 	andeq	r7, sp, pc, lsl #12
    1c50:	01a50400 			; <UNDEFINED> instruction: 0x01a50400
    1c54:	0000164a 	andeq	r1, r0, sl, asr #12
    1c58:	000b4d10 	andeq	r4, fp, r0, lsl sp
    1c5c:	a8040400 	stmdage	r4, {sl}
    1c60:	00172601 	andseq	r2, r7, r1, lsl #12
    1c64:	10e20d00 	rscne	r0, r2, r0, lsl #26
    1c68:	aa040000 	bge	101c70 <__bss_end+0xfede8>
    1c6c:	00005e01 	andeq	r5, r0, r1, lsl #28
    1c70:	1c040400 	cfstrsne	mvf0, [r4], {-0}
    1c74:	0d002302 	stceq	3, cr2, [r0, #-8]
    1c78:	00000e28 	andeq	r0, r0, r8, lsr #28
    1c7c:	5e01ab04 	vmlapl.f64	d10, d1, d4
    1c80:	04000000 	streq	r0, [r0], #-0
    1c84:	23020814 	movwcs	r0, #10260	; 0x2814
    1c88:	0f6d0d00 	svceq	0x006d0d00
    1c8c:	ac040000 	stcge	0, cr0, [r4], {-0}
    1c90:	00005e01 	andeq	r5, r0, r1, lsl #28
    1c94:	06020400 	streq	r0, [r2], -r0, lsl #8
    1c98:	0d002302 	stceq	3, cr2, [r0, #-8]
    1c9c:	00000e32 	andeq	r0, r0, r2, lsr lr
    1ca0:	5e01ad04 	cdppl	13, 0, cr10, cr1, cr4, {0}
    1ca4:	04000000 	streq	r0, [r0], #-0
    1ca8:	23020204 	movwcs	r0, #8708	; 0x2204
    1cac:	0a160d00 	beq	5850b4 <__bss_end+0x58222c>
    1cb0:	ae040000 	cdpge	0, 0, cr0, cr4, cr0, {0}
    1cb4:	00005e01 	andeq	r5, r0, r1, lsl #28
    1cb8:	01010400 	tsteq	r1, r0, lsl #8
    1cbc:	0d002302 	stceq	3, cr2, [r0, #-8]
    1cc0:	000007a7 	andeq	r0, r0, r7, lsr #15
    1cc4:	5e01af04 	cdppl	15, 0, cr10, cr1, cr4, {0}
    1cc8:	04000000 	streq	r0, [r0], #-0
    1ccc:	23020001 	movwcs	r0, #8193	; 0x2001
    1cd0:	a00f0000 	andge	r0, pc, r0
    1cd4:	04000011 	streq	r0, [r0], #-17
    1cd8:	16ac01b0 			; <UNDEFINED> instruction: 0x16ac01b0
    1cdc:	bd100000 	ldclt	0, cr0, [r0, #-0]
    1ce0:	0400000b 	streq	r0, [r0], #-11
    1ce4:	f401b304 	vst2.8	{d11-d14}, [r1], r4
    1ce8:	0d000017 	stceq	0, cr0, [r0, #-92]	; 0xffffffa4
    1cec:	00000ded 	andeq	r0, r0, sp, ror #27
    1cf0:	5e01b504 	cfsh32pl	mvfx11, mvfx1, #4
    1cf4:	04000000 	streq	r0, [r0], #-0
    1cf8:	23021c04 	movwcs	r1, #11268	; 0x2c04
    1cfc:	0e280d00 	cdpeq	13, 2, cr0, cr8, cr0, {0}
    1d00:	b6040000 	strlt	r0, [r4], -r0
    1d04:	00005e01 	andeq	r5, r0, r1, lsl #28
    1d08:	18040400 	stmdane	r4, {sl}
    1d0c:	0d002302 	stceq	3, cr2, [r0, #-8]
    1d10:	0000072d 	andeq	r0, r0, sp, lsr #14
    1d14:	5e01b704 	cdppl	7, 0, cr11, cr1, cr4, {0}
    1d18:	04000000 	streq	r0, [r0], #-0
    1d1c:	23021602 	movwcs	r1, #9730	; 0x2602
    1d20:	0e320d00 	cdpeq	13, 3, cr0, cr2, cr0, {0}
    1d24:	b8040000 	stmdalt	r4, {}	; <UNPREDICTABLE>
    1d28:	00005e01 	andeq	r5, r0, r1, lsl #28
    1d2c:	11050400 	tstne	r5, r0, lsl #8
    1d30:	0d002302 	stceq	3, cr2, [r0, #-8]
    1d34:	00000502 	andeq	r0, r0, r2, lsl #10
    1d38:	5e01b904 	cdppl	9, 0, cr11, cr1, cr4, {0}
    1d3c:	04000000 	streq	r0, [r0], #-0
    1d40:	23021001 	movwcs	r1, #8193	; 0x2001
    1d44:	09960d00 	ldmibeq	r6, {r8, sl, fp}
    1d48:	ba040000 	blt	101d50 <__bss_end+0xfeec8>
    1d4c:	00005e01 	andeq	r5, r0, r1, lsl #28
    1d50:	0c040400 	cfstrseq	mvf0, [r4], {-0}
    1d54:	0d002302 	stceq	3, cr2, [r0, #-8]
    1d58:	00000e3c 	andeq	r0, r0, ip, lsr lr
    1d5c:	5e01bb04 	vmlapl.f64	d11, d1, d4
    1d60:	04000000 	streq	r0, [r0], #-0
    1d64:	23020804 	movwcs	r0, #10244	; 0x2804
    1d68:	0be90d00 	bleq	ffa45170 <__bss_end+0xffa422e8>
    1d6c:	bc040000 	stclt	0, cr0, [r4], {-0}
    1d70:	00005e01 	andeq	r5, r0, r1, lsl #28
    1d74:	05030400 	streq	r0, [r3, #-1024]	; 0x400
    1d78:	0d002302 	stceq	3, cr2, [r0, #-8]
    1d7c:	00000e46 	andeq	r0, r0, r6, asr #28
    1d80:	5e01bd04 	cdppl	13, 0, cr11, cr1, cr4, {0}
    1d84:	04000000 	streq	r0, [r0], #-0
    1d88:	23020104 	movwcs	r0, #8452	; 0x2104
    1d8c:	07560d00 	ldrbeq	r0, [r6, -r0, lsl #26]
    1d90:	be040000 	cdplt	0, 0, cr0, cr4, cr0, {0}
    1d94:	00005e01 	andeq	r5, r0, r1, lsl #28
    1d98:	00010400 	andeq	r0, r1, r0, lsl #8
    1d9c:	00002302 	andeq	r2, r0, r2, lsl #6
    1da0:	0008370f 	andeq	r3, r8, pc, lsl #14
    1da4:	01bf0400 			; <UNDEFINED> instruction: 0x01bf0400
    1da8:	00001732 	andeq	r1, r0, r2, lsr r7
    1dac:	0009bc10 	andeq	fp, r9, r0, lsl ip
    1db0:	c2040400 	andgt	r0, r4, #0
    1db4:	00183201 	andseq	r3, r8, r1, lsl #4
    1db8:	109b0d00 	addsne	r0, fp, r0, lsl #26
    1dbc:	c4040000 	strgt	r0, [r4], #-0
    1dc0:	00005e01 	andeq	r5, r0, r1, lsl #28
    1dc4:	10100400 	andsne	r0, r0, r0, lsl #8
    1dc8:	0d002302 	stceq	3, cr2, [r0, #-8]
    1dcc:	000010d6 	ldrdeq	r1, [r0], -r6
    1dd0:	5e01c504 	cfsh32pl	mvfx12, mvfx1, #4
    1dd4:	04000000 	streq	r0, [r0], #-0
    1dd8:	23020010 	movwcs	r0, #8208	; 0x2010
    1ddc:	100f0000 	andne	r0, pc, r0
    1de0:	0400000f 	streq	r0, [r0], #-15
    1de4:	180001c6 	stmdane	r0, {r1, r2, r6, r7, r8}
    1de8:	ca100000 	bgt	401df0 <__bss_end+0x3fef68>
    1dec:	04000008 	streq	r0, [r0], #-8
    1df0:	5401c904 	strpl	ip, [r1], #-2308	; 0x904
    1df4:	0d00001a 	stceq	0, cr0, [r0, #-104]	; 0xffffff98
    1df8:	00000e28 	andeq	r0, r0, r8, lsr #28
    1dfc:	5e01cb04 	vmlapl.f64	d12, d1, d4
    1e00:	04000000 	streq	r0, [r0], #-0
    1e04:	23021f01 	movwcs	r1, #12033	; 0x2f01
    1e08:	04e70d00 	strbteq	r0, [r7], #3328	; 0xd00
    1e0c:	cc040000 	stcgt	0, cr0, [r4], {-0}
    1e10:	00005e01 	andeq	r5, r0, r1, lsl #28
    1e14:	1e010400 	cfcpysne	mvf0, mvf1
    1e18:	0d002302 	stceq	3, cr2, [r0, #-8]
    1e1c:	00000e32 	andeq	r0, r0, r2, lsr lr
    1e20:	5e01cd04 	cdppl	13, 0, cr12, cr1, cr4, {0}
    1e24:	04000000 	streq	r0, [r0], #-0
    1e28:	23021b03 	movwcs	r1, #11011	; 0x2b03
    1e2c:	73530e00 	cmpvc	r3, #0
    1e30:	01ce0400 	biceq	r0, lr, r0, lsl #8
    1e34:	0000005e 	andeq	r0, r0, lr, asr r0
    1e38:	021a0104 	andseq	r0, sl, #1
    1e3c:	440e0023 	strmi	r0, [lr], #-35	; 0x23
    1e40:	0400616d 	streq	r6, [r0], #-365	; 0x16d
    1e44:	005e01cf 	subseq	r0, lr, pc, asr #3
    1e48:	01040000 	mrseq	r0, (UNDEF: 4)
    1e4c:	00230219 	eoreq	r0, r3, r9, lsl r2
    1e50:	000e3c0d 	andeq	r3, lr, sp, lsl #24
    1e54:	01d00400 	bicseq	r0, r0, r0, lsl #8
    1e58:	0000005e 	andeq	r0, r0, lr, asr r0
    1e5c:	02180104 	andseq	r0, r8, #1
    1e60:	530e0023 	movwpl	r0, #57379	; 0xe023
    1e64:	04003064 	streq	r3, [r0], #-100	; 0x64
    1e68:	005e01d1 	ldrsbeq	r0, [lr], #-17	; 0xffffffef
    1e6c:	01040000 	mrseq	r0, (UNDEF: 4)
    1e70:	00230217 	eoreq	r0, r3, r7, lsl r2
    1e74:	3164530e 	cmncc	r4, lr, lsl #6
    1e78:	01d20400 	bicseq	r0, r2, r0, lsl #8
    1e7c:	0000005e 	andeq	r0, r0, lr, asr r0
    1e80:	02160104 	andseq	r0, r6, #1
    1e84:	530e0023 	movwpl	r0, #57379	; 0xe023
    1e88:	04003264 	streq	r3, [r0], #-612	; 0x264
    1e8c:	005e01d3 	ldrsbeq	r0, [lr], #-19	; 0xffffffed
    1e90:	01040000 	mrseq	r0, (UNDEF: 4)
    1e94:	00230215 	eoreq	r0, r3, r5, lsl r2
    1e98:	3364530e 	cmncc	r4, #939524096	; 0x38000000
    1e9c:	01d40400 	bicseq	r0, r4, r0, lsl #8
    1ea0:	0000005e 	andeq	r0, r0, lr, asr r0
    1ea4:	02140104 	andseq	r0, r4, #1
    1ea8:	860d0023 	strhi	r0, [sp], -r3, lsr #32
    1eac:	04000011 	streq	r0, [r0], #-17
    1eb0:	005e01d5 	ldrsbeq	r0, [lr], #-21	; 0xffffffeb
    1eb4:	01040000 	mrseq	r0, (UNDEF: 4)
    1eb8:	00230213 	eoreq	r0, r3, r3, lsl r2
    1ebc:	0011800d 	andseq	r8, r1, sp
    1ec0:	01d60400 	bicseq	r0, r6, r0, lsl #8
    1ec4:	0000005e 	andeq	r0, r0, lr, asr r0
    1ec8:	02120104 	andseq	r0, r2, #1
    1ecc:	900d0023 	andls	r0, sp, r3, lsr #32
    1ed0:	04000009 	streq	r0, [r0], #-9
    1ed4:	005e01d7 	ldrsbeq	r0, [lr], #-23	; 0xffffffe9
    1ed8:	01040000 	mrseq	r0, (UNDEF: 4)
    1edc:	00230211 	eoreq	r0, r3, r1, lsl r2
    1ee0:	000e460d 	andeq	r4, lr, sp, lsl #12
    1ee4:	01d80400 	bicseq	r0, r8, r0, lsl #8
    1ee8:	0000005e 	andeq	r0, r0, lr, asr r0
    1eec:	020f0204 	andeq	r0, pc, #1073741824	; 0x40000000
    1ef0:	d70d0023 	strle	r0, [sp, -r3, lsr #32]
    1ef4:	04000006 	streq	r0, [r0], #-6
    1ef8:	005e01d9 	ldrsbeq	r0, [lr], #-25	; 0xffffffe7
    1efc:	01040000 	mrseq	r0, (UNDEF: 4)
    1f00:	0023020e 	eoreq	r0, r3, lr, lsl #4
    1f04:	0073540e 	rsbseq	r5, r3, lr, lsl #8
    1f08:	5e01da04 	vmlapl.f32	s26, s2, s8
    1f0c:	04000000 	streq	r0, [r0], #-0
    1f10:	23020d01 	movwcs	r0, #11521	; 0x2d01
    1f14:	0ed10d00 	cdpeq	13, 13, cr0, cr1, cr0, {0}
    1f18:	db040000 	blle	101f20 <__bss_end+0xff098>
    1f1c:	00005e01 	andeq	r5, r0, r1, lsl #28
    1f20:	0c010400 	cfstrseq	mvf0, [r1], {-0}
    1f24:	0d002302 	stceq	3, cr2, [r0, #-8]
    1f28:	00000eec 	andeq	r0, r0, ip, ror #29
    1f2c:	5e01dc04 	cdppl	12, 0, cr13, cr1, cr4, {0}
    1f30:	04000000 	streq	r0, [r0], #-0
    1f34:	23020b01 	movwcs	r0, #11009	; 0x2b01
    1f38:	0ef10d00 	cdpeq	13, 15, cr0, cr1, cr0, {0}
    1f3c:	dd040000 	stcle	0, cr0, [r4, #-0]
    1f40:	00005e01 	andeq	r5, r0, r1, lsl #28
    1f44:	0a010400 	beq	42f4c <__bss_end+0x400c4>
    1f48:	0d002302 	stceq	3, cr2, [r0, #-8]
    1f4c:	00000ef6 	strdeq	r0, [r0], -r6
    1f50:	5e01de04 	cdppl	14, 0, cr13, cr1, cr4, {0}
    1f54:	04000000 	streq	r0, [r0], #-0
    1f58:	23020901 	movwcs	r0, #10497	; 0x2901
    1f5c:	0d540d00 	ldcleq	13, cr0, [r4, #-0]
    1f60:	df040000 	svcle	0x00040000
    1f64:	00005e01 	andeq	r5, r0, r1, lsl #28
    1f68:	08010400 	stmdaeq	r1, {sl}
    1f6c:	0e002302 	cdpeq	3, 0, cr2, cr0, cr2, {0}
    1f70:	0067744f 	rsbeq	r7, r7, pc, asr #8
    1f74:	5e01e004 	cdppl	0, 0, cr14, cr1, cr4, {0}
    1f78:	04000000 	streq	r0, [r0], #-0
    1f7c:	23020701 	movwcs	r0, #9985	; 0x2701
    1f80:	0e500d00 	cdpeq	13, 5, cr0, cr0, cr0, {0}
    1f84:	e1040000 	mrs	r0, (UNDEF: 4)
    1f88:	00005e01 	andeq	r5, r0, r1, lsl #28
    1f8c:	06010400 	streq	r0, [r1], -r0, lsl #8
    1f90:	0d002302 	stceq	3, cr2, [r0, #-8]
    1f94:	000004c5 	andeq	r0, r0, r5, asr #9
    1f98:	5e01e204 	cdppl	2, 0, cr14, cr1, cr4, {0}
    1f9c:	04000000 	streq	r0, [r0], #-0
    1fa0:	23020501 	movwcs	r0, #9473	; 0x2501
    1fa4:	04cb0d00 	strbeq	r0, [fp], #3328	; 0xd00
    1fa8:	e3040000 	movw	r0, #16384	; 0x4000
    1fac:	00005e01 	andeq	r5, r0, r1, lsl #28
    1fb0:	04010400 	streq	r0, [r1], #-1024	; 0x400
    1fb4:	0d002302 	stceq	3, cr2, [r0, #-8]
    1fb8:	00000e5a 	andeq	r0, r0, sl, asr lr
    1fbc:	5e01e404 	cdppl	4, 0, cr14, cr1, cr4, {0}
    1fc0:	04000000 	streq	r0, [r0], #-0
    1fc4:	23020301 	movwcs	r0, #8961	; 0x2301
    1fc8:	0c970d00 	ldceq	13, cr0, [r7], {0}
    1fcc:	e5040000 	str	r0, [r4, #-0]
    1fd0:	00005e01 	andeq	r5, r0, r1, lsl #28
    1fd4:	02010400 	andeq	r0, r1, #0
    1fd8:	0d002302 	stceq	3, cr2, [r0, #-8]
    1fdc:	00000c9d 	muleq	r0, sp, ip
    1fe0:	5e01e604 	cfmadd32pl	mvax0, mvfx14, mvfx1, mvfx4
    1fe4:	04000000 	streq	r0, [r0], #-0
    1fe8:	23020101 	movwcs	r0, #8449	; 0x2101
    1fec:	0ca30d00 	stceq	13, cr0, [r3]
    1ff0:	e7040000 	str	r0, [r4, -r0]
    1ff4:	00005e01 	andeq	r5, r0, r1, lsl #28
    1ff8:	00010400 	andeq	r0, r1, r0, lsl #8
    1ffc:	00002302 	andeq	r2, r0, r2, lsl #6
    2000:	000a3a0f 	andeq	r3, sl, pc, lsl #20
    2004:	01e90400 	mvneq	r0, r0, lsl #8
    2008:	0000183e 	andeq	r1, r0, lr, lsr r8
    200c:	0008ea10 	andeq	lr, r8, r0, lsl sl
    2010:	ec040400 	cfstrs	mvf0, [r4], {-0}
    2014:	001c2e01 	andseq	r2, ip, r1, lsl #28
    2018:	65560e00 	ldrbvs	r0, [r6, #-3584]	; 0xe00
    201c:	01ee0400 	mvneq	r0, r0, lsl #8
    2020:	0000005e 	andeq	r0, r0, lr, asr r0
    2024:	021f0104 	andseq	r0, pc, #1
    2028:	280d0023 	stmdacs	sp, {r0, r1, r5}
    202c:	0400000e 	streq	r0, [r0], #-14
    2030:	005e01ef 	subseq	r0, lr, pc, ror #3
    2034:	03040000 	movweq	r0, #16384	; 0x4000
    2038:	0023021c 	eoreq	r0, r3, ip, lsl r2
    203c:	000a8a0d 	andeq	r8, sl, sp, lsl #20
    2040:	01f00400 	mvnseq	r0, r0, lsl #8
    2044:	0000005e 	andeq	r0, r0, lr, asr r0
    2048:	021b0104 	andseq	r0, fp, #1
    204c:	880d0023 	stmdahi	sp, {r0, r1, r5}
    2050:	0400000c 	streq	r0, [r0], #-12
    2054:	005e01f1 	ldrsheq	r0, [lr], #-17	; 0xffffffef
    2058:	01040000 	mrseq	r0, (UNDEF: 4)
    205c:	0023021a 	eoreq	r0, r3, sl, lsl r2
    2060:	000e320d 	andeq	r3, lr, sp, lsl #4
    2064:	01f20400 	mvnseq	r0, r0, lsl #8
    2068:	0000005e 	andeq	r0, r0, lr, asr r0
    206c:	02180204 	andseq	r0, r8, #1073741824	; 0x40000000
    2070:	a30d0023 	movwge	r0, #53283	; 0xd023
    2074:	0400000e 	streq	r0, [r0], #-14
    2078:	005e01f3 	ldrsheq	r0, [lr], #-19	; 0xffffffed
    207c:	01040000 	mrseq	r0, (UNDEF: 4)
    2080:	00230217 	eoreq	r0, r3, r7, lsl r2
    2084:	000ea80d 	andeq	sl, lr, sp, lsl #16
    2088:	01f40400 	mvnseq	r0, r0, lsl #8
    208c:	0000005e 	andeq	r0, r0, lr, asr r0
    2090:	02160104 	andseq	r0, r6, #1
    2094:	3c0d0023 	stccc	0, cr0, [sp], {35}	; 0x23
    2098:	0400000e 	streq	r0, [r0], #-14
    209c:	005e01f5 	ldrsheq	r0, [lr], #-21	; 0xffffffeb
    20a0:	01040000 	mrseq	r0, (UNDEF: 4)
    20a4:	00230215 	eoreq	r0, r3, r5, lsl r2
    20a8:	0003430d 	andeq	r4, r3, sp, lsl #6
    20ac:	01f60400 	mvnseq	r0, r0, lsl #8
    20b0:	0000005e 	andeq	r0, r0, lr, asr r0
    20b4:	02140104 	andseq	r0, r4, #1
    20b8:	420e0023 	andmi	r0, lr, #35	; 0x23
    20bc:	04003065 	streq	r3, [r0], #-101	; 0x65
    20c0:	005e01f7 	ldrsheq	r0, [lr], #-23	; 0xffffffe9
    20c4:	01040000 	mrseq	r0, (UNDEF: 4)
    20c8:	00230213 	eoreq	r0, r3, r3, lsl r2
    20cc:	3165420e 	cmncc	r5, lr, lsl #4
    20d0:	01f80400 	mvnseq	r0, r0, lsl #8
    20d4:	0000005e 	andeq	r0, r0, lr, asr r0
    20d8:	02120104 	andseq	r0, r2, #1
    20dc:	460e0023 	strmi	r0, [lr], -r3, lsr #32
    20e0:	04003065 	streq	r3, [r0], #-101	; 0x65
    20e4:	005e01f9 	ldrsheq	r0, [lr], #-25	; 0xffffffe7
    20e8:	01040000 	mrseq	r0, (UNDEF: 4)
    20ec:	00230211 	eoreq	r0, r3, r1, lsl r2
    20f0:	3165460e 	cmncc	r5, lr, lsl #12
    20f4:	01fa0400 	mvnseq	r0, r0, lsl #8
    20f8:	0000005e 	andeq	r0, r0, lr, asr r0
    20fc:	02100104 	andseq	r0, r0, #1
    2100:	460d0023 	strmi	r0, [sp], -r3, lsr #32
    2104:	0400000e 	streq	r0, [r0], #-14
    2108:	005e01fb 	ldrsheq	r0, [lr], #-27	; 0xffffffe5
    210c:	02040000 	andeq	r0, r4, #0
    2110:	0023020e 	eoreq	r0, r3, lr, lsl #4
    2114:	00704d0e 	rsbseq	r4, r0, lr, lsl #26
    2118:	5e01fc04 	cdppl	12, 0, cr15, cr1, cr4, {0}
    211c:	04000000 	streq	r0, [r0], #-0
    2120:	23020d01 	movwcs	r0, #11521	; 0x2d01
    2124:	0e500d00 	cdpeq	13, 5, cr0, cr0, cr0, {0}
    2128:	fd040000 	stc2	0, cr0, [r4, #-0]
    212c:	00005e01 	andeq	r5, r0, r1, lsl #28
    2130:	0c010400 	cfstrseq	mvf0, [r1], {-0}
    2134:	0e002302 	cdpeq	3, 0, cr2, cr0, cr2, {0}
    2138:	00757047 	rsbseq	r7, r5, r7, asr #32
    213c:	5e01ff04 	cdppl	15, 0, cr15, cr1, cr4, {0}
    2140:	04000000 	streq	r0, [r0], #-0
    2144:	23020b01 	movwcs	r0, #11009	; 0x2b01
    2148:	03ad0d00 			; <UNDEFINED> instruction: 0x03ad0d00
    214c:	00040000 	andeq	r0, r4, r0
    2150:	00005e02 	andeq	r5, r0, r2, lsl #28
    2154:	0a010400 	beq	4315c <__bss_end+0x402d4>
    2158:	0d002302 	stceq	3, cr2, [r0, #-8]
    215c:	00000ed7 	ldrdeq	r0, [r0], -r7
    2160:	5e020104 	adfpls	f0, f2, f4
    2164:	04000000 	streq	r0, [r0], #-0
    2168:	23020901 	movwcs	r0, #10497	; 0x2901
    216c:	085d0d00 	ldmdaeq	sp, {r8, sl, fp}^
    2170:	02040000 	andeq	r0, r4, #0
    2174:	00005e02 	andeq	r5, r0, r2, lsl #28
    2178:	08010400 	stmdaeq	r1, {sl}
    217c:	0d002302 	stceq	3, cr2, [r0, #-8]
    2180:	00000865 	andeq	r0, r0, r5, ror #16
    2184:	5e020304 	cdppl	3, 0, cr0, cr2, cr4, {0}
    2188:	04000000 	streq	r0, [r0], #-0
    218c:	23020701 	movwcs	r0, #9985	; 0x2701
    2190:	080b0d00 	stmdaeq	fp, {r8, sl, fp}
    2194:	04040000 	streq	r0, [r4], #-0
    2198:	00005e02 	andeq	r5, r0, r2, lsl #28
    219c:	06010400 	streq	r0, [r1], -r0, lsl #8
    21a0:	0d002302 	stceq	3, cr2, [r0, #-8]
    21a4:	00000813 	andeq	r0, r0, r3, lsl r8
    21a8:	5e020504 	cfsh32pl	mvfx0, mvfx2, #4
    21ac:	04000000 	streq	r0, [r0], #-0
    21b0:	23020501 	movwcs	r0, #9473	; 0x2501
    21b4:	05b30d00 	ldreq	r0, [r3, #3328]!	; 0xd00
    21b8:	06040000 	streq	r0, [r4], -r0
    21bc:	00005e02 	andeq	r5, r0, r2, lsl #28
    21c0:	04010400 	streq	r0, [r1], #-1024	; 0x400
    21c4:	0d002302 	stceq	3, cr2, [r0, #-8]
    21c8:	00000e5a 	andeq	r0, r0, sl, asr lr
    21cc:	5e020704 	cdppl	7, 0, cr0, cr2, cr4, {0}
    21d0:	04000000 	streq	r0, [r0], #-0
    21d4:	23020004 	movwcs	r0, #8196	; 0x2004
    21d8:	590f0000 	stmdbpl	pc, {}	; <UNPREDICTABLE>
    21dc:	04000003 	streq	r0, [r0], #-3
    21e0:	1a600209 	bne	1802a0c <__bss_end+0x17ffb84>
    21e4:	01100000 	tsteq	r0, r0
    21e8:	04000009 	streq	r0, [r0], #-9
    21ec:	6c020c04 	stcvs	12, cr0, [r2], {4}
    21f0:	0d00001c 	stceq	0, cr0, [r0, #-112]	; 0xffffff90
    21f4:	00001047 	andeq	r1, r0, r7, asr #32
    21f8:	5e020e04 	cdppl	14, 0, cr0, cr2, cr4, {0}
    21fc:	04000000 	streq	r0, [r0], #-0
    2200:	23021f01 	movwcs	r1, #12033	; 0x2f01
    2204:	10d60d00 	sbcsne	r0, r6, r0, lsl #26
    2208:	0f040000 	svceq	0x00040000
    220c:	00005e02 	andeq	r5, r0, r2, lsl #28
    2210:	001f0400 	andseq	r0, pc, r0, lsl #8
    2214:	00002302 	andeq	r2, r0, r2, lsl #6
    2218:	000c6f0f 	andeq	r6, ip, pc, lsl #30
    221c:	02110400 	andseq	r0, r1, #0
    2220:	00001c3a 	andeq	r1, r0, sl, lsr ip
    2224:	0002b910 	andeq	fp, r2, r0, lsl r9
    2228:	14040400 	strne	r0, [r4], #-1024	; 0x400
    222c:	001d1602 	andseq	r1, sp, r2, lsl #12
    2230:	09720d00 	ldmdbeq	r2!, {r8, sl, fp}^
    2234:	16040000 	strne	r0, [r4], -r0
    2238:	00005e02 	andeq	r5, r0, r2, lsl #28
    223c:	1f010400 	svcne	0x00010400
    2240:	0d002302 	stceq	3, cr2, [r0, #-8]
    2244:	000007e4 	andeq	r0, r0, r4, ror #15
    2248:	5e021704 	cdppl	7, 0, cr1, cr2, cr4, {0}
    224c:	04000000 	streq	r0, [r0], #-0
    2250:	23021e01 	movwcs	r1, #11777	; 0x2e01
    2254:	0e280d00 	cdpeq	13, 2, cr0, cr8, cr0, {0}
    2258:	18040000 	stmdane	r4, {}	; <UNPREDICTABLE>
    225c:	00005e02 	andeq	r5, r0, r2, lsl #28
    2260:	1b030400 	blne	c3268 <__bss_end+0xc03e0>
    2264:	0e002302 	cdpeq	3, 0, cr2, cr0, cr2, {0}
    2268:	006f6950 	rsbeq	r6, pc, r0, asr r9	; <UNPREDICTABLE>
    226c:	5e021904 	cdppl	9, 0, cr1, cr2, cr4, {0}
    2270:	04000000 	streq	r0, [r0], #-0
    2274:	23021a01 	movwcs	r1, #10753	; 0x2a01
    2278:	0e320d00 	cdpeq	13, 3, cr0, cr2, cr0, {0}
    227c:	1a040000 	bne	102284 <__bss_end+0xff3fc>
    2280:	00005e02 	andeq	r5, r0, r2, lsl #28
    2284:	14060400 	strne	r0, [r6], #-1024	; 0x400
    2288:	0d002302 	stceq	3, cr2, [r0, #-8]
    228c:	000010c5 	andeq	r1, r0, r5, asr #1
    2290:	5e021b04 	vmlapl.f64	d1, d2, d4
    2294:	04000000 	streq	r0, [r0], #-0
    2298:	23021301 	movwcs	r1, #8961	; 0x2301
    229c:	04a30d00 	strteq	r0, [r3], #3328	; 0xd00
    22a0:	1c040000 	stcne	0, cr0, [r4], {-0}
    22a4:	00005e02 	andeq	r5, r0, r2, lsl #28
    22a8:	12010400 	andne	r0, r1, #0
    22ac:	0d002302 	stceq	3, cr2, [r0, #-8]
    22b0:	00000e3c 	andeq	r0, r0, ip, lsr lr
    22b4:	5e021d04 	cdppl	13, 0, cr1, cr2, cr4, {0}
    22b8:	04000000 	streq	r0, [r0], #-0
    22bc:	23020012 	movwcs	r0, #8210	; 0x2012
    22c0:	e60f0000 	str	r0, [pc], -r0
    22c4:	04000002 	streq	r0, [r0], #-2
    22c8:	1c78021f 	lfmne	f0, 2, [r8], #-124	; 0xffffff84
    22cc:	24100000 	ldrcs	r0, [r0], #-0
    22d0:	04000003 	streq	r0, [r0], #-3
    22d4:	08022204 	stmdaeq	r2, {r2, r9, sp}
    22d8:	0d00001e 	stceq	0, cr0, [r0, #-120]	; 0xffffff88
    22dc:	00000573 	andeq	r0, r0, r3, ror r5
    22e0:	5e022404 	cdppl	4, 0, cr2, cr2, cr4, {0}
    22e4:	04000000 	streq	r0, [r0], #-0
    22e8:	23021f01 	movwcs	r1, #12033	; 0x2f01
    22ec:	05780d00 	ldrbeq	r0, [r8, #-3328]!	; 0xd00
    22f0:	25040000 	strcs	r0, [r4, #-0]
    22f4:	00005e02 	andeq	r5, r0, r2, lsl #28
    22f8:	1e010400 	cfcpysne	mvf0, mvf1
    22fc:	0d002302 	stceq	3, cr2, [r0, #-8]
    2300:	0000057d 	andeq	r0, r0, sp, ror r5
    2304:	5e022604 	cfmadd32pl	mvax0, mvfx2, mvfx2, mvfx4
    2308:	04000000 	streq	r0, [r0], #-0
    230c:	23021d01 	movwcs	r1, #11521	; 0x2d01
    2310:	05820d00 	streq	r0, [r2, #3328]	; 0xd00
    2314:	27040000 	strcs	r0, [r4, -r0]
    2318:	00005e02 	andeq	r5, r0, r2, lsl #28
    231c:	1c010400 	cfstrsne	mvf0, [r1], {-0}
    2320:	0d002302 	stceq	3, cr2, [r0, #-8]
    2324:	00000e28 	andeq	r0, r0, r8, lsr #28
    2328:	5e022804 	cdppl	8, 0, cr2, cr2, cr4, {0}
    232c:	04000000 	streq	r0, [r0], #-0
    2330:	2302100c 	movwcs	r1, #8204	; 0x200c
    2334:	0b270d00 	bleq	9c573c <__bss_end+0x9c28b4>
    2338:	29040000 	stmdbcs	r4, {}	; <UNPREDICTABLE>
    233c:	00005e02 	andeq	r5, r0, r2, lsl #28
    2340:	0f010400 	svceq	0x00010400
    2344:	0d002302 	stceq	3, cr2, [r0, #-8]
    2348:	00000f32 	andeq	r0, r0, r2, lsr pc
    234c:	5e022a04 	vmlapl.f32	s4, s4, s8
    2350:	04000000 	streq	r0, [r0], #-0
    2354:	23020e01 	movwcs	r0, #11777	; 0x2e01
    2358:	0f3d0d00 	svceq	0x003d0d00
    235c:	2b040000 	blcs	102364 <__bss_end+0xff4dc>
    2360:	00005e02 	andeq	r5, r0, r2, lsl #28
    2364:	0d010400 	cfstrseq	mvf0, [r1, #-0]
    2368:	0d002302 	stceq	3, cr2, [r0, #-8]
    236c:	00000587 	andeq	r0, r0, r7, lsl #11
    2370:	5e022c04 	cdppl	12, 0, cr2, cr2, cr4, {0}
    2374:	04000000 	streq	r0, [r0], #-0
    2378:	23020c01 	movwcs	r0, #11265	; 0x2c01
    237c:	058d0d00 	streq	r0, [sp, #3328]	; 0xd00
    2380:	2d040000 	stccs	0, cr0, [r4, #-0]
    2384:	00005e02 	andeq	r5, r0, r2, lsl #28
    2388:	0b010400 	bleq	43390 <__bss_end+0x40508>
    238c:	0d002302 	stceq	3, cr2, [r0, #-8]
    2390:	00000593 	muleq	r0, r3, r5
    2394:	5e022e04 	cdppl	14, 0, cr2, cr2, cr4, {0}
    2398:	04000000 	streq	r0, [r0], #-0
    239c:	23020a01 	movwcs	r0, #10753	; 0x2a01
    23a0:	0e320d00 	cdpeq	13, 3, cr0, cr2, cr0, {0}
    23a4:	2f040000 	svccs	0x00040000
    23a8:	00005e02 	andeq	r5, r0, r2, lsl #28
    23ac:	000a0400 	andeq	r0, sl, r0, lsl #8
    23b0:	00002302 	andeq	r2, r0, r2, lsl #6
    23b4:	0005d80f 	andeq	sp, r5, pc, lsl #16
    23b8:	02310400 	eorseq	r0, r1, #0
    23bc:	00001d22 	andeq	r1, r0, r2, lsr #26
    23c0:	000aeb10 	andeq	lr, sl, r0, lsl fp
    23c4:	34040400 	strcc	r0, [r4], #-1024	; 0x400
    23c8:	001eb202 	andseq	fp, lr, r2, lsl #4
    23cc:	0e280d00 	cdpeq	13, 2, cr0, cr8, cr0, {0}
    23d0:	36040000 	strcc	r0, [r4], -r0
    23d4:	00005e02 	andeq	r5, r0, r2, lsl #28
    23d8:	18080400 	stmdane	r8, {sl}
    23dc:	0d002302 	stceq	3, cr2, [r0, #-8]
    23e0:	00000780 	andeq	r0, r0, r0, lsl #15
    23e4:	5e023704 	cdppl	7, 0, cr3, cr2, cr4, {0}
    23e8:	04000000 	streq	r0, [r0], #-0
    23ec:	23021305 	movwcs	r1, #8965	; 0x2305
    23f0:	0e320d00 	cdpeq	13, 3, cr0, cr2, cr0, {0}
    23f4:	38040000 	stmdacc	r4, {}	; <UNPREDICTABLE>
    23f8:	00005e02 	andeq	r5, r0, r2, lsl #28
    23fc:	0c070400 	cfstrseq	mvf0, [r7], {-0}
    2400:	0d002302 	stceq	3, cr2, [r0, #-8]
    2404:	00000785 	andeq	r0, r0, r5, lsl #15
    2408:	5e023904 	cdppl	9, 0, cr3, cr2, cr4, {0}
    240c:	04000000 	streq	r0, [r0], #-0
    2410:	23020a02 	movwcs	r0, #10754	; 0x2a02
    2414:	0e3c0d00 	cdpeq	13, 3, cr0, cr12, cr0, {0}
    2418:	3a040000 	bcc	102420 <__bss_end+0xff598>
    241c:	00005e02 	andeq	r5, r0, r2, lsl #28
    2420:	08020400 	stmdaeq	r2, {sl}
    2424:	0d002302 	stceq	3, cr2, [r0, #-8]
    2428:	00000f6d 	andeq	r0, r0, sp, ror #30
    242c:	5e023b04 	vmlapl.f64	d3, d2, d4
    2430:	04000000 	streq	r0, [r0], #-0
    2434:	23020404 	movwcs	r0, #9220	; 0x2404
    2438:	0e460d00 	cdpeq	13, 4, cr0, cr6, cr0, {0}
    243c:	3c040000 	stccc	0, cr0, [r4], {-0}
    2440:	00005e02 	andeq	r5, r0, r2, lsl #28
    2444:	01030400 	tsteq	r3, r0, lsl #8
    2448:	0d002302 	stceq	3, cr2, [r0, #-8]
    244c:	000011c6 	andeq	r1, r0, r6, asr #3
    2450:	5e023d04 	cdppl	13, 0, cr3, cr2, cr4, {0}
    2454:	04000000 	streq	r0, [r0], #-0
    2458:	23020001 	movwcs	r0, #8193	; 0x2001
    245c:	2d0f0000 	stccs	0, cr0, [pc, #-0]	; 2464 <mem_tmr_restore+0x44>
    2460:	0400000c 	streq	r0, [r0], #-12
    2464:	1e14023f 	mrcne	2, 0, r0, cr4, cr15, {1}
    2468:	37110000 	ldrcc	r0, [r1, -r0]
    246c:	0c000011 	stceq	0, cr0, [r0], {17}
    2470:	02420403 	subeq	r0, r2, #50331648	; 0x3000000
    2474:	0000259b 	muleq	r0, fp, r5
    2478:	00095c12 	andeq	r5, r9, r2, lsl ip
    247c:	02440400 	subeq	r0, r4, #0
    2480:	0000259b 	muleq	r0, fp, r5
    2484:	12002302 	andne	r2, r0, #134217728	; 0x8000000
    2488:	00000e28 	andeq	r0, r0, r8, lsr #28
    248c:	c2024504 	andgt	r4, r2, #16777216	; 0x1000000
    2490:	02000002 	andeq	r0, r0, #2
    2494:	4d120423 	cfldrsmi	mvf0, [r2, #-140]	; 0xffffff74
    2498:	04000005 	streq	r0, [r0], #-5
    249c:	25a00246 	strcs	r0, [r0, #582]!	; 0x246
    24a0:	23020000 	movwcs	r0, #8192	; 0x2000
    24a4:	0e321208 	cdpeq	2, 3, cr1, cr2, cr8, {0}
    24a8:	47040000 	strmi	r0, [r4, -r0]
    24ac:	0002c202 	andeq	ip, r2, r2, lsl #4
    24b0:	0c230200 	sfmeq	f0, 4, [r3], #-0
    24b4:	000b8e12 	andeq	r8, fp, r2, lsl lr
    24b8:	02480400 	subeq	r0, r8, #0
    24bc:	000025a5 	andeq	r2, r0, r5, lsr #11
    24c0:	12102302 	andsne	r2, r0, #134217728	; 0x8000000
    24c4:	00000e3c 	andeq	r0, r0, ip, lsr lr
    24c8:	c2024904 	andgt	r4, r2, #65536	; 0x10000
    24cc:	02000002 	andeq	r0, r0, #2
    24d0:	bd121423 	cfldrslt	mvf1, [r2, #-140]	; 0xffffff74
    24d4:	04000004 	streq	r0, [r0], #-4
    24d8:	25a5024a 	strcs	r0, [r5, #586]!	; 0x24a
    24dc:	23020000 	movwcs	r0, #8192	; 0x2000
    24e0:	0e461218 	mcreq	2, 2, r1, cr6, cr8, {0}
    24e4:	4b040000 	blmi	1024ec <__bss_end+0xff664>
    24e8:	0002c202 	andeq	ip, r2, r2, lsl #4
    24ec:	1c230200 	sfmne	f0, 4, [r3], #-0
    24f0:	000d6e12 	andeq	r6, sp, r2, lsl lr
    24f4:	024c0400 	subeq	r0, ip, #0
    24f8:	000025aa 	andeq	r2, r0, sl, lsr #11
    24fc:	12202302 	eorne	r2, r0, #134217728	; 0x8000000
    2500:	00000e50 	andeq	r0, r0, r0, asr lr
    2504:	c2024d04 	andgt	r4, r2, #256	; 0x100
    2508:	02000002 	andeq	r0, r0, #2
    250c:	64122423 	ldrvs	r2, [r2], #-1059	; 0x423
    2510:	04000010 	streq	r0, [r0], #-16
    2514:	25af024e 	strcs	r0, [pc, #590]!	; 276a <mem_clk_getdiv+0x16>
    2518:	23020000 	movwcs	r0, #8192	; 0x2000
    251c:	0e5a1228 	cdpeq	2, 5, cr1, cr10, cr8, {1}
    2520:	4f040000 	svcmi	0x00040000
    2524:	0002c202 	andeq	ip, r2, r2, lsl #4
    2528:	2c230200 	sfmcs	f0, 4, [r3], #-0
    252c:	000f0112 	andeq	r0, pc, r2, lsl r1	; <UNPREDICTABLE>
    2530:	02500400 	subseq	r0, r0, #0
    2534:	000025a5 	andeq	r2, r0, r5, lsr #11
    2538:	12302302 	eorsne	r2, r0, #134217728	; 0x8000000
    253c:	00000e64 	andeq	r0, r0, r4, ror #28
    2540:	c2025104 	andgt	r5, r2, #1
    2544:	02000002 	andeq	r0, r0, #2
    2548:	9e123423 	cfmuldls	mvd3, mvd2, mvd3
    254c:	04000009 	streq	r0, [r0], #-9
    2550:	25a50252 	strcs	r0, [r5, #594]!	; 0x252
    2554:	23020000 	movwcs	r0, #8192	; 0x2000
    2558:	0e6e1238 	mcreq	2, 3, r1, cr14, cr8, {1}
    255c:	53040000 	movwpl	r0, #16384	; 0x4000
    2560:	0002c202 	andeq	ip, r2, r2, lsl #4
    2564:	3c230200 	sfmcc	f0, 4, [r3], #-0
    2568:	00064e12 	andeq	r4, r6, r2, lsl lr
    256c:	02540400 	subseq	r0, r4, #0
    2570:	000025b4 			; <UNDEFINED> instruction: 0x000025b4
    2574:	12402302 	subne	r2, r0, #134217728	; 0x8000000
    2578:	000011e2 	andeq	r1, r0, r2, ror #3
    257c:	a5025504 	strge	r5, [r2, #-1284]	; 0x504
    2580:	02000025 	andeq	r0, r0, #37	; 0x25
    2584:	b4124423 	ldrlt	r4, [r2], #-1059	; 0x423
    2588:	04000004 	streq	r0, [r0], #-4
    258c:	25a50256 	strcs	r0, [r5, #598]!	; 0x256
    2590:	23020000 	movwcs	r0, #8192	; 0x2000
    2594:	0e781248 	cdpeq	2, 7, cr1, cr8, cr8, {2}
    2598:	57040000 	strpl	r0, [r4, -r0]
    259c:	0002c202 	andeq	ip, r2, r2, lsl #4
    25a0:	4c230200 	sfmmi	f0, 4, [r3], #-0
    25a4:	000b9612 	andeq	r9, fp, r2, lsl r6
    25a8:	02580400 	subseq	r0, r8, #0
    25ac:	000025b9 			; <UNDEFINED> instruction: 0x000025b9
    25b0:	12502302 	subsne	r2, r0, #134217728	; 0x8000000
    25b4:	00000b65 	andeq	r0, r0, r5, ror #22
    25b8:	be025904 	cdplt	9, 0, cr5, cr2, cr4, {0}
    25bc:	02000025 	andeq	r0, r0, #37	; 0x25
    25c0:	a3125423 	tstge	r2, #587202560	; 0x23000000
    25c4:	04000006 	streq	r0, [r0], #-6
    25c8:	25c3025a 	strbcs	r0, [r3, #602]	; 0x25a
    25cc:	23020000 	movwcs	r0, #8192	; 0x2000
    25d0:	10551258 	subsne	r1, r5, r8, asr r2
    25d4:	5b040000 	blpl	1025dc <__bss_end+0xff754>
    25d8:	0025c802 	eoreq	ip, r5, r2, lsl #16
    25dc:	5c230200 	sfmpl	f0, 4, [r3], #-0
    25e0:	0008e112 	andeq	lr, r8, r2, lsl r1
    25e4:	025c0400 	subseq	r0, ip, #0
    25e8:	000025cd 	andeq	r2, r0, sp, asr #11
    25ec:	12602302 	rsbne	r2, r0, #134217728	; 0x8000000
    25f0:	0000079d 	muleq	r0, sp, r7
    25f4:	d2025d04 	andle	r5, r2, #256	; 0x100
    25f8:	02000025 	andeq	r0, r0, #37	; 0x25
    25fc:	e9126423 	ldmdb	r2, {r0, r1, r5, sl, sp, lr}
    2600:	04000010 	streq	r0, [r0], #-16
    2604:	25d7025e 	ldrbcs	r0, [r7, #606]	; 0x25e
    2608:	23020000 	movwcs	r0, #8192	; 0x2000
    260c:	074d1268 	strbeq	r1, [sp, -r8, ror #4]
    2610:	5f040000 	svcpl	0x00040000
    2614:	0025dc02 	eoreq	sp, r5, r2, lsl #24
    2618:	6c230200 	sfmvs	f0, 4, [r3], #-0
    261c:	000e8212 	andeq	r8, lr, r2, lsl r2
    2620:	02600400 	rsbeq	r0, r0, #0
    2624:	000025e1 	andeq	r2, r0, r1, ror #11
    2628:	12702302 	rsbsne	r2, r0, #134217728	; 0x8000000
    262c:	00001180 	andeq	r1, r0, r0, lsl #3
    2630:	e6026104 	str	r6, [r2], -r4, lsl #2
    2634:	03000025 	movweq	r0, #37	; 0x25
    2638:	12018023 	andne	r8, r1, #35	; 0x23
    263c:	00001186 	andeq	r1, r0, r6, lsl #3
    2640:	e6026204 	str	r6, [r2], -r4, lsl #4
    2644:	03000025 	movweq	r0, #37	; 0x25
    2648:	13018423 	movwne	r8, #5155	; 0x1423
    264c:	00306453 	eorseq	r6, r0, r3, asr r4
    2650:	e6026304 	str	r6, [r2], -r4, lsl #6
    2654:	03000025 	movweq	r0, #37	; 0x25
    2658:	13018823 	movwne	r8, #6179	; 0x1823
    265c:	00316453 	eorseq	r6, r1, r3, asr r4
    2660:	e6026404 	str	r6, [r2], -r4, lsl #8
    2664:	03000025 	movweq	r0, #37	; 0x25
    2668:	13018c23 	movwne	r8, #7203	; 0x1c23
    266c:	00326453 	eorseq	r6, r2, r3, asr r4
    2670:	e6026504 	str	r6, [r2], -r4, lsl #10
    2674:	03000025 	movweq	r0, #37	; 0x25
    2678:	13019023 	movwne	r9, #4131	; 0x1023
    267c:	00336453 	eorseq	r6, r3, r3, asr r4
    2680:	e6026604 	str	r6, [r2], -r4, lsl #12
    2684:	03000025 	movweq	r0, #37	; 0x25
    2688:	13019423 	movwne	r9, #5155	; 0x1423
    268c:	04007354 	streq	r7, [r0], #-852	; 0x354
    2690:	25e60267 	strbcs	r0, [r6, #615]!	; 0x267
    2694:	23030000 	movwcs	r0, #12288	; 0x3000
    2698:	53130198 	tstpl	r3, #38	; 0x26
    269c:	68040073 	stmdavs	r4, {r0, r1, r4, r5, r6}
    26a0:	0025e602 	eoreq	lr, r5, r2, lsl #12
    26a4:	9c230300 	stcls	3, cr0, [r3], #-0
    26a8:	0eec1201 	cdpeq	2, 14, cr1, cr12, cr1, {0}
    26ac:	69040000 	stmdbvs	r4, {}	; <UNPREDICTABLE>
    26b0:	0025e602 	eoreq	lr, r5, r2, lsl #12
    26b4:	a0230300 	eorge	r0, r3, r0, lsl #6
    26b8:	0ef11201 	cdpeq	2, 15, cr1, cr1, cr1, {0}
    26bc:	6a040000 	bvs	1026c4 <__bss_end+0xff83c>
    26c0:	0025e602 	eoreq	lr, r5, r2, lsl #12
    26c4:	a4230300 	strtge	r0, [r3], #-768	; 0x300
    26c8:	0ef61201 	cdpeq	2, 15, cr1, cr6, cr1, {0}
    26cc:	6b040000 	blvs	1026d4 <__bss_end+0xff84c>
    26d0:	0025e602 	eoreq	lr, r5, r2, lsl #12
    26d4:	a8230300 	stmdage	r3!, {r8, r9}
    26d8:	0d541201 	lfmeq	f1, 2, [r4, #-4]
    26dc:	6c040000 	stcvs	0, cr0, [r4], {-0}
    26e0:	0025e602 	eoreq	lr, r5, r2, lsl #12
    26e4:	ac230300 	stcge	3, cr0, [r3], #-0
    26e8:	10c51201 	sbcne	r1, r5, r1, lsl #4
    26ec:	6d040000 	stcvs	0, cr0, [r4, #-0]
    26f0:	0025eb02 	eoreq	lr, r5, r2, lsl #22
    26f4:	b0230300 	eorlt	r0, r3, r0, lsl #6
    26f8:	04a31201 	strteq	r1, [r3], #513	; 0x201
    26fc:	6e040000 	cdpvs	0, 0, cr0, cr4, cr0, {0}
    2700:	0025eb02 	eoreq	lr, r5, r2, lsl #22
    2704:	b4230300 	strtlt	r0, [r3], #-768	; 0x300
    2708:	09b11201 	ldmibeq	r1!, {r0, r9, ip}
    270c:	6f040000 	svcvs	0x00040000
    2710:	0025f002 	eoreq	pc, r5, r2
    2714:	b8230300 	stmdalt	r3!, {r8, r9}
    2718:	07e41201 	strbeq	r1, [r4, r1, lsl #4]!
    271c:	70040000 	andvc	r0, r4, r0
    2720:	0025eb02 	eoreq	lr, r5, r2, lsl #22
    2724:	c0230300 	eorgt	r0, r3, r0, lsl #6
    2728:	0b2d1201 	bleq	b46f34 <__bss_end+0xb440ac>
    272c:	71040000 	mrsvc	r0, (UNDEF: 4)
    2730:	0025f502 	eoreq	pc, r5, r2, lsl #10
    2734:	c4230300 	strtgt	r0, [r3], #-768	; 0x300
    2738:	73551301 	cmpvc	r5, #67108864	; 0x4000000
    273c:	72040062 	andvc	r0, r4, #98	; 0x62
    2740:	0025fa02 	eoreq	pc, r5, r2, lsl #20
    2744:	cc230300 	stcgt	3, cr0, [r3], #-0
    2748:	06d71201 	ldrbeq	r1, [r7], r1, lsl #4
    274c:	73040000 	movwvc	r0, #16384	; 0x4000
    2750:	0025ff02 	eoreq	pc, r5, r2, lsl #30
    2754:	d0230300 	eorle	r0, r3, r0, lsl #6
    2758:	09d31201 	ldmibeq	r3, {r0, r9, ip}^
    275c:	74040000 	strvc	r0, [r4], #-0
    2760:	00261402 	eoreq	r1, r6, r2, lsl #8
    2764:	d4230300 	strtle	r0, [r3], #-768	; 0x300
    2768:	0aaa1201 	beq	fea86f74 <__bss_end+0xfea840ec>
    276c:	75040000 	strvc	r0, [r4, #-0]
    2770:	0025e602 	eoreq	lr, r5, r2, lsl #12
    2774:	f0230300 			; <UNDEFINED> instruction: 0xf0230300
    2778:	0f931201 	svceq	0x00931201
    277c:	76040000 	strvc	r0, [r4], -r0
    2780:	00261902 	eoreq	r1, r6, r2, lsl #18
    2784:	f4230300 	vld2.8	{d0-d3}, [r3], r0
    2788:	09de1201 	ldmibeq	lr, {r0, r9, ip}^
    278c:	77040000 	strvc	r0, [r4, -r0]
    2790:	00261e02 	eoreq	r1, r6, r2, lsl #28
    2794:	f8230300 			; <UNDEFINED> instruction: 0xf8230300
    2798:	0ccb1201 	sfmeq	f1, 2, [fp], {1}
    279c:	78040000 	stmdavc	r4, {}	; <UNPREDICTABLE>
    27a0:	00262302 	eoreq	r2, r6, r2, lsl #6
    27a4:	80230300 	eorhi	r0, r3, r0, lsl #6
    27a8:	65421302 	strbvs	r1, [r2, #-770]	; 0x302
    27ac:	79040030 	stmdbvc	r4, {r4, r5}
    27b0:	00262802 	eoreq	r2, r6, r2, lsl #16
    27b4:	84230300 	strthi	r0, [r3], #-768	; 0x300
    27b8:	65421302 	strbvs	r1, [r2, #-770]	; 0x302
    27bc:	7a040031 	bvc	102888 <__bss_end+0xffa00>
    27c0:	00262802 	eoreq	r2, r6, r2, lsl #16
    27c4:	88230300 	stmdahi	r3!, {r8, r9}
    27c8:	65461302 	strbvs	r1, [r6, #-770]	; 0x302
    27cc:	7b040030 	blvc	102894 <__bss_end+0xffa0c>
    27d0:	00262802 	eoreq	r2, r6, r2, lsl #16
    27d4:	8c230300 	stchi	3, cr0, [r3], #-0
    27d8:	65461302 	strbvs	r1, [r6, #-770]	; 0x302
    27dc:	7c040031 	stcvc	0, cr0, [r4], {49}	; 0x31
    27e0:	00262802 	eoreq	r2, r6, r2, lsl #16
    27e4:	90230300 	eorls	r0, r3, r0, lsl #6
    27e8:	704d1302 	subvc	r1, sp, r2, lsl #6
    27ec:	027d0400 	rsbseq	r0, sp, #0
    27f0:	00002628 	andeq	r2, r0, r8, lsr #12
    27f4:	02942303 	addseq	r2, r4, #201326592	; 0xc000000
    27f8:	0003da12 	andeq	sp, r3, r2, lsl sl
    27fc:	027e0400 	rsbseq	r0, lr, #0
    2800:	00002628 	andeq	r2, r0, r8, lsr #12
    2804:	02982303 	addseq	r2, r8, #201326592	; 0xc000000
    2808:	000cee12 	andeq	lr, ip, r2, lsl lr
    280c:	027f0400 	rsbseq	r0, pc, #0
    2810:	00002628 	andeq	r2, r0, r8, lsr #12
    2814:	029c2303 	addseq	r2, ip, #201326592	; 0xc000000
    2818:	000b4212 	andeq	r4, fp, r2, lsl r2
    281c:	02800400 	addeq	r0, r0, #0
    2820:	0000263d 	andeq	r2, r0, sp, lsr r6
    2824:	02a02303 	adceq	r2, r0, #201326592	; 0xc000000
    2828:	0003e212 	andeq	lr, r3, r2, lsl r2
    282c:	02810400 	addeq	r0, r1, #0
    2830:	00002628 	andeq	r2, r0, r8, lsr #12
    2834:	02ac2303 	adceq	r2, ip, #201326592	; 0xc000000
    2838:	000cf612 	andeq	pc, ip, r2, lsl r6	; <UNPREDICTABLE>
    283c:	02820400 	addeq	r0, r2, #0
    2840:	00002628 	andeq	r2, r0, r8, lsr #12
    2844:	02b02303 	adcseq	r2, r0, #201326592	; 0xc000000
    2848:	000ea312 	andeq	sl, lr, r2, lsl r3
    284c:	02830400 	addeq	r0, r3, #0
    2850:	00002642 	andeq	r2, r0, r2, asr #12
    2854:	02b42303 	adcseq	r2, r4, #201326592	; 0xc000000
    2858:	000ea812 	andeq	sl, lr, r2, lsl r8
    285c:	02840400 	addeq	r0, r4, #0
    2860:	00002642 	andeq	r2, r0, r2, asr #12
    2864:	02b82303 	adcseq	r2, r8, #201326592	; 0xc000000
    2868:	00655613 	rsbeq	r5, r5, r3, lsl r6
    286c:	47028504 	strmi	r8, [r2, -r4, lsl #10]
    2870:	03000026 	movweq	r0, #38	; 0x26
    2874:	1202bc23 	andne	fp, r2, #8960	; 0x2300
    2878:	00000972 	andeq	r0, r0, r2, ror r9
    287c:	eb028604 	bl	a4094 <__bss_end+0xa120c>
    2880:	03000025 	movweq	r0, #37	; 0x25
    2884:	1302c023 	movwne	ip, #8227	; 0x2023
    2888:	00737641 	rsbseq	r7, r3, r1, asr #12
    288c:	4c028704 	stcmi	7, cr8, [r2], {4}
    2890:	03000026 	movweq	r0, #38	; 0x26
    2894:	1202c423 	andne	ip, r2, #587202560	; 0x23000000
    2898:	000002ff 	strdeq	r0, [r0], -pc	; <UNPREDICTABLE>
    289c:	eb028804 	bl	a48b4 <__bss_end+0xa1a2c>
    28a0:	03000025 	movweq	r0, #37	; 0x25
    28a4:	1202c823 	andne	ip, r2, #2293760	; 0x230000
    28a8:	00000a00 	andeq	r0, r0, r0, lsl #20
    28ac:	c2028904 	andgt	r8, r2, #65536	; 0x10000
    28b0:	03000002 	movweq	r0, #2
    28b4:	1202cc23 	andne	ip, r2, #8960	; 0x2300
    28b8:	00000343 	andeq	r0, r0, r3, asr #6
    28bc:	51028a04 	tstpl	r2, r4, lsl #20
    28c0:	03000026 	movweq	r0, #38	; 0x26
    28c4:	1302d023 	movwne	sp, #8227	; 0x2023
    28c8:	04007350 	streq	r7, [r0], #-848	; 0x350
    28cc:	25eb028b 	strbcs	r0, [fp, #651]!	; 0x28b
    28d0:	23030000 	movwcs	r0, #12288	; 0x3000
    28d4:	b31202d4 	tstlt	r2, #1073741837	; 0x4000000d
    28d8:	04000005 	streq	r0, [r0], #-5
    28dc:	25e6028c 	strbcs	r0, [r6, #652]!	; 0x28c
    28e0:	23030000 	movwcs	r0, #12288	; 0x3000
    28e4:	711202d8 			; <UNDEFINED> instruction: 0x711202d8
    28e8:	04000004 	streq	r0, [r0], #-4
    28ec:	25e6028d 	strbcs	r0, [r6, #653]!	; 0x28d
    28f0:	23030000 	movwcs	r0, #12288	; 0x3000
    28f4:	7e1202dc 	mrcvc	2, 0, r0, cr2, cr12, {6}
    28f8:	04000004 	streq	r0, [r0], #-4
    28fc:	25e6028e 	strbcs	r0, [r6, #654]!	; 0x28e
    2900:	23030000 	movwcs	r0, #12288	; 0x3000
    2904:	0b1202e0 	bleq	48348c <__bss_end+0x480604>
    2908:	0400000a 	streq	r0, [r0], #-10
    290c:	02c2028f 	sbceq	r0, r2, #-268435448	; 0xf0000008
    2910:	23030000 	movwcs	r0, #12288	; 0x3000
    2914:	e71202e4 	ldr	r0, [r2, -r4, ror #5]
    2918:	04000004 	streq	r0, [r0], #-4
    291c:	26560290 			; <UNDEFINED> instruction: 0x26560290
    2920:	23030000 	movwcs	r0, #12288	; 0x3000
    2924:	0f1202e8 	svceq	0x001202e8
    2928:	0400000e 	streq	r0, [r0], #-14
    292c:	26560291 			; <UNDEFINED> instruction: 0x26560291
    2930:	23030000 	movwcs	r0, #12288	; 0x3000
    2934:	6d1202ec 	lfmvs	f0, 4, [r2, #-944]	; 0xfffffc50
    2938:	0400000b 	streq	r0, [r0], #-11
    293c:	265b0292 			; <UNDEFINED> instruction: 0x265b0292
    2940:	23030000 	movwcs	r0, #12288	; 0x3000
    2944:	081202f0 	ldmdaeq	r2, {r4, r5, r6, r7, r9}
    2948:	04000008 	streq	r0, [r0], #-8
    294c:	25e60293 	strbcs	r0, [r6, #659]!	; 0x293
    2950:	23030000 	movwcs	r0, #12288	; 0x3000
    2954:	10120380 	andsne	r0, r2, r0, lsl #7
    2958:	04000008 	streq	r0, [r0], #-8
    295c:	25e60294 	strbcs	r0, [r6, #660]!	; 0x294
    2960:	23030000 	movwcs	r0, #12288	; 0x3000
    2964:	5a120384 	bpl	48377c <__bss_end+0x4808f4>
    2968:	04000008 	streq	r0, [r0], #-8
    296c:	25e60295 	strbcs	r0, [r6, #661]!	; 0x295
    2970:	23030000 	movwcs	r0, #12288	; 0x3000
    2974:	62120388 	andsvs	r0, r2, #536870914	; 0x20000002
    2978:	04000008 	streq	r0, [r0], #-8
    297c:	25e60296 	strbcs	r0, [r6, #662]!	; 0x296
    2980:	23030000 	movwcs	r0, #12288	; 0x3000
    2984:	1e12038c 	cdpne	3, 1, cr0, cr2, cr12, {4}
    2988:	0400000a 	streq	r0, [r0], #-10
    298c:	26600297 			; <UNDEFINED> instruction: 0x26600297
    2990:	23030000 	movwcs	r0, #12288	; 0x3000
    2994:	45120390 	ldrmi	r0, [r2, #-912]	; 0x390
    2998:	04000007 	streq	r0, [r0], #-7
    299c:	25e60298 	strbcs	r0, [r6, #664]!	; 0x298
    29a0:	23030000 	movwcs	r0, #12288	; 0x3000
    29a4:	3e1203a0 	cdpcc	3, 1, cr0, cr2, cr0, {5}
    29a8:	04000007 	streq	r0, [r0], #-7
    29ac:	25e60299 	strbcs	r0, [r6, #665]!	; 0x299
    29b0:	23030000 	movwcs	r0, #12288	; 0x3000
    29b4:	f11203a4 			; <UNDEFINED> instruction: 0xf11203a4
    29b8:	0400000b 	streq	r0, [r0], #-11
    29bc:	25e6029a 	strbcs	r0, [r6, #666]!	; 0x29a
    29c0:	23030000 	movwcs	r0, #12288	; 0x3000
    29c4:	781203a8 	ldmdavc	r2, {r3, r5, r7, r8, r9}
    29c8:	0400000b 	streq	r0, [r0], #-11
    29cc:	2675029b 			; <UNDEFINED> instruction: 0x2675029b
    29d0:	23030000 	movwcs	r0, #12288	; 0x3000
    29d4:	dc1203ac 	ldcle	3, cr0, [r2], {172}	; 0xac
    29d8:	04000007 	streq	r0, [r0], #-7
    29dc:	267a029d 			; <UNDEFINED> instruction: 0x267a029d
    29e0:	23030000 	movwcs	r0, #12288	; 0x3000
    29e4:	5e120480 	cfmv32ahpl	mvfx0, mvax2
    29e8:	0400000c 	streq	r0, [r0], #-12
    29ec:	02c2029e 	sbceq	r0, r2, #-536870903	; 0xe0000009
    29f0:	23030000 	movwcs	r0, #12288	; 0x3000
    29f4:	ca120484 	bgt	483c0c <__bss_end+0x480d84>
    29f8:	04000010 	streq	r0, [r0], #-16
    29fc:	268f029f 	pkhbtcs	r0, pc, pc, lsl #5	; <UNPREDICTABLE>
    2a00:	23030000 	movwcs	r0, #12288	; 0x3000
    2a04:	be120488 	cdplt	4, 1, cr0, cr2, cr8, {4}
    2a08:	0400000a 	streq	r0, [r0], #-10
    2a0c:	26a402a0 	strtcs	r0, [r4], r0, lsr #5
    2a10:	23030000 	movwcs	r0, #12288	; 0x3000
    2a14:	b31204a0 	tstlt	r2, #-1610612736	; 0xa0000000
    2a18:	04000006 	streq	r0, [r0], #-6
    2a1c:	02c202a1 	sbceq	r0, r2, #268435466	; 0x1000000a
    2a20:	23030000 	movwcs	r0, #12288	; 0x3000
    2a24:	d01204cc 	andsle	r0, r2, ip, asr #9
    2a28:	04000005 	streq	r0, [r0], #-5
    2a2c:	02c202a2 	sbceq	r0, r2, #536870922	; 0x2000000a
    2a30:	23030000 	movwcs	r0, #12288	; 0x3000
    2a34:	bf1204d0 	svclt	0x001204d0
    2a38:	04000006 	streq	r0, [r0], #-6
    2a3c:	26a902a3 	strtcs	r0, [r9], r3, lsr #5
    2a40:	23030000 	movwcs	r0, #12288	; 0x3000
    2a44:	1f1204d4 	svcne	0x001204d4
    2a48:	0400000b 	streq	r0, [r0], #-11
    2a4c:	02c202a4 	sbceq	r0, r2, #1073741834	; 0x4000000a
    2a50:	23030000 	movwcs	r0, #12288	; 0x3000
    2a54:	cb1204e0 	blgt	483ddc <__bss_end+0x480f54>
    2a58:	04000006 	streq	r0, [r0], #-6
    2a5c:	26ae02a5 	strtcs	r0, [lr], r5, lsr #5
    2a60:	23030000 	movwcs	r0, #12288	; 0x3000
    2a64:	da1204e4 	ble	483dfc <__bss_end+0x480f74>
    2a68:	0400000a 	streq	r0, [r0], #-10
    2a6c:	02c202a6 	sbceq	r0, r2, #1610612746	; 0x6000000a
    2a70:	23030000 	movwcs	r0, #12288	; 0x3000
    2a74:	0e1204f0 	mrceq	4, 0, r0, cr2, cr0, {7}
    2a78:	0400000d 	streq	r0, [r0], #-13
    2a7c:	26b302a7 	ldrtcs	r0, [r3], r7, lsr #5
    2a80:	23030000 	movwcs	r0, #12288	; 0x3000
    2a84:	dc1204f4 	cfldrsle	mvf0, [r2], {244}	; 0xf4
    2a88:	04000006 	streq	r0, [r0], #-6
    2a8c:	26c802a8 	strbcs	r0, [r8], r8, lsr #5
    2a90:	23030000 	movwcs	r0, #12288	; 0x3000
    2a94:	fe120580 	cdp2	5, 1, cr0, cr2, cr0, {4}
    2a98:	0400000b 	streq	r0, [r0], #-11
    2a9c:	26cd02aa 	strbcs	r0, [sp], sl, lsr #5
    2aa0:	23030000 	movwcs	r0, #12288	; 0x3000
    2aa4:	081205c0 	ldmdaeq	r2, {r6, r7, r8, sl}
    2aa8:	0400000c 	streq	r0, [r0], #-12
    2aac:	26d202ab 	ldrbcs	r0, [r2], fp, lsr #5
    2ab0:	23030000 	movwcs	r0, #12288	; 0x3000
    2ab4:	121205c4 	andsne	r0, r2, #822083584	; 0x31000000
    2ab8:	0400000c 	streq	r0, [r0], #-12
    2abc:	26d702ac 	ldrbcs	r0, [r7], ip, lsr #5
    2ac0:	23030000 	movwcs	r0, #12288	; 0x3000
    2ac4:	e31205c8 	tst	r2, #838860800	; 0x32000000
    2ac8:	0400000c 	streq	r0, [r0], #-12
    2acc:	02c202ad 	sbceq	r0, r2, #-805306358	; 0xd000000a
    2ad0:	23030000 	movwcs	r0, #12288	; 0x3000
    2ad4:	171205cc 	ldrne	r0, [r2, -ip, asr #11]
    2ad8:	0400000e 	streq	r0, [r0], #-14
    2adc:	26dc02ae 	ldrbcs	r0, [ip], lr, lsr #5
    2ae0:	23030000 	movwcs	r0, #12288	; 0x3000
    2ae4:	ff1205d0 			; <UNDEFINED> instruction: 0xff1205d0
    2ae8:	0400000a 	streq	r0, [r0], #-10
    2aec:	02c202af 	sbceq	r0, r2, #-268435446	; 0xf000000a
    2af0:	23030000 	movwcs	r0, #12288	; 0x3000
    2af4:	931205d4 	tstls	r2, #889192448	; 0x35000000
    2af8:	04000007 	streq	r0, [r0], #-7
    2afc:	26e102b0 			; <UNDEFINED> instruction: 0x26e102b0
    2b00:	23030000 	movwcs	r0, #12288	; 0x3000
    2b04:	0a1205d8 	beq	48426c <__bss_end+0x4813e4>
    2b08:	0400000b 	streq	r0, [r0], #-11
    2b0c:	26f602b1 			; <UNDEFINED> instruction: 0x26f602b1
    2b10:	23030000 	movwcs	r0, #12288	; 0x3000
    2b14:	5b1205dc 	blpl	48428c <__bss_end+0x481404>
    2b18:	04000004 	streq	r0, [r0], #-4
    2b1c:	26fb02b2 			; <UNDEFINED> instruction: 0x26fb02b2
    2b20:	23030000 	movwcs	r0, #12288	; 0x3000
    2b24:	63120680 	tstvs	r2, #134217728	; 0x8000000
    2b28:	04000004 	streq	r0, [r0], #-4
    2b2c:	26fb02b3 			; <UNDEFINED> instruction: 0x26fb02b3
    2b30:	23030000 	movwcs	r0, #12288	; 0x3000
    2b34:	67120684 	ldrvs	r0, [r2, -r4, lsl #13]
    2b38:	0400000c 	streq	r0, [r0], #-12
    2b3c:	26fb02b4 			; <UNDEFINED> instruction: 0x26fb02b4
    2b40:	23030000 	movwcs	r0, #12288	; 0x3000
    2b44:	08000688 	stmdaeq	r0, {r3, r7, r9, sl}
    2b48:	000003af 	andeq	r0, r0, pc, lsr #7
    2b4c:	00048208 	andeq	r8, r4, r8, lsl #4
    2b50:	05770800 	ldrbeq	r0, [r7, #-2048]!	; 0x800
    2b54:	6c080000 	stcvs	0, cr0, [r8], {-0}
    2b58:	08000006 	stmdaeq	r0, {r1, r2}
    2b5c:	00000783 	andeq	r0, r0, r3, lsl #15
    2b60:	0008de08 	andeq	sp, r8, r8, lsl #28
    2b64:	095c0800 	ldmdbeq	ip, {fp}^
    2b68:	eb080000 	bl	202b70 <__bss_end+0x1ffce8>
    2b6c:	08000009 	stmdaeq	r0, {r0, r3}
    2b70:	00000a69 	andeq	r0, r0, r9, ror #20
    2b74:	000aa308 	andeq	sl, sl, r8, lsl #6
    2b78:	0ca60800 	stceq	8, cr0, [r6]
    2b7c:	65080000 	strvs	r0, [r8, #-0]
    2b80:	0800000e 	stmdaeq	r0, {r1, r2, r3}
    2b84:	00000f1f 	andeq	r0, r0, pc, lsl pc
    2b88:	00101108 	andseq	r1, r0, r8, lsl #2
    2b8c:	02d70800 	sbcseq	r0, r7, #0
    2b90:	f1080000 	cpsie	
    2b94:	08000010 	stmdaeq	r0, {r4}
    2b98:	00001153 	andeq	r1, r0, r3, asr r1
    2b9c:	0002c708 	andeq	ip, r2, r8, lsl #14
    2ba0:	02c70800 	sbceq	r0, r7, #0
    2ba4:	83080000 	movwhi	r0, #32768	; 0x8000
    2ba8:	08000012 	stmdaeq	r0, {r1, r4}
    2bac:	00001309 	andeq	r1, r0, r9, lsl #6
    2bb0:	00005e09 	andeq	r5, r0, r9, lsl #28
    2bb4:	00261400 	eoreq	r1, r6, r0, lsl #8
    2bb8:	00690a00 	rsbeq	r0, r9, r0, lsl #20
    2bbc:	00060000 	andeq	r0, r6, r0
    2bc0:	00260408 	eoreq	r0, r6, r8, lsl #8
    2bc4:	13c50800 	bicne	r0, r5, #0
    2bc8:	c7080000 	strgt	r0, [r8, -r0]
    2bcc:	08000002 	stmdaeq	r0, {r1}
    2bd0:	000014fc 	strdeq	r1, [r0], -ip
    2bd4:	00157008 	andseq	r7, r5, r8
    2bd8:	005e0900 	subseq	r0, lr, r0, lsl #18
    2bdc:	263d0000 	ldrtcs	r0, [sp], -r0
    2be0:	690a0000 	stmdbvs	sl, {}	; <UNPREDICTABLE>
    2be4:	02000000 	andeq	r0, r0, #0
    2be8:	262d0800 	strtcs	r0, [sp], -r0, lsl #16
    2bec:	3e080000 	cdpcc	0, 0, cr0, cr8, cr0, {0}
    2bf0:	08000016 	stmdaeq	r0, {r1, r2, r4}
    2bf4:	000016a0 	andeq	r1, r0, r0, lsr #13
    2bf8:	00119108 	andseq	r9, r1, r8, lsl #2
    2bfc:	17260800 	strne	r0, [r6, -r0, lsl #16]!
    2c00:	f4080000 	vst4.8	{d0-d3}, [r8], r0
    2c04:	08000017 	stmdaeq	r0, {r0, r1, r2, r4}
    2c08:	000002d7 	ldrdeq	r0, [r0], -r7
    2c0c:	0002d708 	andeq	sp, r2, r8, lsl #14
    2c10:	005e0900 	subseq	r0, lr, r0, lsl #18
    2c14:	26750000 	ldrbtcs	r0, [r5], -r0
    2c18:	690a0000 	stmdbvs	sl, {}	; <UNPREDICTABLE>
    2c1c:	14000000 	strne	r0, [r0], #-0
    2c20:	26650800 	strbtcs	r0, [r5], -r0, lsl #16
    2c24:	32080000 	andcc	r0, r8, #0
    2c28:	09000018 	stmdbeq	r0, {r3, r4}
    2c2c:	0000005e 	andeq	r0, r0, lr, asr r0
    2c30:	0000268f 	andeq	r2, r0, pc, lsl #13
    2c34:	0000690a 	andeq	r6, r0, sl, lsl #18
    2c38:	08000500 	stmdaeq	r0, {r8, sl}
    2c3c:	0000267f 	andeq	r2, r0, pc, ror r6
    2c40:	00005e09 	andeq	r5, r0, r9, lsl #28
    2c44:	0026a400 	eoreq	sl, r6, r0, lsl #8
    2c48:	00690a00 	rsbeq	r0, r9, r0, lsl #20
    2c4c:	000a0000 	andeq	r0, sl, r0
    2c50:	00269408 	eoreq	r9, r6, r8, lsl #8
    2c54:	262d0800 	strtcs	r0, [sp], -r0, lsl #16
    2c58:	2d080000 	stccs	0, cr0, [r8, #-0]
    2c5c:	08000026 	stmdaeq	r0, {r1, r2, r5}
    2c60:	0000262d 	andeq	r2, r0, sp, lsr #12
    2c64:	00005e09 	andeq	r5, r0, r9, lsl #28
    2c68:	0026c800 	eoreq	ip, r6, r0, lsl #16
    2c6c:	00690a00 	rsbeq	r0, r9, r0, lsl #20
    2c70:	000f0000 	andeq	r0, pc, r0
    2c74:	0026b808 	eoreq	fp, r6, r8, lsl #16
    2c78:	1a540800 	bne	1504c80 <__bss_end+0x1501df8>
    2c7c:	2e080000 	cdpcs	0, 0, cr0, cr8, cr0, {0}
    2c80:	0800001c 	stmdaeq	r0, {r2, r3, r4}
    2c84:	00001c6c 	andeq	r1, r0, ip, ror #24
    2c88:	001d1608 	andseq	r1, sp, r8, lsl #12
    2c8c:	1e080800 	cdpne	8, 0, cr0, cr8, cr0, {0}
    2c90:	5e090000 	cdppl	0, 0, cr0, cr9, cr0, {0}
    2c94:	f6000000 			; <UNDEFINED> instruction: 0xf6000000
    2c98:	0a000026 	beq	2d38 <saved_context+0x5c>
    2c9c:	00000069 	andeq	r0, r0, r9, rrx
    2ca0:	e6080008 	str	r0, [r8], -r8
    2ca4:	08000026 	stmdaeq	r0, {r1, r2, r5}
    2ca8:	00001eb2 			; <UNDEFINED> instruction: 0x00001eb2
    2cac:	000f570f 	andeq	r5, pc, pc, lsl #14
    2cb0:	02b60400 	adcseq	r0, r6, #0
    2cb4:	00001ebe 			; <UNDEFINED> instruction: 0x00001ebe
    2cb8:	27000414 	smladcs	r0, r4, r4, r0
    2cbc:	8e050000 	cdphi	0, 0, cr0, cr5, cr0, {0}
    2cc0:	0800000d 	stmdaeq	r0, {r0, r2, r3}
    2cc4:	273b1c05 	ldrcs	r1, [fp, -r5, lsl #24]!
    2cc8:	f1060000 	cps	#0
    2ccc:	05000003 	streq	r0, [r0, #-3]
    2cd0:	00005e1d 	andeq	r5, r0, sp, lsl lr
    2cd4:	00230200 	eoreq	r0, r3, r0, lsl #4
    2cd8:	0007b506 	andeq	fp, r7, r6, lsl #10
    2cdc:	5e1e0500 	cfmul32pl	mvfx0, mvfx14, mvfx0
    2ce0:	02000000 	andeq	r0, r0, #0
    2ce4:	05000423 	streq	r0, [r0, #-1059]	; 0x423
    2ce8:	00000d98 	muleq	r0, r8, sp
    2cec:	7221050c 	eorvc	r0, r1, #50331648	; 0x3000000
    2cf0:	06000027 	streq	r0, [r0], -r7, lsr #32
    2cf4:	00000fc2 	andeq	r0, r0, r2, asr #31
    2cf8:	005e2205 	subseq	r2, lr, r5, lsl #4
    2cfc:	23020000 	movwcs	r0, #8192	; 0x2000
    2d00:	0f7e0600 	svceq	0x007e0600
    2d04:	23050000 	movwcs	r0, #20480	; 0x5000
    2d08:	0000005e 	andeq	r0, r0, lr, asr r0
    2d0c:	06042302 	streq	r2, [r4], -r2, lsl #6
    2d10:	000007f5 	strdeq	r0, [r0], -r5
    2d14:	005e2405 	subseq	r2, lr, r5, lsl #8
    2d18:	23020000 	movwcs	r0, #8192	; 0x2000
    2d1c:	40050008 	andmi	r0, r5, r8
    2d20:	08000005 	stmdaeq	r0, {r0, r2}
    2d24:	27c52705 	strbcs	r2, [r5, r5, lsl #14]
    2d28:	9b060000 	blls	182d30 <__bss_end+0x17fea8>
    2d2c:	05000006 	streq	r0, [r0, #-6]
    2d30:	00002c28 	andeq	r2, r0, r8, lsr #24
    2d34:	00230200 	eoreq	r0, r3, r0, lsl #4
    2d38:	00068b06 	andeq	r8, r6, r6, lsl #22
    2d3c:	2c290500 	cfstr32cs	mvfx0, [r9], #-0
    2d40:	02000000 	andeq	r0, r0, #0
    2d44:	93060123 	movwls	r0, #24867	; 0x6123
    2d48:	05000006 	streq	r0, [r0, #-6]
    2d4c:	00002c2a 	andeq	r2, r0, sl, lsr #24
    2d50:	02230200 	eoreq	r0, r3, #0
    2d54:	0006ab06 	andeq	sl, r6, r6, lsl #22
    2d58:	2c2b0500 	cfstr32cs	mvfx0, [fp], #-0
    2d5c:	02000000 	andeq	r0, r0, #0
    2d60:	50070323 	andpl	r0, r7, r3, lsr #6
    2d64:	05006c6c 	streq	r6, [r0, #-3180]	; 0xc6c
    2d68:	00005e2c 	andeq	r5, r0, ip, lsr #28
    2d6c:	04230200 	strteq	r0, [r3], #-512	; 0x200
    2d70:	06041500 	streq	r1, [r4], -r0, lsl #10
    2d74:	0028001b 	eoreq	r0, r8, fp, lsl r0
    2d78:	06721600 	ldrbteq	r1, [r2], -r0, lsl #12
    2d7c:	16010000 	strne	r0, [r1], -r0
    2d80:	00001147 	andeq	r1, r0, r7, asr #2
    2d84:	07c11602 	strbeq	r1, [r1, r2, lsl #12]
    2d88:	16040000 	strne	r0, [r4], -r0
    2d8c:	00000ffb 	strdeq	r0, [r0], -fp
    2d90:	06101608 	ldreq	r1, [r0], -r8, lsl #12
    2d94:	16100000 	ldrne	r0, [r0], -r0
    2d98:	000010f7 	strdeq	r1, [r0], -r7
    2d9c:	062c1620 	strteq	r1, [ip], -r0, lsr #12
    2da0:	00c00000 	sbceq	r0, r0, r0
    2da4:	00106c16 	andseq	r6, r0, r6, lsl ip
    2da8:	00018000 	andeq	r8, r1, r0
    2dac:	00048a05 	andeq	r8, r4, r5, lsl #20
    2db0:	3c062400 	cfstrscc	mvf2, [r6], {-0}
    2db4:	0000288a 	andeq	r2, r0, sl, lsl #17
    2db8:	0010f206 	andseq	pc, r0, r6, lsl #4
    2dbc:	5e3e0600 	cfmsuba32pl	mvax0, mvax0, mvfx14, mvfx0
    2dc0:	02000000 	andeq	r0, r0, #0
    2dc4:	63070023 	movwvs	r0, #28707	; 0x7023
    2dc8:	40060072 	andmi	r0, r6, r2, ror r0
    2dcc:	0000005e 	andeq	r0, r0, lr, asr r0
    2dd0:	06042302 	streq	r2, [r4], -r2, lsl #6
    2dd4:	00000e9e 	muleq	r0, lr, lr
    2dd8:	005e4106 	subseq	r4, lr, r6, lsl #2
    2ddc:	23020000 	movwcs	r0, #8192	; 0x2000
    2de0:	0ee00608 	cdpeq	6, 14, cr0, cr0, cr8, {0}
    2de4:	43060000 	movwmi	r0, #24576	; 0x6000
    2de8:	0000005e 	andeq	r0, r0, lr, asr r0
    2dec:	060c2302 	streq	r2, [ip], -r2, lsl #6
    2df0:	00000fd7 	ldrdeq	r0, [r0], -r7
    2df4:	005e4406 	subseq	r4, lr, r6, lsl #8
    2df8:	23020000 	movwcs	r0, #8192	; 0x2000
    2dfc:	0efb0610 	mrceq	6, 7, r0, cr11, cr0, {0}
    2e00:	45060000 	strmi	r0, [r6, #-0]
    2e04:	0000005e 	andeq	r0, r0, lr, asr r0
    2e08:	06142302 	ldreq	r2, [r4], -r2, lsl #6
    2e0c:	00000876 	andeq	r0, r0, r6, ror r8
    2e10:	005e4806 	subseq	r4, lr, r6, lsl #16
    2e14:	23020000 	movwcs	r0, #8192	; 0x2000
    2e18:	11cc0618 	bicne	r0, ip, r8, lsl r6
    2e1c:	4b060000 	blmi	182e24 <__bss_end+0x17ff9c>
    2e20:	0000005e 	andeq	r0, r0, lr, asr r0
    2e24:	061c2302 	ldreq	r2, [ip], -r2, lsl #6
    2e28:	00000f38 	andeq	r0, r0, r8, lsr pc
    2e2c:	005e4c06 	subseq	r4, lr, r6, lsl #24
    2e30:	23020000 	movwcs	r0, #8192	; 0x2000
    2e34:	ba170020 	blt	5c2ebc <__bss_end+0x5c0034>
    2e38:	dc000011 	stcle	0, cr0, [r0], {17}
    2e3c:	53520601 	cmppl	r2, #1048576	; 0x100000
    2e40:	06000029 	streq	r0, [r0], -r9, lsr #32
    2e44:	00000cd4 	ldrdeq	r0, [r0], -r4
    2e48:	29535306 	ldmdbcs	r3, {r1, r2, r8, r9, ip, lr}^
    2e4c:	23020000 	movwcs	r0, #8192	; 0x2000
    2e50:	12850600 	addne	r0, r5, #0
    2e54:	54060000 	strpl	r0, [r6], #-0
    2e58:	000002c2 	andeq	r0, r0, r2, asr #5
    2e5c:	06042302 	streq	r2, [r4], -r2, lsl #6
    2e60:	00000c8d 	andeq	r0, r0, sp, lsl #25
    2e64:	005e5506 	subseq	r5, lr, r6, lsl #10
    2e68:	23020000 	movwcs	r0, #8192	; 0x2000
    2e6c:	0f740608 	svceq	0x00740608
    2e70:	56060000 	strpl	r0, [r6], -r0
    2e74:	0000005e 	andeq	r0, r0, lr, asr r0
    2e78:	060c2302 	streq	r2, [ip], -r2, lsl #6
    2e7c:	000011d1 	ldrdeq	r1, [r0], -r1	; <UNPREDICTABLE>
    2e80:	005e5706 	subseq	r5, lr, r6, lsl #14
    2e84:	23020000 	movwcs	r0, #8192	; 0x2000
    2e88:	02db0610 	sbcseq	r0, fp, #16777216	; 0x1000000
    2e8c:	58060000 	stmdapl	r6, {}	; <UNPREDICTABLE>
    2e90:	0000005e 	andeq	r0, r0, lr, asr r0
    2e94:	06142302 	ldreq	r2, [r4], -r2, lsl #6
    2e98:	000006fd 	strdeq	r0, [r0], -sp
    2e9c:	005e5906 	subseq	r5, lr, r6, lsl #18
    2ea0:	23020000 	movwcs	r0, #8192	; 0x2000
    2ea4:	03720618 	cmneq	r2, #25165824	; 0x1800000
    2ea8:	5a060000 	bpl	182eb0 <__bss_end+0x180028>
    2eac:	0000295b 	andeq	r2, r0, fp, asr r9
    2eb0:	061c2302 	ldreq	r2, [ip], -r2, lsl #6
    2eb4:	0000075f 	andeq	r0, r0, pc, asr r7
    2eb8:	27125b06 	ldrcs	r5, [r2, -r6, lsl #22]
    2ebc:	23030000 	movwcs	r0, #12288	; 0x3000
    2ec0:	290601fc 	stmdbcs	r6, {r2, r3, r4, r5, r6, r7, r8}
    2ec4:	0600000a 	streq	r0, [r0], -sl
    2ec8:	00273b5c 	eoreq	r3, r7, ip, asr fp
    2ecc:	84230300 	strthi	r0, [r3], #-768	; 0x300
    2ed0:	1c8f0602 	stcne	6, cr0, [pc], {2}
    2ed4:	5d060000 	stcpl	0, cr0, [r6, #-0]
    2ed8:	00002772 	andeq	r2, r0, r2, ror r7
    2edc:	02902303 	addseq	r2, r0, #201326592	; 0xc000000
    2ee0:	00048406 	andeq	r8, r4, r6, lsl #8
    2ee4:	005e0600 	subseq	r0, lr, r0, lsl #12
    2ee8:	03000028 	movweq	r0, #40	; 0x28
    2eec:	06029823 	streq	r9, [r2], -r3, lsr #16
    2ef0:	0000101b 	andeq	r1, r0, fp, lsl r0
    2ef4:	007e5f06 	rsbseq	r5, lr, r6, lsl #30
    2ef8:	23030000 	movwcs	r0, #12288	; 0x3000
    2efc:	140002bc 	strne	r0, [r0], #-700	; 0x2bc
    2f00:	00295904 	eoreq	r5, r9, r4, lsl #18
    2f04:	09041800 	stmdbeq	r4, {fp, ip}
    2f08:	0000005e 	andeq	r0, r0, lr, asr r0
    2f0c:	0000296b 	andeq	r2, r0, fp, ror #18
    2f10:	0000690a 	andeq	r6, r0, sl, lsl #18
    2f14:	02003700 	andeq	r3, r0, #0
    2f18:	01a10704 			; <UNDEFINED> instruction: 0x01a10704
    2f1c:	01190000 	tsteq	r9, r0
    2f20:	00000aaf 	andeq	r0, r0, pc, lsr #21
    2f24:	57012b01 	strpl	r2, [r1, -r1, lsl #22]
    2f28:	cc000000 	stcgt	0, cr0, [r0], {-0}
    2f2c:	a4000001 	strge	r0, [r0], #-1
    2f30:	5c000002 	stcpl	0, cr0, [r0], {2}
    2f34:	1a000001 	bne	2f40 <__bss_end+0xb8>
    2f38:	000e0701 	andeq	r0, lr, r1, lsl #14
    2f3c:	01720100 	cmneq	r2, r0, lsl #2
    2f40:	000002a4 	andeq	r0, r0, r4, lsr #5
    2f44:	00000568 	andeq	r0, r0, r8, ror #10
    2f48:	0000017c 	andeq	r0, r0, ip, ror r1
    2f4c:	00002a02 	andeq	r2, r0, r2, lsl #20
    2f50:	000f091b 	andeq	r0, pc, fp, lsl r9	; <UNPREDICTABLE>
    2f54:	0c740100 	ldfeqe	f0, [r4], #-0
    2f58:	9c000027 	stcls	0, cr0, [r0], {39}	; 0x27
    2f5c:	1b000001 	blne	2f68 <__bss_end+0xe0>
    2f60:	0000105d 	andeq	r1, r0, sp, asr r0
    2f64:	005e7501 	subseq	r7, lr, r1, lsl #10
    2f68:	01c50000 	biceq	r0, r5, r0
    2f6c:	d01c0000 	andsle	r0, ip, r0
    2f70:	01000002 	tsteq	r0, r2
    2f74:	00005e76 	andeq	r5, r0, r6, ror lr
    2f78:	1c1c0000 	ldcne	0, cr0, [ip], {-0}
    2f7c:	0100000c 	tsteq	r0, ip
    2f80:	00005e77 	andeq	r5, r0, r7, ror lr
    2f84:	301c0000 	andscc	r0, ip, r0
    2f88:	01000005 	tsteq	r0, r5
    2f8c:	00005e78 	andeq	r5, r0, r8, ror lr
    2f90:	311b0000 	tstcc	fp, r0
    2f94:	01000002 	tsteq	r0, r2
    2f98:	00005e79 	andeq	r5, r0, r9, ror lr
    2f9c:	00020900 	andeq	r0, r2, r0, lsl #18
    2fa0:	078a1c00 	streq	r1, [sl, r0, lsl #24]
    2fa4:	7a010000 	bvc	42fac <__bss_end+0x40124>
    2fa8:	0000005e 	andeq	r0, r0, lr, asr r0
    2fac:	491d0000 	ldmdbmi	sp, {}	; <UNPREDICTABLE>
    2fb0:	0100000f 	tsteq	r0, pc
    2fb4:	00288a06 	eoreq	r8, r8, r6, lsl #20
    2fb8:	b4030500 	strlt	r0, [r3], #-1280	; 0x500
    2fbc:	1e000029 	cdpne	0, 0, cr0, cr0, cr9, {1}
    2fc0:	00000aa4 	andeq	r0, r0, r4, lsr #21
    2fc4:	004c0a01 	subeq	r0, ip, r1, lsl #20
    2fc8:	601e0000 	andsvs	r0, lr, r0
    2fcc:	0100000a 	tsteq	r0, sl
    2fd0:	00004c0a 	andeq	r4, r0, sl, lsl #24
    2fd4:	11ea1e00 	mvnne	r1, r0, lsl #28
    2fd8:	0b010000 	bleq	42fe0 <__bss_end+0x40158>
    2fdc:	0000005e 	andeq	r0, r0, lr, asr r0
    2fe0:	0003f91d 	andeq	pc, r3, sp, lsl r9	; <UNPREDICTABLE>
    2fe4:	450c0100 	strmi	r0, [ip, #-256]	; 0x100
    2fe8:	0500002a 	streq	r0, [r0, #-42]	; 0x2a
    2fec:	0029b003 	eoreq	fp, r9, r3
    2ff0:	4b041400 	blmi	107ff8 <__bss_end+0x105170>
    2ff4:	0200002a 	andeq	r0, r0, #42	; 0x2a
    2ff8:	00810801 	addeq	r0, r1, r1, lsl #16
    2ffc:	791c0000 	ldmdbvc	ip, {}	; <UNPREDICTABLE>
    3000:	01000012 	tsteq	r0, r2, lsl r0
    3004:	00005e0d 	andeq	r5, r0, sp, lsl #28
    3008:	6a1f0000 	bvs	7c3010 <__bss_end+0x7c0188>
    300c:	01000008 	tsteq	r0, r8
    3010:	002a4508 	eoreq	r4, sl, r8, lsl #10
    3014:	1f010100 	svcne	0x00010100
    3018:	0000055c 	andeq	r0, r0, ip, asr r5
    301c:	2a450901 	bcs	1145428 <__bss_end+0x11425a0>
    3020:	01010000 	mrseq	r0, (UNDEF: 1)
    3024:	00021e00 	andeq	r1, r2, r0, lsl #28
    3028:	31000200 	mrscc	r0, R8_usr
    302c:	04000004 	streq	r0, [r0], #-4
    3030:	00009a01 	andeq	r9, r0, r1, lsl #20
    3034:	122d0100 	eorne	r0, sp, #0
    3038:	00bc0000 	adcseq	r0, ip, r0
    303c:	05680000 	strbeq	r0, [r8, #-0]!
    3040:	06940000 	ldreq	r0, [r4], r0
    3044:	04080000 	streq	r0, [r8], #-0
    3048:	01020000 	mrseq	r0, (UNDEF: 2)
    304c:	00007a06 	andeq	r7, r0, r6, lsl #20
    3050:	08010200 	stmdaeq	r1, {r9}
    3054:	00000078 	andeq	r0, r0, r8, ror r0
    3058:	90050202 	andls	r0, r5, r2, lsl #4
    305c:	02000000 	andeq	r0, r0, #0
    3060:	012e0702 	teqeq	lr, r2, lsl #14
    3064:	04030000 	streq	r0, [r3], #-0
    3068:	746e6905 	strbtvc	r6, [lr], #-2309	; 0x905
    306c:	00000400 	andeq	r0, r0, r0, lsl #8
    3070:	13020000 	movwne	r0, #8192	; 0x2000
    3074:	00000053 	andeq	r0, r0, r3, asr r0
    3078:	a6070402 	strge	r0, [r7], -r2, lsl #8
    307c:	02000001 	andeq	r0, r0, #1
    3080:	01860508 	orreq	r0, r6, r8, lsl #10
    3084:	08020000 	stmdaeq	r2, {}	; <UNPREDICTABLE>
    3088:	00019c07 	andeq	r9, r1, r7, lsl #24
    308c:	00480500 	subeq	r0, r8, r0, lsl #10
    3090:	01060000 	mrseq	r0, (UNDEF: 6)
    3094:	00001220 	andeq	r1, r0, r0, lsr #4
    3098:	68010c01 	stmdavs	r1, {r0, sl, fp}
    309c:	88000005 	stmdahi	r0, {r0, r2}
    30a0:	34000005 	strcc	r0, [r0], #-5
    30a4:	95000002 	strls	r0, [r0, #-2]
    30a8:	07000000 	streq	r0, [r0, -r0]
    30ac:	000012a5 	andeq	r1, r0, r5, lsr #5
    30b0:	00680f01 	rsbeq	r0, r8, r1, lsl #30
    30b4:	91020000 	mrsls	r0, (UNDEF: 2)
    30b8:	01060074 	tsteq	r6, r4, ror r0
    30bc:	0000121b 	andeq	r1, r0, fp, lsl r2
    30c0:	88011601 	stmdahi	r1, {r0, r9, sl, ip}
    30c4:	a8000005 	stmdage	r0, {r0, r2}
    30c8:	54000005 	strpl	r0, [r0], #-5
    30cc:	bd000002 	stclt	0, cr0, [r0, #-8]
    30d0:	07000000 	streq	r0, [r0, -r0]
    30d4:	000012a5 	andeq	r1, r0, r5, lsr #5
    30d8:	00681901 	rsbeq	r1, r8, r1, lsl #18
    30dc:	91020000 	mrsls	r0, (UNDEF: 2)
    30e0:	01080074 	tsteq	r8, r4, ror r0
    30e4:	00001280 	andeq	r1, r0, r0, lsl #5
    30e8:	a8012401 	stmdage	r1, {r0, sl, sp}
    30ec:	ac000005 	stcge	0, cr0, [r0], {5}
    30f0:	02000005 	andeq	r0, r0, #5
    30f4:	0108007d 	tsteq	r8, sp, ror r0
    30f8:	000012af 	andeq	r1, r0, pc, lsr #5
    30fc:	ac013401 	cfstrsge	mvf3, [r1], {1}
    3100:	b0000005 	andlt	r0, r0, r5
    3104:	02000005 	andeq	r0, r0, #5
    3108:	0106007d 	tsteq	r6, sp, ror r0
    310c:	00001270 	andeq	r1, r0, r0, ror r2
    3110:	b0013f01 	andlt	r3, r1, r1, lsl #30
    3114:	d0000005 	andle	r0, r0, r5
    3118:	74000005 	strvc	r0, [r0], #-5
    311c:	0c000002 	stceq	0, cr0, [r0], {2}
    3120:	09000001 	stmdbeq	r0, {r0}
    3124:	006c6176 	rsbeq	r6, ip, r6, ror r1
    3128:	00683f01 	rsbeq	r3, r8, r1, lsl #30
    312c:	50010000 	andpl	r0, r1, r0
    3130:	8e010a00 	vmlahi.f32	s0, s2, s0
    3134:	01000012 	tsteq	r0, r2, lsl r0
    3138:	00480145 	subeq	r0, r8, r5, asr #2
    313c:	05d00000 	ldrbeq	r0, [r0]
    3140:	05e00000 	strbeq	r0, [r0, #0]!
    3144:	7d020000 	stcvc	0, cr0, [r2, #-0]
    3148:	f9010600 			; <UNDEFINED> instruction: 0xf9010600
    314c:	01000011 	tsteq	r0, r1, lsl r0
    3150:	05e0014a 	strbeq	r0, [r0, #330]!	; 0x14a
    3154:	05fc0000 	ldrbeq	r0, [ip, #0]!
    3158:	02940000 	addseq	r0, r4, #0
    315c:	014b0000 	mrseq	r0, (UNDEF: 75)
    3160:	76090000 	strvc	r0, [r9], -r0
    3164:	01006c61 	tsteq	r0, r1, ror #24
    3168:	0000684a 	andeq	r6, r0, sl, asr #16
    316c:	00500100 	subseq	r0, r0, r0, lsl #2
    3170:	123d0106 	eorsne	r0, sp, #-2147483647	; 0x80000001
    3174:	50010000 	andpl	r0, r1, r0
    3178:	0005fc01 	andeq	pc, r5, r1, lsl #24
    317c:	00061800 	andeq	r1, r6, r0, lsl #16
    3180:	0002b400 	andeq	fp, r2, r0, lsl #8
    3184:	00017200 	andeq	r7, r1, r0, lsl #4
    3188:	61760900 	cmnvs	r6, r0, lsl #18
    318c:	5001006c 	andpl	r0, r1, ip, rrx
    3190:	00000068 	andeq	r0, r0, r8, rrx
    3194:	08005001 	stmdaeq	r0, {r0, ip, lr}
    3198:	00129d01 	andseq	r9, r2, r1, lsl #26
    319c:	015c0100 	cmpeq	ip, r0, lsl #2
    31a0:	00000618 	andeq	r0, r0, r8, lsl r6
    31a4:	00000630 	andeq	r0, r0, r0, lsr r6
    31a8:	0b007d02 	bleq	225b8 <__bss_end+0x1f730>
    31ac:	00125801 	andseq	r5, r2, r1, lsl #16
    31b0:	01640100 	cmneq	r4, r0, lsl #2
    31b4:	00000630 	andeq	r0, r0, r0, lsr r6
    31b8:	00000648 	andeq	r0, r0, r8, asr #12
    31bc:	ac007d02 	stcge	13, cr7, [r0], {2}
    31c0:	07000001 	streq	r0, [r0, -r1]
    31c4:	000011f4 	strdeq	r1, [r0], -r4
    31c8:	00486601 	subeq	r6, r8, r1, lsl #12
    31cc:	52010000 	andpl	r0, r1, #0
    31d0:	0f010b00 	svceq	0x00010b00
    31d4:	01000012 	tsteq	r0, r2, lsl r0
    31d8:	06480170 			; <UNDEFINED> instruction: 0x06480170
    31dc:	06600000 	strbteq	r0, [r0], -r0
    31e0:	7d020000 	stcvc	0, cr0, [r2, #-0]
    31e4:	0001d200 	andeq	sp, r1, r0, lsl #4
    31e8:	11f40700 	mvnsne	r0, r0, lsl #14
    31ec:	72010000 	andvc	r0, r1, #0
    31f0:	00000048 	andeq	r0, r0, r8, asr #32
    31f4:	06005201 	streq	r5, [r0], -r1, lsl #4
    31f8:	0012be01 	andseq	fp, r2, r1, lsl #28
    31fc:	017f0100 	cmneq	pc, r0, lsl #2
    3200:	00000660 	andeq	r0, r0, r0, ror #12
    3204:	00000694 	muleq	r0, r4, r6
    3208:	000002d4 	ldrdeq	r0, [r0], -r4
    320c:	0000020a 	andeq	r0, r0, sl, lsl #4
    3210:	6d756e0c 	ldclvs	14, cr6, [r5, #-48]!	; 0xffffffd0
    3214:	417f0100 	cmnmi	pc, r0, lsl #2
    3218:	f4000000 	vst4.8	{d0-d3}, [r0], r0
    321c:	0d000002 	stceq	0, cr0, [r0, #-8]
    3220:	000011f4 	strdeq	r1, [r0], -r4
    3224:	00488101 	subeq	r8, r8, r1, lsl #2
    3228:	03070000 	movweq	r0, #28672	; 0x7000
    322c:	0e000000 	cdpeq	0, 0, cr0, cr0, cr0, {0}
    3230:	00001265 	andeq	r1, r0, r5, ror #4
    3234:	021c0a01 	andseq	r0, ip, #4096	; 0x1000
    3238:	05010000 	streq	r0, [r1, #-0]
    323c:	002b9003 	eoreq	r9, fp, r3
    3240:	00410500 	subeq	r0, r1, r0, lsl #10
    3244:	61000000 	mrsvs	r0, (UNDEF: 0)
    3248:	02000004 	andeq	r0, r0, #4
    324c:	00051600 	andeq	r1, r5, r0, lsl #12
    3250:	9a010400 	bls	44258 <__bss_end+0x413d0>
    3254:	01000000 	mrseq	r0, (UNDEF: 0)
    3258:	0000137d 	andeq	r1, r0, sp, ror r3
    325c:	000000bc 	strheq	r0, [r0], -ip
    3260:	00000694 	muleq	r0, r4, r6
    3264:	00000900 	andeq	r0, r0, r0, lsl #18
    3268:	00000494 	muleq	r0, r4, r4
    326c:	7a060102 	bvc	18367c <__bss_end+0x1807f4>
    3270:	02000000 	andeq	r0, r0, #0
    3274:	00780801 	rsbseq	r0, r8, r1, lsl #16
    3278:	02020000 	andeq	r0, r2, #0
    327c:	00009005 	andeq	r9, r0, r5
    3280:	07020200 	streq	r0, [r2, -r0, lsl #4]
    3284:	0000012e 	andeq	r0, r0, lr, lsr #2
    3288:	00023903 	andeq	r3, r2, r3, lsl #18
    328c:	4c120200 	lfmmi	f0, 4, [r2], {-0}
    3290:	04000000 	streq	r0, [r0], #-0
    3294:	6e690504 	cdpvs	5, 6, cr0, cr9, cr4, {0}
    3298:	00030074 	andeq	r0, r3, r4, ror r0
    329c:	02000000 	andeq	r0, r0, #0
    32a0:	00005e13 	andeq	r5, r0, r3, lsl lr
    32a4:	07040200 	streq	r0, [r4, -r0, lsl #4]
    32a8:	000001a6 	andeq	r0, r0, r6, lsr #3
    32ac:	86050802 	strhi	r0, [r5], -r2, lsl #16
    32b0:	02000001 	andeq	r0, r0, #1
    32b4:	019c0708 	orrseq	r0, ip, r8, lsl #14
    32b8:	82050000 	andhi	r0, r5, #0
    32bc:	04000014 	streq	r0, [r0], #-20
    32c0:	00982703 	addseq	r2, r8, r3, lsl #14
    32c4:	d9060000 	stmdble	r6, {}	; <UNPREDICTABLE>
    32c8:	01000012 	tsteq	r0, r2, lsl r0
    32cc:	00130f06 	andseq	r0, r3, r6, lsl #30
    32d0:	27060200 	strcs	r0, [r6, -r0, lsl #4]
    32d4:	03000014 	movweq	r0, #20
    32d8:	00143406 	andseq	r3, r4, r6, lsl #8
    32dc:	07000500 	streq	r0, [r0, -r0, lsl #10]
    32e0:	00000053 	andeq	r0, r0, r3, asr r0
    32e4:	13d50108 	bicsne	r0, r5, #2
    32e8:	41010000 	mrsmi	r0, (UNDEF: 1)
    32ec:	00005301 	andeq	r5, r0, r1, lsl #6
    32f0:	00bb0100 	adcseq	r0, fp, r0, lsl #2
    32f4:	16090000 	strne	r0, [r9], -r0
    32f8:	01000016 	tsteq	r0, r6, lsl r0
    32fc:	00005343 	andeq	r5, r0, r3, asr #6
    3300:	130a0000 	movwne	r0, #40960	; 0xa000
    3304:	01000014 	tsteq	r0, r4, lsl r0
    3308:	005301c5 	subseq	r0, r3, r5, asr #3
    330c:	e3010000 	movw	r0, #4096	; 0x1000
    3310:	0b000000 	bleq	3318 <__bss_end+0x490>
    3314:	000013ed 	andeq	r1, r0, sp, ror #7
    3318:	0073c501 	rsbseq	ip, r3, r1, lsl #10
    331c:	fb090000 	blx	243326 <__bss_end+0x24049e>
    3320:	01000013 	tsteq	r0, r3, lsl r0
    3324:	00004cc7 	andeq	r4, r0, r7, asr #25
    3328:	010c0000 	mrseq	r0, (UNDEF: 12)
    332c:	0000136b 	andeq	r1, r0, fp, ror #6
    3330:	94010e01 	strls	r0, [r1], #-3585	; 0xe01
    3334:	c0000006 	andgt	r0, r0, r6
    3338:	02000006 	andeq	r0, r0, #6
    333c:	0127007d 	teqeq	r7, sp, ror r0
    3340:	f20d0000 	vhadd.s8	d0, d13, d0
    3344:	01000013 	tsteq	r0, r3, lsl r0
    3348:	0000530e 	andeq	r5, r0, lr, lsl #6
    334c:	00032500 	andeq	r2, r3, r0, lsl #10
    3350:	13a20e00 			; <UNDEFINED> instruction: 0x13a20e00
    3354:	0e010000 	cdpeq	0, 0, cr0, cr1, cr0, {0}
    3358:	00000053 	andeq	r0, r0, r3, asr r0
    335c:	160f5101 	strne	r5, [pc], -r1, lsl #2
    3360:	01000016 	tsteq	r0, r6, lsl r0
    3364:	00005311 	andeq	r5, r0, r1, lsl r3
    3368:	00033800 	andeq	r3, r3, r0, lsl #16
    336c:	01100000 	tsteq	r0, r0
    3370:	000012c6 	andeq	r1, r0, r6, asr #5
    3374:	c0012c01 	andgt	r2, r1, r1, lsl #24
    3378:	dc000006 	stcle	0, cr0, [r0], {6}
    337c:	02000006 	andeq	r0, r0, #6
    3380:	0110007d 	tsteq	r0, sp, ror r0
    3384:	0000145c 	andeq	r1, r0, ip, asr r4
    3388:	dc013601 	stcle	6, cr3, [r1], {1}
    338c:	00000006 	andeq	r0, r0, r6
    3390:	02000007 	andeq	r0, r0, #7
    3394:	9d11007d 	ldcls	0, cr0, [r1, #-500]	; 0xfffffe0c
    3398:	00000000 	andeq	r0, r0, r0
    339c:	08000007 	stmdaeq	r0, {r0, r1, r2}
    33a0:	02000007 	andeq	r0, r0, #7
    33a4:	016b007d 	smceq	45069	; 0xb00d
    33a8:	af120000 	svcge	0x00120000
    33ac:	01000000 	mrseq	r0, (UNDEF: 0)
    33b0:	010c0050 	qaddeq	r0, r0, ip
    33b4:	00001321 	andeq	r1, r0, r1, lsr #6
    33b8:	08014901 	stmdaeq	r1, {r0, r8, fp, lr}
    33bc:	1c000007 	stcne	0, cr0, [r0], {7}
    33c0:	02000007 	andeq	r0, r0, #7
    33c4:	0193007d 	orrseq	r0, r3, sp, ror r0
    33c8:	160f0000 	strne	r0, [pc], -r0
    33cc:	01000016 	tsteq	r0, r6, lsl r0
    33d0:	0000534b 	andeq	r5, r0, fp, asr #6
    33d4:	00038100 	andeq	r8, r3, r0, lsl #2
    33d8:	01130000 	tsteq	r3, r0
    33dc:	000013b1 			; <UNDEFINED> instruction: 0x000013b1
    33e0:	1c015401 	cfstrsne	mvf5, [r1], {1}
    33e4:	18000007 	stmdane	r0, {r0, r1, r2}
    33e8:	a1000008 	tstge	r0, r8
    33ec:	60000003 	andvs	r0, r0, r3
    33f0:	0d000002 	stceq	0, cr0, [r0, #-8]
    33f4:	000013e4 	andeq	r1, r0, r4, ror #7
    33f8:	00535401 	subseq	r5, r3, r1, lsl #8
    33fc:	03cd0000 	biceq	r0, sp, #0
    3400:	520f0000 	andpl	r0, pc, #0
    3404:	01000013 	tsteq	r0, r3, lsl r0
    3408:	00005356 	andeq	r5, r0, r6, asr r3
    340c:	0003e000 	andeq	lr, r3, r0
    3410:	13400f00 	movtne	r0, #3840	; 0xf00
    3414:	57010000 	strpl	r0, [r1, -r0]
    3418:	00000053 	andeq	r0, r0, r3, asr r0
    341c:	00000413 	andeq	r0, r0, r3, lsl r4
    3420:	0013490f 	andseq	r4, r3, pc, lsl #18
    3424:	53580100 	cmppl	r8, #0
    3428:	46000000 	strmi	r0, [r0], -r0
    342c:	0f000004 	svceq	0x00000004
    3430:	00000870 	andeq	r0, r0, r0, ror r8
    3434:	00535901 	subseq	r5, r3, r1, lsl #18
    3438:	04820000 	streq	r0, [r2], #0
    343c:	cd0f0000 	stcgt	0, cr0, [pc, #-0]	; 3444 <__bss_end+0x5bc>
    3440:	01000013 	tsteq	r0, r3, lsl r0
    3444:	0000535a 	andeq	r5, r0, sl, asr r3
    3448:	00049600 	andeq	r9, r4, r0, lsl #12
    344c:	132f0f00 	teqne	pc, #0
    3450:	5b010000 	blpl	43458 <__bss_end+0x405d0>
    3454:	00000098 	muleq	r0, r8, r0
    3458:	000004b5 			; <UNDEFINED> instruction: 0x000004b5
    345c:	00009d14 	andeq	r9, r0, r4, lsl sp
    3460:	00075800 	andeq	r5, r7, r0, lsl #16
    3464:	00075c00 	andeq	r5, r7, r0, lsl #24
    3468:	3c650100 	stfcce	f0, [r5], #-0
    346c:	15000002 	strne	r0, [r0, #-2]
    3470:	00000758 	andeq	r0, r0, r8, asr r7
    3474:	0000075c 	andeq	r0, r0, ip, asr r7
    3478:	0000af16 	andeq	sl, r0, r6, lsl pc
    347c:	0004f700 	andeq	pc, r4, r0, lsl #14
    3480:	17000000 	strne	r0, [r0, -r0]
    3484:	0000009d 	muleq	r0, sp, r0
    3488:	0000075c 	andeq	r0, r0, ip, asr r7
    348c:	00000760 	andeq	r0, r0, r0, ror #14
    3490:	5c156601 	ldcpl	6, cr6, [r5], {1}
    3494:	60000007 	andvs	r0, r0, r7
    3498:	16000007 	strne	r0, [r0], -r7
    349c:	000000af 	andeq	r0, r0, pc, lsr #1
    34a0:	0000050a 	andeq	r0, r0, sl, lsl #10
    34a4:	13000000 	movwne	r0, #0
    34a8:	00133701 	andseq	r3, r3, r1, lsl #14
    34ac:	01860100 	orreq	r0, r6, r0, lsl #2
    34b0:	00000818 	andeq	r0, r0, r8, lsl r8
    34b4:	00000870 	andeq	r0, r0, r0, ror r8
    34b8:	0000051d 	andeq	r0, r0, sp, lsl r5
    34bc:	000002ff 	strdeq	r0, [r0], -pc	; <UNPREDICTABLE>
    34c0:	00737518 	rsbseq	r7, r3, r8, lsl r5
    34c4:	00538601 	subseq	r8, r3, r1, lsl #12
    34c8:	053d0000 	ldreq	r0, [sp, #-0]!
    34cc:	640f0000 	strvs	r0, [pc], #-0	; 34d4 <__bss_end+0x64c>
    34d0:	01000013 	tsteq	r0, r3, lsl r0
    34d4:	00005388 	andeq	r5, r0, r8, lsl #7
    34d8:	00055b00 	andeq	r5, r5, r0, lsl #22
    34dc:	75631900 	strbvc	r1, [r3, #-2304]!	; 0x900
    34e0:	89010072 	stmdbhi	r1, {r1, r4, r5, r6}
    34e4:	00000053 	andeq	r0, r0, r3, asr r0
    34e8:	0000057f 	andeq	r0, r0, pc, ror r5
    34ec:	00131a0f 	andseq	r1, r3, pc, lsl #20
    34f0:	538a0100 	orrpl	r0, sl, #0
    34f4:	a9000000 	stmdbge	r0, {}	; <UNPREDICTABLE>
    34f8:	14000005 	strne	r0, [r0], #-5
    34fc:	0000009d 	muleq	r0, sp, r0
    3500:	00000838 	andeq	r0, r0, r8, lsr r8
    3504:	0000083c 	andeq	r0, r0, ip, lsr r8
    3508:	02db9501 	sbcseq	r9, fp, #4194304	; 0x400000
    350c:	38150000 	ldmdacc	r5, {}	; <UNPREDICTABLE>
    3510:	3c000008 	stccc	0, cr0, [r0], {8}
    3514:	16000008 	strne	r0, [r0], -r8
    3518:	000000af 	andeq	r0, r0, pc, lsr #1
    351c:	000005d7 	ldrdeq	r0, [r0], -r7
    3520:	9d170000 	ldcls	0, cr0, [r7, #-0]
    3524:	58000000 	stmdapl	r0, {}	; <UNPREDICTABLE>
    3528:	5c000008 	stcpl	0, cr0, [r0], {8}
    352c:	01000008 	tsteq	r0, r8
    3530:	0858159a 	ldmdaeq	r8, {r1, r3, r4, r7, r8, sl, ip}^
    3534:	085c0000 	ldmdaeq	ip, {}^	; <UNPREDICTABLE>
    3538:	af160000 	svcge	0x00160000
    353c:	ea000000 	b	3544 <__bss_end+0x6bc>
    3540:	00000005 	andeq	r0, r0, r5
    3544:	010c0000 	mrseq	r0, (UNDEF: 12)
    3548:	00000705 	andeq	r0, r0, r5, lsl #14
    354c:	7001bd01 	andvc	fp, r1, r1, lsl #26
    3550:	7c000008 	stcvc	0, cr0, [r0], {8}
    3554:	02000008 	andeq	r0, r0, #8
    3558:	0326007d 	teqeq	r6, #125	; 0x7d
    355c:	6d180000 	ldcvs	0, cr0, [r8, #-0]
    3560:	bd010073 	stclt	0, cr0, [r1, #-460]	; 0xfffffe34
    3564:	00000053 	andeq	r0, r0, r3, asr r0
    3568:	000005fd 	strdeq	r0, [r0], -sp
    356c:	8f010c00 	svchi	0x00010c00
    3570:	01000013 	tsteq	r0, r3, lsl r0
    3574:	087c01df 	ldmdaeq	ip!, {r0, r1, r2, r3, r4, r6, r7, r8}^
    3578:	08a80000 	stmiaeq	r8!, {}	; <UNPREDICTABLE>
    357c:	7d020000 	stcvc	0, cr0, [r2, #-0]
    3580:	00036a00 	andeq	r6, r3, r0, lsl #20
    3584:	13f20d00 	mvnsne	r0, #0
    3588:	df010000 	svcle	0x00010000
    358c:	00000053 	andeq	r0, r0, r3, asr r0
    3590:	00000610 	andeq	r0, r0, r0, lsl r6
    3594:	0013a20e 	andseq	sl, r3, lr, lsl #4
    3598:	53df0100 	bicspl	r0, pc, #0
    359c:	01000000 	mrseq	r0, (UNDEF: 0)
    35a0:	16160f51 	ssaxne	r0, r6, r1
    35a4:	e2010000 	and	r0, r1, #0
    35a8:	00000053 	andeq	r0, r0, r3, asr r0
    35ac:	00000623 	andeq	r0, r0, r3, lsr #12
    35b0:	01010c00 	tsteq	r1, r0, lsl #24
    35b4:	01000014 	tsteq	r0, r4, lsl r0
    35b8:	08a801fd 	stmiaeq	r8!, {r0, r2, r3, r4, r5, r6, r7, r8}
    35bc:	08d40000 	ldmeq	r4, {}^	; <UNPREDICTABLE>
    35c0:	7d020000 	stcvc	0, cr0, [r2, #-0]
    35c4:	0003b800 	andeq	fp, r3, r0, lsl #16
    35c8:	13ed0e00 	mvnne	r0, #0
    35cc:	fd010000 	stc2	0, cr0, [r1, #-0]
    35d0:	00000073 	andeq	r0, r0, r3, ror r0
    35d4:	fb1a5001 	blx	6975e2 <__bss_end+0x69475a>
    35d8:	01000013 	tsteq	r0, r3, lsl r0
    35dc:	00530100 	subseq	r0, r3, r0, lsl #2
    35e0:	066c0000 	strbteq	r0, [ip], -r0
    35e4:	bb1b0000 	bllt	6c35ec <__bss_end+0x6c0764>
    35e8:	a8000000 	stmdage	r0, {}	; <UNPREDICTABLE>
    35ec:	bc000008 	stclt	0, cr0, [r0], {8}
    35f0:	01000008 	tsteq	r0, r8
    35f4:	cc1c0101 	ldfgts	f0, [ip], {1}
    35f8:	01000000 	mrseq	r0, (UNDEF: 0)
    35fc:	1d000050 	stcne	0, cr0, [r0, #-320]	; 0xfffffec0
    3600:	00147001 	andseq	r7, r4, r1
    3604:	01100100 	tsteq	r0, r0, lsl #2
    3608:	00004c01 	andeq	r4, r0, r1, lsl #24
    360c:	0008d400 	andeq	sp, r8, r0, lsl #8
    3610:	00090000 	andeq	r0, r9, r0
    3614:	007d0200 	rsbseq	r0, sp, r0, lsl #4
    3618:	00000420 	andeq	r0, r0, r0, lsr #8
    361c:	0013ed1e 	andseq	lr, r3, lr, lsl sp
    3620:	01100100 	tsteq	r0, r0, lsl #2
    3624:	00000073 	andeq	r0, r0, r3, ror r0
    3628:	00000680 	andeq	r0, r0, r0, lsl #13
    362c:	0013fb1a 	andseq	pc, r3, sl, lsl fp	; <UNPREDICTABLE>
    3630:	01120100 	tsteq	r2, r0, lsl #2
    3634:	0000004c 	andeq	r0, r0, ip, asr #32
    3638:	000006a0 	andeq	r0, r0, r0, lsr #13
    363c:	0012e61a 	andseq	lr, r2, sl, lsl r6
    3640:	01130100 	tsteq	r3, r0, lsl #2
    3644:	0000004c 	andeq	r0, r0, ip, asr #32
    3648:	000006bf 			; <UNDEFINED> instruction: 0x000006bf
    364c:	0000bb1b 	andeq	fp, r0, fp, lsl fp
    3650:	0008d400 	andeq	sp, r8, r0, lsl #8
    3654:	0008e800 	andeq	lr, r8, r0, lsl #16
    3658:	01140100 	tsteq	r4, r0, lsl #2
    365c:	0000cc1f 	andeq	ip, r0, pc, lsl ip
    3660:	00068000 	andeq	r8, r6, r0
    3664:	20000000 	andcs	r0, r0, r0
    3668:	0000135b 	andeq	r1, r0, fp, asr r3
    366c:	00530701 	subseq	r0, r3, r1, lsl #14
    3670:	03050000 	movweq	r0, #20480	; 0x5000
    3674:	00002ba0 	andeq	r2, r0, r0, lsr #23
    3678:	0013c420 	andseq	ip, r3, r0, lsr #8
    367c:	53080100 	movwpl	r0, #33024	; 0x8100
    3680:	05000000 	streq	r0, [r0, #-0]
    3684:	002b9c03 	eoreq	r9, fp, r3, lsl #24
    3688:	143f2000 	ldrtne	r2, [pc], #-0	; 3690 <__bss_end+0x808>
    368c:	09010000 	stmdbeq	r1, {}	; <UNPREDICTABLE>
    3690:	00000053 	andeq	r0, r0, r3, asr r0
    3694:	2b940305 	blcs	fe5042b0 <__bss_end+0xfe501428>
    3698:	f0200000 			; <UNDEFINED> instruction: 0xf0200000
    369c:	01000012 	tsteq	r0, r2, lsl r0
    36a0:	0000530a 	andeq	r5, r0, sl, lsl #6
    36a4:	98030500 	stmdals	r3, {r8, sl}
    36a8:	0000002b 	andeq	r0, r0, fp, lsr #32
    36ac:	00000144 	andeq	r0, r0, r4, asr #2
    36b0:	06ed0002 	strbteq	r0, [sp], r2
    36b4:	01040000 	mrseq	r0, (UNDEF: 4)
    36b8:	0000009a 	muleq	r0, sl, r0
    36bc:	0014b201 	andseq	fp, r4, r1, lsl #4
    36c0:	0000bc00 	andeq	fp, r0, r0, lsl #24
    36c4:	00090000 	andeq	r0, r9, r0
    36c8:	0009a000 	andeq	sl, r9, r0
    36cc:	00058400 	andeq	r8, r5, r0, lsl #8
    36d0:	05040200 	streq	r0, [r4, #-512]	; 0x200
    36d4:	00746e69 	rsbseq	r6, r4, r9, ror #28
    36d8:	a1070403 	tstge	r7, r3, lsl #8
    36dc:	03000001 	movweq	r0, #1
    36e0:	01a60704 			; <UNDEFINED> instruction: 0x01a60704
    36e4:	01030000 	mrseq	r0, (UNDEF: 3)
    36e8:	00007808 	andeq	r7, r0, r8, lsl #16
    36ec:	06010300 	streq	r0, [r1], -r0, lsl #6
    36f0:	0000007a 	andeq	r0, r0, sl, ror r0
    36f4:	90050203 	andls	r0, r5, r3, lsl #4
    36f8:	03000000 	movweq	r0, #0
    36fc:	012e0702 	teqeq	lr, r2, lsl #14
    3700:	00040000 	andeq	r0, r4, r0
    3704:	03000000 	movweq	r0, #0
    3708:	00003313 	andeq	r3, r0, r3, lsl r3
    370c:	05080300 	streq	r0, [r8, #-768]	; 0x300
    3710:	00000186 	andeq	r0, r0, r6, lsl #3
    3714:	9c070803 	stcls	8, cr0, [r7], {3}
    3718:	05000001 	streq	r0, [r0, #-1]
    371c:	0000048a 	andeq	r0, r0, sl, lsl #9
    3720:	f93c0224 			; <UNDEFINED> instruction: 0xf93c0224
    3724:	06000000 	streq	r0, [r0], -r0
    3728:	000010f2 	strdeq	r1, [r0], -r2
    372c:	00563e02 	subseq	r3, r6, r2, lsl #28
    3730:	23020000 	movwcs	r0, #8192	; 0x2000
    3734:	72630700 	rsbvc	r0, r3, #0
    3738:	56400200 	strbpl	r0, [r0], -r0, lsl #4
    373c:	02000000 	andeq	r0, r0, #0
    3740:	9e060423 	cdpls	4, 0, cr0, cr6, cr3, {1}
    3744:	0200000e 	andeq	r0, r0, #14
    3748:	00005641 	andeq	r5, r0, r1, asr #12
    374c:	08230200 	stmdaeq	r3!, {r9}
    3750:	000ee006 	andeq	lr, lr, r6
    3754:	56430200 	strbpl	r0, [r3], -r0, lsl #4
    3758:	02000000 	andeq	r0, r0, #0
    375c:	d7060c23 	strle	r0, [r6, -r3, lsr #24]
    3760:	0200000f 	andeq	r0, r0, #15
    3764:	00005644 	andeq	r5, r0, r4, asr #12
    3768:	10230200 	eorne	r0, r3, r0, lsl #4
    376c:	000efb06 	andeq	pc, lr, r6, lsl #22
    3770:	56450200 	strbpl	r0, [r5], -r0, lsl #4
    3774:	02000000 	andeq	r0, r0, #0
    3778:	76061423 	strvc	r1, [r6], -r3, lsr #8
    377c:	02000008 	andeq	r0, r0, #8
    3780:	00005648 	andeq	r5, r0, r8, asr #12
    3784:	18230200 	stmdane	r3!, {r9}
    3788:	0011cc06 	andseq	ip, r1, r6, lsl #24
    378c:	564b0200 	strbpl	r0, [fp], -r0, lsl #4
    3790:	02000000 	andeq	r0, r0, #0
    3794:	38061c23 	stmdacc	r6, {r0, r1, r5, sl, fp, ip}
    3798:	0200000f 	andeq	r0, r0, #15
    379c:	0000564c 	andeq	r5, r0, ip, asr #12
    37a0:	20230200 	eorcs	r0, r3, r0, lsl #4
    37a4:	a3010800 	movwge	r0, #6144	; 0x1800
    37a8:	01000014 	tsteq	r0, r4, lsl r0
    37ac:	09000107 	stmdbeq	r0, {r0, r1, r2, r8}
    37b0:	093c0000 	ldmdbeq	ip!, {}	; <UNPREDICTABLE>
    37b4:	7d020000 	stcvc	0, cr0, [r2, #-0]
    37b8:	00011f00 	andeq	r1, r1, r0, lsl #30
    37bc:	04840900 	streq	r0, [r4], #2304	; 0x900
    37c0:	07010000 	streq	r0, [r1, -r0]
    37c4:	0000011f 	andeq	r0, r0, pc, lsl r1
    37c8:	0a005001 	beq	177d4 <__bss_end+0x1494c>
    37cc:	00006f04 	andeq	r6, r0, r4, lsl #30
    37d0:	91010b00 	tstls	r1, r0, lsl #22
    37d4:	01000014 	tsteq	r0, r4, lsl r0
    37d8:	093c011e 	ldmdbeq	ip!, {r1, r2, r3, r4, r8}
    37dc:	09a00000 	stmibeq	r0!, {}	; <UNPREDICTABLE>
    37e0:	7d020000 	stcvc	0, cr0, [r2, #-0]
    37e4:	04840900 	streq	r0, [r4], #2304	; 0x900
    37e8:	1e010000 	cdpne	0, 0, cr0, cr1, cr0, {0}
    37ec:	0000011f 	andeq	r0, r0, pc, lsl r1
    37f0:	00005001 	andeq	r5, r0, r1
    37f4:	000000aa 	andeq	r0, r0, sl, lsr #1
    37f8:	07950002 	ldreq	r0, [r5, r2]
    37fc:	01040000 	mrseq	r0, (UNDEF: 4)
    3800:	000005fa 	strdeq	r0, [r0], -sl
    3804:	000009a0 	andeq	r0, r0, r0, lsr #19
    3808:	00000efc 	strdeq	r0, [r0], -ip
    380c:	2e2e2f2e 	cdpcs	15, 2, cr2, cr14, cr14, {1}
    3810:	6d656d2f 	stclvs	13, cr6, [r5, #-188]!	; 0xffffff44
    3814:	756d6d5f 	strbvc	r6, [sp, #-3423]!	; 0xd5f
    3818:	5f63705f 	svcpl	0x0063705f
    381c:	2e6d7361 	cdpcs	3, 6, cr7, cr13, cr1, {3}
    3820:	682f0053 	stmdavs	pc!, {r0, r1, r4, r6}	; <UNPREDICTABLE>
    3824:	2f656d6f 	svccs	0x00656d6f
    3828:	676e6164 	strbvs	r6, [lr, -r4, ror #2]!
    382c:	6d2f756b 	cfstr32vs	mvfx7, [pc, #-428]!	; 3688 <__bss_end+0x800>
    3830:	6f726479 	svcvs	0x00726479
    3834:	622f6469 	eorvs	r6, pc, #1761607680	; 0x69000000
    3838:	6e616e61 	cdpvs	14, 6, cr6, cr1, cr1, {3}
    383c:	2f695061 	svccs	0x00695061
    3840:	732f326d 	teqvc	pc, #-805306362	; 0xd0000006
    3844:	6372756f 	cmnvs	r2, #465567744	; 0x1bc00000
    3848:	6e612f65 	cdpvs	15, 6, cr2, cr1, cr5, {3}
    384c:	696f7264 	stmdbvs	pc!, {r2, r5, r6, r9, ip, sp, lr}^	; <UNPREDICTABLE>
    3850:	50422f64 	subpl	r2, r2, r4, ror #30
    3854:	324d2d49 	subcc	r2, sp, #4672	; 0x1240
    3858:	646e412d 	strbtvs	r4, [lr], #-301	; 0x12d
    385c:	64696f72 	strbtvs	r6, [r9], #-3954	; 0xf72
    3860:	2f342e34 	svccs	0x00342e34
    3864:	6863696c 	stmdavs	r3!, {r2, r3, r5, r6, r8, fp, sp, lr}^
    3868:	6c2f6565 	cfstr32vs	mvfx6, [pc], #-404	; 36dc <__bss_end+0x854>
    386c:	78756e69 	ldmdavc	r5!, {r0, r3, r5, r6, r9, sl, fp, sp, lr}^
    3870:	332e332d 	teqcc	lr, #-1275068416	; 0xb4000000
    3874:	6372612f 	cmnvs	r2, #-1073741813	; 0xc000000b
    3878:	72612f68 	rsbvc	r2, r1, #416	; 0x1a0
    387c:	616d2f6d 	cmnvs	sp, sp, ror #30
    3880:	732d6863 	teqvc	sp, #6488064	; 0x630000
    3884:	69366e75 	ldmdbvs	r6!, {r0, r2, r4, r5, r6, r9, sl, fp, sp, lr}
    3888:	2f6d702f 	svccs	0x006d702f
    388c:	6e617473 	mcrvs	4, 3, r7, cr1, cr3, {3}
    3890:	00796264 	rsbseq	r6, r9, r4, ror #4
    3894:	20554e47 	subscs	r4, r5, r7, asr #28
    3898:	32205341 	eorcc	r5, r0, #67108865	; 0x4000001
    389c:	0032322e 	eorseq	r3, r2, lr, lsr #4
    38a0:	051d8001 	ldreq	r8, [sp, #-1]
    38a4:	00020000 	andeq	r0, r2, r0
    38a8:	000007a9 	andeq	r0, r0, r9, lsr #15
    38ac:	009a0104 	addseq	r0, sl, r4, lsl #2
    38b0:	9d010000 	stcls	0, cr0, [r1, #-0]
    38b4:	bc000015 	stclt	0, cr0, [r0], {21}
    38b8:	00000000 	andeq	r0, r0, r0
    38bc:	dc00000f 	stcle	0, cr0, [r0], {15}
    38c0:	97000011 	smladls	r0, r1, r0, r0
    38c4:	02000007 	andeq	r0, r0, #7
    38c8:	007a0601 	rsbseq	r0, sl, r1, lsl #12
    38cc:	01020000 	mrseq	r0, (UNDEF: 2)
    38d0:	00007808 	andeq	r7, r0, r8, lsl #16
    38d4:	05020200 	streq	r0, [r2, #-512]	; 0x200
    38d8:	00000090 	muleq	r0, r0, r0
    38dc:	2e070202 	cdpcs	2, 0, cr0, cr7, cr2, {0}
    38e0:	03000001 	movweq	r0, #1
    38e4:	6e690504 	cdpvs	5, 6, cr0, cr9, cr4, {0}
    38e8:	00040074 	andeq	r0, r4, r4, ror r0
    38ec:	03000000 	movweq	r0, #0
    38f0:	00005313 	andeq	r5, r0, r3, lsl r3
    38f4:	07040200 	streq	r0, [r4, -r0, lsl #4]
    38f8:	000001a6 	andeq	r0, r0, r6, lsr #3
    38fc:	86050802 	strhi	r0, [r5], -r2, lsl #16
    3900:	02000001 	andeq	r0, r0, #1
    3904:	019c0708 	orrseq	r0, ip, r8, lsl #14
    3908:	72050000 	andvc	r0, r5, #0
    390c:	a0000011 	andge	r0, r0, r1, lsl r0
    3910:	02ac1b02 	adceq	r1, ip, #2048	; 0x800
    3914:	f2060000 	vhadd.s8	d0, d6, d0
    3918:	02000010 	andeq	r0, r0, #16
    391c:	00004820 	andeq	r4, r0, r0, lsr #16
    3920:	00230200 	eoreq	r0, r3, r0, lsl #4
    3924:	00726307 	rsbseq	r6, r2, r7, lsl #6
    3928:	00483002 	subeq	r3, r8, r2
    392c:	23020000 	movwcs	r0, #8192	; 0x2000
    3930:	63610704 	cmnvs	r1, #1048576	; 0x100000
    3934:	31020072 	tstcc	r2, r2, ror r0
    3938:	00000048 	andeq	r0, r0, r8, asr #32
    393c:	06082302 	streq	r2, [r8], -r2, lsl #6
    3940:	00000e9e 	muleq	r0, lr, lr
    3944:	00483202 	subeq	r3, r8, r2, lsl #4
    3948:	23020000 	movwcs	r0, #8192	; 0x2000
    394c:	03ea060c 	mvneq	r0, #12582912	; 0xc00000
    3950:	33020000 	movwcc	r0, #8192	; 0x2000
    3954:	00000048 	andeq	r0, r0, r8, asr #32
    3958:	06102302 	ldreq	r2, [r0], -r2, lsl #6
    395c:	00000b83 	andeq	r0, r0, r3, lsl #23
    3960:	00483402 	subeq	r3, r8, r2, lsl #8
    3964:	23020000 	movwcs	r0, #8192	; 0x2000
    3968:	09770614 	ldmdbeq	r7!, {r2, r4, r9, sl}^
    396c:	35020000 	strcc	r0, [r2, #-0]
    3970:	00000048 	andeq	r0, r0, r8, asr #32
    3974:	06182302 	ldreq	r2, [r8], -r2, lsl #6
    3978:	00000ee0 	andeq	r0, r0, r0, ror #29
    397c:	00483902 	subeq	r3, r8, r2, lsl #18
    3980:	23020000 	movwcs	r0, #8192	; 0x2000
    3984:	0fd7061c 	svceq	0x00d7061c
    3988:	3a020000 	bcc	83990 <__bss_end+0x80b08>
    398c:	00000048 	andeq	r0, r0, r8, asr #32
    3990:	06202302 	strteq	r2, [r0], -r2, lsl #6
    3994:	00000efb 	strdeq	r0, [r0], -fp
    3998:	00483b02 	subeq	r3, r8, r2, lsl #22
    399c:	23020000 	movwcs	r0, #8192	; 0x2000
    39a0:	08760624 	ldmdaeq	r6!, {r2, r5, r9, sl}^
    39a4:	3d020000 	stccc	0, cr0, [r2, #-0]
    39a8:	00000048 	andeq	r0, r0, r8, asr #32
    39ac:	06282302 	strteq	r2, [r8], -r2, lsl #6
    39b0:	0000031e 	andeq	r0, r0, lr, lsl r3
    39b4:	00483f02 	subeq	r3, r8, r2, lsl #30
    39b8:	23020000 	movwcs	r0, #8192	; 0x2000
    39bc:	07af062c 	streq	r0, [pc, ip, lsr #12]!
    39c0:	40020000 	andmi	r0, r2, r0
    39c4:	00000048 	andeq	r0, r0, r8, asr #32
    39c8:	06302302 	ldrteq	r2, [r0], -r2, lsl #6
    39cc:	000003a6 	andeq	r0, r0, r6, lsr #7
    39d0:	00484102 	subeq	r4, r8, r2, lsl #2
    39d4:	23020000 	movwcs	r0, #8192	; 0x2000
    39d8:	09840634 	stmibeq	r4, {r2, r4, r5, r9, sl}
    39dc:	42020000 	andmi	r0, r2, #0
    39e0:	00000048 	andeq	r0, r0, r8, asr #32
    39e4:	06382302 	ldrteq	r2, [r8], -r2, lsl #6
    39e8:	00000f43 	andeq	r0, r0, r3, asr #30
    39ec:	00484402 	subeq	r4, r8, r2, lsl #8
    39f0:	23020000 	movwcs	r0, #8192	; 0x2000
    39f4:	046b063c 	strbteq	r0, [fp], #-1596	; 0x63c
    39f8:	45020000 	strmi	r0, [r2, #-0]
    39fc:	00000048 	andeq	r0, r0, r8, asr #32
    3a00:	07402302 	strbeq	r2, [r0, -r2, lsl #6]
    3a04:	00726170 	rsbseq	r6, r2, r0, ror r1
    3a08:	00484702 	subeq	r4, r8, r2, lsl #14
    3a0c:	23020000 	movwcs	r0, #8192	; 0x2000
    3a10:	03cf0644 	biceq	r0, pc, #71303168	; 0x4400000
    3a14:	49020000 	stmdbmi	r2, {}	; <UNPREDICTABLE>
    3a18:	00000048 	andeq	r0, r0, r8, asr #32
    3a1c:	06482302 	strbeq	r2, [r8], -r2, lsl #6
    3a20:	0000098b 	andeq	r0, r0, fp, lsl #19
    3a24:	00484a02 	subeq	r4, r8, r2, lsl #20
    3a28:	23020000 	movwcs	r0, #8192	; 0x2000
    3a2c:	089d064c 	ldmeq	sp, {r2, r3, r6, r9, sl}
    3a30:	4b020000 	blmi	83a38 <__bss_end+0x80bb0>
    3a34:	00000048 	andeq	r0, r0, r8, asr #32
    3a38:	06502302 	ldrbeq	r2, [r0], -r2, lsl #6
    3a3c:	00000e02 	andeq	r0, r0, r2, lsl #28
    3a40:	00484c02 	subeq	r4, r8, r2, lsl #24
    3a44:	23020000 	movwcs	r0, #8192	; 0x2000
    3a48:	69730754 	ldmdbvs	r3!, {r2, r4, r6, r8, r9, sl}^
    3a4c:	50020072 	andpl	r0, r2, r2, ror r0
    3a50:	00000048 	andeq	r0, r0, r8, asr #32
    3a54:	06582302 	ldrbeq	r2, [r8], -r2, lsl #6
    3a58:	0000049e 	muleq	r0, lr, r4
    3a5c:	00485202 	subeq	r5, r8, r2, lsl #4
    3a60:	23020000 	movwcs	r0, #8192	; 0x2000
    3a64:	6363075c 	cmnvs	r3, #24117248	; 0x1700000
    3a68:	53020072 	movwpl	r0, #8306	; 0x2072
    3a6c:	00000048 	andeq	r0, r0, r8, asr #32
    3a70:	07602302 	strbeq	r2, [r0, -r2, lsl #6]!
    3a74:	00727365 	rsbseq	r7, r2, r5, ror #6
    3a78:	00485402 	subeq	r5, r8, r2, lsl #8
    3a7c:	23020000 	movwcs	r0, #8192	; 0x2000
    3a80:	11690664 	cmnne	r9, r4, ror #12
    3a84:	55020000 	strpl	r0, [r2, #-0]
    3a88:	00000048 	andeq	r0, r0, r8, asr #32
    3a8c:	07682302 	strbeq	r2, [r8, -r2, lsl #6]!
    3a90:	00726575 	rsbseq	r6, r2, r5, ror r5
    3a94:	00485602 	subeq	r5, r8, r2, lsl #12
    3a98:	23020000 	movwcs	r0, #8192	; 0x2000
    3a9c:	0f9b066c 	svceq	0x009b066c
    3aa0:	57020000 	strpl	r0, [r2, -r0]
    3aa4:	00000048 	andeq	r0, r0, r8, asr #32
    3aa8:	06702302 	ldrbteq	r2, [r0], -r2, lsl #6
    3aac:	00000ee7 	andeq	r0, r0, r7, ror #29
    3ab0:	00485802 	subeq	r5, r8, r2, lsl #16
    3ab4:	23020000 	movwcs	r0, #8192	; 0x2000
    3ab8:	11cc0674 	bicne	r0, ip, r4, ror r6
    3abc:	66020000 	strvs	r0, [r2], -r0
    3ac0:	00000048 	andeq	r0, r0, r8, asr #32
    3ac4:	06782302 	ldrbteq	r2, [r8], -r2, lsl #6
    3ac8:	00000f38 	andeq	r0, r0, r8, lsr pc
    3acc:	00486702 	subeq	r6, r8, r2, lsl #14
    3ad0:	23020000 	movwcs	r0, #8192	; 0x2000
    3ad4:	0965067c 	stmdbeq	r5!, {r2, r3, r4, r5, r6, r9, sl}^
    3ad8:	7d020000 	stcvc	0, cr0, [r2, #-0]
    3adc:	00000048 	andeq	r0, r0, r8, asr #32
    3ae0:	01802303 	orreq	r2, r0, r3, lsl #6
    3ae4:	00096406 	andeq	r6, r9, r6, lsl #8
    3ae8:	487e0200 	ldmdami	lr!, {r9}^
    3aec:	03000000 	movweq	r0, #0
    3af0:	07018423 	streq	r8, [r1, -r3, lsr #8]
    3af4:	00727369 	rsbseq	r7, r2, r9, ror #6
    3af8:	00487f02 	subeq	r7, r8, r2, lsl #30
    3afc:	23030000 	movwcs	r0, #12288	; 0x3000
    3b00:	32060188 	andcc	r0, r6, #34	; 0x22
    3b04:	02000008 	andeq	r0, r0, #8
    3b08:	00004883 	andeq	r4, r0, r3, lsl #17
    3b0c:	8c230300 	stchi	3, cr0, [r3], #-0
    3b10:	69630701 	stmdbvs	r3!, {r0, r8, r9, sl}^
    3b14:	84020064 	strhi	r0, [r2], #-100	; 0x64
    3b18:	00000048 	andeq	r0, r0, r8, asr #32
    3b1c:	01902303 	orrseq	r2, r0, r3, lsl #6
    3b20:	000c5606 	andeq	r5, ip, r6, lsl #12
    3b24:	48850200 	stmmi	r5, {r9}
    3b28:	03000000 	movweq	r0, #0
    3b2c:	06019423 	streq	r9, [r1], -r3, lsr #8
    3b30:	0000096a 	andeq	r0, r0, sl, ror #18
    3b34:	00488602 	subeq	r8, r8, r2, lsl #12
    3b38:	23030000 	movwcs	r0, #12288	; 0x3000
    3b3c:	30060198 	mulcc	r6, r8, r1
    3b40:	02000011 	andeq	r0, r0, #17
    3b44:	00004887 	andeq	r4, r0, r7, lsl #17
    3b48:	9c230300 	stcls	3, cr0, [r3], #-0
    3b4c:	01080001 	tsteq	r8, r1
    3b50:	000015b6 			; <UNDEFINED> instruction: 0x000015b6
    3b54:	00019501 	andeq	r9, r1, r1, lsl #10
    3b58:	0c00000f 	stceq	0, cr0, [r0], {15}
    3b5c:	02000010 	andeq	r0, r0, #16
    3b60:	02d2007d 	sbcseq	r0, r2, #125	; 0x7d
    3b64:	89090000 	stmdbhi	r9, {}	; <UNPREDICTABLE>
    3b68:	01000015 	tsteq	r0, r5, lsl r0
    3b6c:	0002d295 	muleq	r2, r5, r2
    3b70:	00500100 	subseq	r0, r0, r0, lsl #2
    3b74:	0068040a 	rsbeq	r0, r8, sl, lsl #8
    3b78:	010b0000 	mrseq	r0, (UNDEF: 11)
    3b7c:	00001560 	andeq	r1, r0, r0, ror #10
    3b80:	01012201 	tsteq	r1, r1, lsl #4
    3b84:	0000100c 	andeq	r1, r0, ip
    3b88:	000010e0 	andeq	r1, r0, r0, ror #1
    3b8c:	00007d02 	andeq	r7, r0, r2, lsl #26
    3b90:	0c000003 	stceq	0, cr0, [r0], {3}
    3b94:	00001589 	andeq	r1, r0, r9, lsl #11
    3b98:	d2012201 	andle	r2, r1, #268435456	; 0x10000000
    3b9c:	01000002 	tsteq	r0, r2
    3ba0:	010b0050 	qaddeq	r0, r0, fp
    3ba4:	00001547 	andeq	r1, r0, r7, asr #10
    3ba8:	01018401 	tsteq	r1, r1, lsl #8
    3bac:	000010e0 	andeq	r1, r0, r0, ror #1
    3bb0:	000010f8 	strdeq	r1, [r0], -r8
    3bb4:	2a007d02 	bcs	22fc4 <__bss_end+0x2013c>
    3bb8:	0d000003 	stceq	0, cr0, [r0, #-12]
    3bbc:	006c6176 	rsbeq	r6, ip, r6, ror r1
    3bc0:	48018701 	stmdami	r1, {r0, r8, r9, sl, pc}
    3bc4:	de000000 	cdple	0, 0, cr0, cr0, cr0, {0}
    3bc8:	00000006 	andeq	r0, r0, r6
    3bcc:	14c4010b 	strbne	r0, [r4], #267	; 0x10b
    3bd0:	92010000 	andls	r0, r1, #0
    3bd4:	10f80101 	rscsne	r0, r8, r1, lsl #2
    3bd8:	11a00000 	movne	r0, r0
    3bdc:	7d020000 	stcvc	0, cr0, [r2, #-0]
    3be0:	00035000 	andeq	r5, r3, r0
    3be4:	15890e00 	strne	r0, [r9, #3584]	; 0xe00
    3be8:	94010000 	strls	r0, [r1], #-0
    3bec:	0002d201 	andeq	sp, r2, r1, lsl #4
    3bf0:	010f0000 	mrseq	r0, CPSR
    3bf4:	000015b8 			; <UNDEFINED> instruction: 0x000015b8
    3bf8:	0101f101 	tsteq	r1, r1, lsl #2
    3bfc:	000011a0 	andeq	r1, r0, r0, lsr #3
    3c00:	000011ac 	andeq	r1, r0, ip, lsr #3
    3c04:	0f007d02 	svceq	0x00007d02
    3c08:	00156201 	andseq	r6, r5, r1, lsl #4
    3c0c:	01f70100 	mvnseq	r0, r0, lsl #2
    3c10:	0011ac01 	andseq	sl, r1, r1, lsl #24
    3c14:	0011b800 	andseq	fp, r1, r0, lsl #16
    3c18:	007d0200 	rsbseq	r0, sp, r0, lsl #4
    3c1c:	1520010f 	strne	r0, [r0, #-271]!	; 0x10f
    3c20:	fc010000 	stc2	0, cr0, [r1], {-0}
    3c24:	11b80101 			; <UNDEFINED> instruction: 0x11b80101
    3c28:	11cc0000 	bicne	r0, ip, r0
    3c2c:	7d020000 	stcvc	0, cr0, [r2, #-0]
    3c30:	ac010b00 	stcge	11, cr0, [r1], {-0}
    3c34:	01000015 	tsteq	r0, r5, lsl r0
    3c38:	cc010202 	sfmgt	f0, 4, [r1], {2}
    3c3c:	dc000011 	stcle	0, cr0, [r0], {17}
    3c40:	02000011 	andeq	r0, r0, #17
    3c44:	03b9007d 			; <UNDEFINED> instruction: 0x03b9007d
    3c48:	740d0000 	strvc	r0, [sp], #-0
    3c4c:	01006274 	tsteq	r0, r4, ror r2
    3c50:	00480204 	subeq	r0, r8, r4, lsl #4
    3c54:	07010000 	streq	r0, [r1, -r0]
    3c58:	10000000 	andne	r0, r0, r0
    3c5c:	00001608 	andeq	r1, r0, r8, lsl #12
    3c60:	03c42d01 	biceq	r2, r4, #64	; 0x40
    3c64:	68110000 	ldmdavs	r1, {}	; <UNPREDICTABLE>
    3c68:	12000000 	andne	r0, r0, #0
    3c6c:	000003d9 	ldrdeq	r0, [r0], -r9
    3c70:	000003d9 	ldrdeq	r0, [r0], -r9
    3c74:	00005313 	andeq	r5, r0, r3, lsl r3
    3c78:	02000100 	andeq	r0, r0, #0
    3c7c:	01a10704 			; <UNDEFINED> instruction: 0x01a10704
    3c80:	59140000 	ldmdbpl	r4, {}	; <UNPREDICTABLE>
    3c84:	01000016 	tsteq	r0, r6, lsl r0
    3c88:	0003c91b 	andeq	ip, r3, fp, lsl r9
    3c8c:	03050100 	movweq	r0, #20736	; 0x5100
    3c90:	00002cc8 	andeq	r2, r0, r8, asr #25
    3c94:	0015f914 	andseq	pc, r5, r4, lsl r9	; <UNPREDICTABLE>
    3c98:	d91c0100 	ldmdble	ip, {r8}
    3c9c:	01000003 	tsteq	r0, r3
    3ca0:	2cc40305 	stclcs	3, cr0, [r4], {5}
    3ca4:	e3140000 	tst	r4, #0
    3ca8:	01000015 	tsteq	r0, r5, lsl r0
    3cac:	0003c91d 	andeq	ip, r3, sp, lsl r9
    3cb0:	03050100 	movweq	r0, #20736	; 0x5100
    3cb4:	00002bd8 	ldrdeq	r2, [r0], -r8
    3cb8:	00153814 	andseq	r3, r5, r4, lsl r8
    3cbc:	d91e0100 	ldmdble	lr, {r8}
    3cc0:	01000003 	tsteq	r0, r3
    3cc4:	2d7c0305 	ldclcs	3, cr0, [ip, #-20]!	; 0xffffffec
    3cc8:	d9120000 	ldmdble	r2, {}	; <UNPREDICTABLE>
    3ccc:	38000003 	stmdacc	r0, {r0, r1}
    3cd0:	13000004 	movwne	r0, #4
    3cd4:	00000053 	andeq	r0, r0, r3, asr r0
    3cd8:	f4140006 			; <UNDEFINED> instruction: 0xf4140006
    3cdc:	01000014 	tsteq	r0, r4, lsl r0
    3ce0:	0004281f 	andeq	r2, r4, pc, lsl r8
    3ce4:	03050100 	movweq	r0, #20736	; 0x5100
    3ce8:	00002ca8 	andeq	r2, r0, r8, lsr #25
    3cec:	00157a14 	andseq	r7, r5, r4, lsl sl
    3cf0:	d9200100 	stmdble	r0!, {r8}
    3cf4:	01000003 	tsteq	r0, r3
    3cf8:	2be00305 	blcs	ff804914 <__bss_end+0xff801a8c>
    3cfc:	2b140000 	blcs	503d04 <__bss_end+0x500e7c>
    3d00:	01000016 	tsteq	r0, r6, lsl r0
    3d04:	0003c921 	andeq	ip, r3, r1, lsr #18
    3d08:	03050100 	movweq	r0, #20736	; 0x5100
    3d0c:	00002bec 	andeq	r2, r0, ip, ror #23
    3d10:	0014d614 	andseq	sp, r4, r4, lsl r6
    3d14:	d9220100 	stmdble	r2!, {r8}
    3d18:	01000003 	tsteq	r0, r3
    3d1c:	2cd00305 	ldclcs	3, cr0, [r0], {5}
    3d20:	0a140000 	beq	503d28 <__bss_end+0x500ea0>
    3d24:	01000015 	tsteq	r0, r5, lsl r0
    3d28:	0003c923 	andeq	ip, r3, r3, lsr #18
    3d2c:	03050100 	movweq	r0, #20736	; 0x5100
    3d30:	00002bd0 	ldrdeq	r2, [r0], -r0
    3d34:	00158e14 	andseq	r8, r5, r4, lsl lr
    3d38:	d9240100 	stmdble	r4!, {r8}
    3d3c:	01000003 	tsteq	r0, r3
    3d40:	2be80305 	blcs	ffa0495c <__bss_end+0xffa01ad4>
    3d44:	cd140000 	ldcgt	0, cr0, [r4, #-0]
    3d48:	01000015 	tsteq	r0, r5, lsl r0
    3d4c:	0003c925 	andeq	ip, r3, r5, lsr #18
    3d50:	03050100 	movweq	r0, #20736	; 0x5100
    3d54:	00002d80 	andeq	r2, r0, r0, lsl #27
    3d58:	00161c14 	andseq	r1, r6, r4, lsl ip
    3d5c:	d9260100 	stmdble	r6!, {r8}
    3d60:	01000003 	tsteq	r0, r3
    3d64:	2be40305 	blcs	ff904980 <__bss_end+0xff901af8>
    3d68:	6f140000 	svcvs	0x00140000
    3d6c:	01000016 	tsteq	r0, r6, lsl r0
    3d70:	0003c927 	andeq	ip, r3, r7, lsr #18
    3d74:	03050100 	movweq	r0, #20736	; 0x5100
    3d78:	00002cd4 	ldrdeq	r2, [r0], -r4
    3d7c:	0014e514 	andseq	lr, r4, r4, lsl r5
    3d80:	d9280100 	stmdble	r8!, {r8}
    3d84:	01000003 	tsteq	r0, r3
    3d88:	2bf40305 	blcs	ffd049a4 <__bss_end+0xffd01b1c>
    3d8c:	d9120000 	ldmdble	r2, {}	; <UNPREDICTABLE>
    3d90:	fc000003 	stc2	0, cr0, [r0], {3}
    3d94:	13000004 	movwne	r0, #4
    3d98:	00000053 	andeq	r0, r0, r3, asr r0
    3d9c:	4114002b 	tstmi	r4, fp, lsr #32
    3da0:	01000016 	tsteq	r0, r6, lsl r0
    3da4:	0004ec29 	andeq	lr, r4, r9, lsr #24
    3da8:	03050100 	movweq	r0, #20736	; 0x5100
    3dac:	00002bf8 	strdeq	r2, [r0], -r8
    3db0:	00117214 	andseq	r7, r1, r4, lsl r2
    3db4:	682b0100 	stmdavs	fp!, {r8}
    3db8:	01000000 	mrseq	r0, (UNDEF: 0)
    3dbc:	2cdc0305 	ldclcs	3, cr0, [ip], {5}
    3dc0:	5f000000 	svcpl	0x00000000
    3dc4:	02000029 	andeq	r0, r0, #41	; 0x29
    3dc8:	0008ca00 	andeq	ip, r8, r0, lsl #20
    3dcc:	9a010400 	bls	44dd4 <__bss_end+0x41f4c>
    3dd0:	01000000 	mrseq	r0, (UNDEF: 0)
    3dd4:	000017c1 	andeq	r1, r0, r1, asr #15
    3dd8:	000000bc 	strheq	r0, [r0], -ip
    3ddc:	000011dc 	ldrdeq	r1, [r0], -ip
    3de0:	0000169c 	muleq	r0, ip, r6
    3de4:	00000882 	andeq	r0, r0, r2, lsl #17
    3de8:	7a060102 	bvc	1841f8 <__bss_end+0x181370>
    3dec:	02000000 	andeq	r0, r0, #0
    3df0:	00780801 	rsbseq	r0, r8, r1, lsl #16
    3df4:	02020000 	andeq	r0, r2, #0
    3df8:	00009005 	andeq	r9, r0, r5
    3dfc:	07020200 	streq	r0, [r2, -r0, lsl #4]
    3e00:	0000012e 	andeq	r0, r0, lr, lsr #2
    3e04:	00023903 	andeq	r3, r2, r3, lsl #18
    3e08:	4c120200 	lfmmi	f0, 4, [r2], {-0}
    3e0c:	04000000 	streq	r0, [r0], #-0
    3e10:	6e690504 	cdpvs	5, 6, cr0, cr9, cr4, {0}
    3e14:	00030074 	andeq	r0, r3, r4, ror r0
    3e18:	02000000 	andeq	r0, r0, #0
    3e1c:	00005e13 	andeq	r5, r0, r3, lsl lr
    3e20:	07040200 	streq	r0, [r4, -r0, lsl #4]
    3e24:	000001a6 	andeq	r0, r0, r6, lsr #3
    3e28:	86050802 	strhi	r0, [r5], -r2, lsl #16
    3e2c:	02000001 	andeq	r0, r0, #1
    3e30:	019c0708 	orrseq	r0, ip, r8, lsl #14
    3e34:	53050000 	movwpl	r0, #20480	; 0x5000
    3e38:	06000000 	streq	r0, [r0], -r0
    3e3c:	00000053 	andeq	r0, r0, r3, asr r0
    3e40:	00000088 	andeq	r0, r0, r8, lsl #1
    3e44:	00005e07 	andeq	r5, r0, r7, lsl #28
    3e48:	06000100 	streq	r0, [r0], -r0, lsl #2
    3e4c:	00000053 	andeq	r0, r0, r3, asr r0
    3e50:	00000098 	muleq	r0, r8, r0
    3e54:	00005e07 	andeq	r5, r0, r7, lsl #28
    3e58:	08000300 	stmdaeq	r0, {r8, r9}
    3e5c:	00000446 	andeq	r0, r0, r6, asr #8
    3e60:	60190304 	andsvs	r0, r9, r4, lsl #6
    3e64:	09000001 	stmdbeq	r0, {r0}
    3e68:	00000693 	muleq	r0, r3, r6
    3e6c:	00531b03 	subseq	r1, r3, r3, lsl #22
    3e70:	02040000 	andeq	r0, r4, #0
    3e74:	0023021e 	eoreq	r0, r3, lr, lsl r2
    3e78:	000e2809 	andeq	r2, lr, r9, lsl #16
    3e7c:	531c0300 	tstpl	ip, #0
    3e80:	04000000 	streq	r0, [r0], #-0
    3e84:	23021c02 	movwcs	r1, #11266	; 0x2c02
    3e88:	068b0900 	streq	r0, [fp], r0, lsl #18
    3e8c:	1d030000 	stcne	0, cr0, [r3, #-0]
    3e90:	00000053 	andeq	r0, r0, r3, asr r0
    3e94:	021a0204 	andseq	r0, sl, #1073741824	; 0x40000000
    3e98:	32090023 	andcc	r0, r9, #35	; 0x23
    3e9c:	0300000e 	movweq	r0, #14
    3ea0:	0000531e 	andeq	r5, r0, lr, lsl r3
    3ea4:	18020400 	stmdane	r2, {sl}
    3ea8:	09002302 	stmdbeq	r0, {r1, r8, r9, sp}
    3eac:	0000069b 	muleq	r0, fp, r6
    3eb0:	00531f03 	subseq	r1, r3, r3, lsl #30
    3eb4:	05040000 	streq	r0, [r4, #-0]
    3eb8:	00230213 	eoreq	r0, r3, r3, lsl r2
    3ebc:	000e3c09 	andeq	r3, lr, r9, lsl #24
    3ec0:	53200300 	teqpl	r0, #0
    3ec4:	04000000 	streq	r0, [r0], #-0
    3ec8:	2302080b 	movwcs	r0, #10251	; 0x280b
    3ecc:	0a320900 	beq	c862d4 <__bss_end+0xc8344c>
    3ed0:	21030000 	mrscs	r0, (UNDEF: 3)
    3ed4:	00000053 	andeq	r0, r0, r3, asr r0
    3ed8:	02070104 	andeq	r0, r7, #1
    3edc:	46090023 	strmi	r0, [r9], -r3, lsr #32
    3ee0:	0300000e 	movweq	r0, #14
    3ee4:	00005322 	andeq	r5, r0, r2, lsr #6
    3ee8:	04030400 	streq	r0, [r3], #-1024	; 0x400
    3eec:	09002302 	stmdbeq	r0, {r1, r8, r9, sp}
    3ef0:	00000c62 	andeq	r0, r0, r2, ror #24
    3ef4:	00532303 	subseq	r2, r3, r3, lsl #6
    3ef8:	01040000 	mrseq	r0, (UNDEF: 4)
    3efc:	00230203 	eoreq	r0, r3, r3, lsl #4
    3f00:	000e5009 	andeq	r5, lr, r9
    3f04:	53240300 	teqpl	r4, #0
    3f08:	04000000 	streq	r0, [r0], #-0
    3f0c:	23020102 	movwcs	r0, #8450	; 0x2102
    3f10:	0dbd0900 	ldceq	9, cr0, [sp]
    3f14:	25030000 	strcs	r0, [r3, #-0]
    3f18:	00000053 	andeq	r0, r0, r3, asr r0
    3f1c:	02000104 	andeq	r0, r0, #1
    3f20:	03000023 	movweq	r0, #35	; 0x23
    3f24:	00000dc3 	andeq	r0, r0, r3, asr #27
    3f28:	00982703 	addseq	r2, r8, r3, lsl #14
    3f2c:	d9080000 	stmdble	r8, {}	; <UNPREDICTABLE>
    3f30:	0400000d 	streq	r0, [r0], #-13
    3f34:	02332a03 	eorseq	r2, r3, #12288	; 0x3000
    3f38:	93090000 	movwls	r0, #36864	; 0x9000
    3f3c:	03000006 	movweq	r0, #6
    3f40:	0000532c 	andeq	r5, r0, ip, lsr #6
    3f44:	1b050400 	blne	144f4c <__bss_end+0x1420c4>
    3f48:	09002302 	stmdbeq	r0, {r1, r8, r9, sp}
    3f4c:	00000e28 	andeq	r0, r0, r8, lsr #28
    3f50:	00532d03 	subseq	r2, r3, r3, lsl #26
    3f54:	03040000 	movweq	r0, #16384	; 0x4000
    3f58:	00230218 	eoreq	r0, r3, r8, lsl r2
    3f5c:	00069b09 	andeq	r9, r6, r9, lsl #22
    3f60:	532e0300 	teqpl	lr, #0
    3f64:	04000000 	streq	r0, [r0], #-0
    3f68:	23021107 	movwcs	r1, #8455	; 0x2107
    3f6c:	0e320900 	cdpeq	9, 3, cr0, cr2, cr0, {0}
    3f70:	2f030000 	svccs	0x00030000
    3f74:	00000053 	andeq	r0, r0, r3, asr r0
    3f78:	02100104 	andseq	r0, r0, #1
    3f7c:	ab090023 	blge	244010 <__bss_end+0x241188>
    3f80:	03000006 	movweq	r0, #6
    3f84:	00005330 	andeq	r5, r0, r0, lsr r3
    3f88:	0c040400 	cfstrseq	mvf0, [r4], {-0}
    3f8c:	09002302 	stmdbeq	r0, {r1, r8, r9, sp}
    3f90:	00000e3c 	andeq	r0, r0, ip, lsr lr
    3f94:	00533103 	subseq	r3, r3, r3, lsl #2
    3f98:	04040000 	streq	r0, [r4], #-0
    3f9c:	00230208 	eoreq	r0, r3, r8, lsl #4
    3fa0:	000c2709 	andeq	r2, ip, r9, lsl #14
    3fa4:	53320300 	teqpl	r2, #0
    3fa8:	04000000 	streq	r0, [r0], #-0
    3fac:	23020701 	movwcs	r0, #9985	; 0x2701
    3fb0:	0e460900 	cdpeq	9, 4, cr0, cr6, cr0, {0}
    3fb4:	33030000 	movwcc	r0, #12288	; 0x3000
    3fb8:	00000053 	andeq	r0, r0, r3, asr r0
    3fbc:	02040304 	andeq	r0, r4, #268435456	; 0x10000000
    3fc0:	62090023 	andvs	r0, r9, #35	; 0x23
    3fc4:	0300000c 	movweq	r0, #12
    3fc8:	00005334 	andeq	r5, r0, r4, lsr r3
    3fcc:	03010400 	movweq	r0, #5120	; 0x1400
    3fd0:	09002302 	stmdbeq	r0, {r1, r8, r9, sp}
    3fd4:	00000e50 	andeq	r0, r0, r0, asr lr
    3fd8:	00533503 	subseq	r3, r3, r3, lsl #10
    3fdc:	02040000 	andeq	r0, r4, #0
    3fe0:	00230201 	eoreq	r0, r3, r1, lsl #4
    3fe4:	000dbd09 	andeq	fp, sp, r9, lsl #26
    3fe8:	53360300 	teqpl	r6, #0
    3fec:	04000000 	streq	r0, [r0], #-0
    3ff0:	23020001 	movwcs	r0, #8193	; 0x2001
    3ff4:	b5030000 	strlt	r0, [r3, #-0]
    3ff8:	0300000c 	movweq	r0, #12
    3ffc:	00016b37 	andeq	r6, r1, r7, lsr fp
    4000:	03480800 	movteq	r0, #34816	; 0x8800
    4004:	03040000 	movweq	r0, #16384	; 0x4000
    4008:	0003283a 	andeq	r2, r3, sl, lsr r8
    400c:	06930900 	ldreq	r0, [r3], r0, lsl #18
    4010:	3c030000 	stccc	0, cr0, [r3], {-0}
    4014:	00000053 	andeq	r0, r0, r3, asr r0
    4018:	021c0404 	andseq	r0, ip, #67108864	; 0x4000000
    401c:	28090023 	stmdacs	r9, {r0, r1, r5}
    4020:	0300000e 	movweq	r0, #14
    4024:	0000533d 	andeq	r5, r0, sp, lsr r3
    4028:	18040400 	stmdane	r4, {sl}
    402c:	09002302 	stmdbeq	r0, {r1, r8, r9, sp}
    4030:	0000069b 	muleq	r0, fp, r6
    4034:	00533e03 	subseq	r3, r3, r3, lsl #28
    4038:	07040000 	streq	r0, [r4, -r0]
    403c:	00230211 	eoreq	r0, r3, r1, lsl r2
    4040:	000e3209 	andeq	r3, lr, r9, lsl #4
    4044:	533f0300 	teqpl	pc, #0
    4048:	04000000 	streq	r0, [r0], #-0
    404c:	23020c05 	movwcs	r0, #11269	; 0x2c05
    4050:	0c270900 	stceq	9, cr0, [r7], #-0
    4054:	40030000 	andmi	r0, r3, r0
    4058:	00000053 	andeq	r0, r0, r3, asr r0
    405c:	020b0104 	andeq	r0, fp, #1
    4060:	3c090023 	stccc	0, cr0, [r9], {35}	; 0x23
    4064:	0300000e 	movweq	r0, #14
    4068:	00005341 	andeq	r5, r0, r1, asr #6
    406c:	08030400 	stmdaeq	r3, {sl}
    4070:	09002302 	stmdbeq	r0, {r1, r8, r9, sp}
    4074:	00000d06 	andeq	r0, r0, r6, lsl #26
    4078:	00534203 	subseq	r4, r3, r3, lsl #4
    407c:	01040000 	mrseq	r0, (UNDEF: 4)
    4080:	00230207 	eoreq	r0, r3, r7, lsl #4
    4084:	000ead09 	andeq	sl, lr, r9, lsl #26
    4088:	53430300 	movtpl	r0, #13056	; 0x3300
    408c:	04000000 	streq	r0, [r0], #-0
    4090:	23020601 	movwcs	r0, #9729	; 0x2601
    4094:	0e460900 	cdpeq	9, 4, cr0, cr6, cr0, {0}
    4098:	44030000 	strmi	r0, [r3], #-0
    409c:	00000053 	andeq	r0, r0, r3, asr r0
    40a0:	02040204 	andeq	r0, r4, #1073741824	; 0x40000000
    40a4:	62090023 	andvs	r0, r9, #35	; 0x23
    40a8:	0300000c 	movweq	r0, #12
    40ac:	00005345 	andeq	r5, r0, r5, asr #6
    40b0:	03010400 	movweq	r0, #5120	; 0x1400
    40b4:	09002302 	stmdbeq	r0, {r1, r8, r9, sp}
    40b8:	00000e50 	andeq	r0, r0, r0, asr lr
    40bc:	00534603 	subseq	r4, r3, r3, lsl #12
    40c0:	01040000 	mrseq	r0, (UNDEF: 4)
    40c4:	00230202 	eoreq	r0, r3, r2, lsl #4
    40c8:	000a6609 	andeq	r6, sl, r9, lsl #12
    40cc:	53470300 	movtpl	r0, #29440	; 0x7300
    40d0:	04000000 	streq	r0, [r0], #-0
    40d4:	23020101 	movwcs	r0, #8449	; 0x2101
    40d8:	0dbd0900 	ldceq	9, cr0, [sp]
    40dc:	48030000 	stmdami	r3, {}	; <UNPREDICTABLE>
    40e0:	00000053 	andeq	r0, r0, r3, asr r0
    40e4:	02000104 	andeq	r0, r0, #1
    40e8:	03000023 	movweq	r0, #35	; 0x23
    40ec:	00000fe8 	andeq	r0, r0, r8, ror #31
    40f0:	023e4903 	eorseq	r4, lr, #49152	; 0xc000
    40f4:	a3080000 	movwge	r0, #32768	; 0x8000
    40f8:	0400000d 	streq	r0, [r0], #-13
    40fc:	041d4c03 	ldreq	r4, [sp], #-3075	; 0xc03
    4100:	93090000 	movwls	r0, #36864	; 0x9000
    4104:	03000006 	movweq	r0, #6
    4108:	0000534e 	andeq	r5, r0, lr, asr #6
    410c:	1e020400 	cfcpysne	mvf0, mvf2
    4110:	09002302 	stmdbeq	r0, {r1, r8, r9, sp}
    4114:	00000e28 	andeq	r0, r0, r8, lsr #28
    4118:	00534f03 	subseq	r4, r3, r3, lsl #30
    411c:	02040000 	andeq	r0, r4, #0
    4120:	0023021c 	eoreq	r0, r3, ip, lsl r2
    4124:	00068b09 	andeq	r8, r6, r9, lsl #22
    4128:	53500300 	cmppl	r0, #0
    412c:	04000000 	streq	r0, [r0], #-0
    4130:	23021a02 	movwcs	r1, #10754	; 0x2a02
    4134:	0e320900 	cdpeq	9, 3, cr0, cr2, cr0, {0}
    4138:	51030000 	mrspl	r0, (UNDEF: 3)
    413c:	00000053 	andeq	r0, r0, r3, asr r0
    4140:	02180204 	andseq	r0, r8, #1073741824	; 0x40000000
    4144:	9b090023 	blls	2441d8 <__bss_end+0x241350>
    4148:	03000006 	movweq	r0, #6
    414c:	00005352 	andeq	r5, r0, r2, asr r3
    4150:	13050400 	movwne	r0, #21504	; 0x5400
    4154:	09002302 	stmdbeq	r0, {r1, r8, r9, sp}
    4158:	00000e3c 	andeq	r0, r0, ip, lsr lr
    415c:	00535303 	subseq	r5, r3, r3, lsl #6
    4160:	07040000 	streq	r0, [r4, -r0]
    4164:	0023020c 	eoreq	r0, r3, ip, lsl #4
    4168:	00056609 	andeq	r6, r5, r9, lsl #12
    416c:	53540300 	cmppl	r4, #0
    4170:	04000000 	streq	r0, [r0], #-0
    4174:	23020b01 	movwcs	r0, #11009	; 0x2b01
    4178:	0e460900 	cdpeq	9, 4, cr0, cr6, cr0, {0}
    417c:	55030000 	strpl	r0, [r3, #-0]
    4180:	00000053 	andeq	r0, r0, r3, asr r0
    4184:	02080304 	andeq	r0, r8, #268435456	; 0x10000000
    4188:	53090023 	movwpl	r0, #36899	; 0x9023
    418c:	0300000a 	movweq	r0, #10
    4190:	00005356 	andeq	r5, r0, r6, asr r3
    4194:	07010400 	streq	r0, [r1, -r0, lsl #8]
    4198:	09002302 	stmdbeq	r0, {r1, r8, r9, sp}
    419c:	00000e50 	andeq	r0, r0, r0, asr lr
    41a0:	00535703 	subseq	r5, r3, r3, lsl #14
    41a4:	03040000 	movweq	r0, #16384	; 0x4000
    41a8:	00230204 	eoreq	r0, r3, r4, lsl #4
    41ac:	000c6209 	andeq	r6, ip, r9, lsl #4
    41b0:	53580300 	cmppl	r8, #0
    41b4:	04000000 	streq	r0, [r0], #-0
    41b8:	23020301 	movwcs	r0, #8961	; 0x2301
    41bc:	0e5a0900 	cdpeq	9, 5, cr0, cr10, cr0, {0}
    41c0:	59030000 	stmdbpl	r3, {}	; <UNPREDICTABLE>
    41c4:	00000053 	andeq	r0, r0, r3, asr r0
    41c8:	02010204 	andeq	r0, r1, #1073741824	; 0x40000000
    41cc:	bd090023 	stclt	0, cr0, [r9, #-140]	; 0xffffff74
    41d0:	0300000d 	movweq	r0, #13
    41d4:	0000535a 	andeq	r5, r0, sl, asr r3
    41d8:	00010400 	andeq	r0, r1, r0, lsl #8
    41dc:	00002302 	andeq	r2, r0, r2, lsl #6
    41e0:	0005ba03 	andeq	fp, r5, r3, lsl #20
    41e4:	335b0300 	cmpcc	fp, #0
    41e8:	08000003 	stmdaeq	r0, {r0, r1}
    41ec:	0000111c 	andeq	r1, r0, ip, lsl r1
    41f0:	345e0304 	ldrbcc	r0, [lr], #-772	; 0x304
    41f4:	09000005 	stmdbeq	r0, {r0, r2}
    41f8:	00000693 	muleq	r0, r3, r6
    41fc:	00536003 	subseq	r6, r3, r3
    4200:	02040000 	andeq	r0, r4, #0
    4204:	0023021e 	eoreq	r0, r3, lr, lsl r2
    4208:	000e2809 	andeq	r2, lr, r9, lsl #16
    420c:	53610300 	cmnpl	r1, #0
    4210:	04000000 	streq	r0, [r0], #-0
    4214:	23021c02 	movwcs	r1, #11266	; 0x2c02
    4218:	068b0900 	streq	r0, [fp], r0, lsl #18
    421c:	62030000 	andvs	r0, r3, #0
    4220:	00000053 	andeq	r0, r0, r3, asr r0
    4224:	021a0204 	andseq	r0, sl, #1073741824	; 0x40000000
    4228:	32090023 	andcc	r0, r9, #35	; 0x23
    422c:	0300000e 	movweq	r0, #14
    4230:	00005363 	andeq	r5, r0, r3, ror #6
    4234:	18020400 	stmdane	r2, {sl}
    4238:	09002302 	stmdbeq	r0, {r1, r8, r9, sp}
    423c:	0000069b 	muleq	r0, fp, r6
    4240:	00536403 	subseq	r6, r3, r3, lsl #8
    4244:	05040000 	streq	r0, [r4, #-0]
    4248:	00230213 	eoreq	r0, r3, r3, lsl r2
    424c:	000e3c09 	andeq	r3, lr, r9, lsl #24
    4250:	53650300 	cmnpl	r5, #0
    4254:	04000000 	streq	r0, [r0], #-0
    4258:	23021003 	movwcs	r1, #8195	; 0x2003
    425c:	0f880900 	svceq	0x00880900
    4260:	66030000 	strvs	r0, [r3], -r0
    4264:	00000053 	andeq	r0, r0, r3, asr r0
    4268:	020e0204 	andeq	r0, lr, #1073741824	; 0x40000000
    426c:	77090023 	strvc	r0, [r9, -r3, lsr #32]
    4270:	03000002 	movweq	r0, #2
    4274:	00005367 	andeq	r5, r0, r7, ror #6
    4278:	0d010400 	cfstrseq	mvf0, [r1, #-0]
    427c:	09002302 	stmdbeq	r0, {r1, r8, r9, sp}
    4280:	00000e46 	andeq	r0, r0, r6, asr #28
    4284:	00536803 	subseq	r6, r3, r3, lsl #16
    4288:	05040000 	streq	r0, [r4, #-0]
    428c:	00230208 	eoreq	r0, r3, r8, lsl #4
    4290:	000ba009 	andeq	sl, fp, r9
    4294:	53690300 	cmnpl	r9, #0
    4298:	04000000 	streq	r0, [r0], #-0
    429c:	23020701 	movwcs	r0, #9985	; 0x2701
    42a0:	0b380900 	bleq	e066a8 <__bss_end+0xe03820>
    42a4:	6a030000 	bvs	c42ac <__bss_end+0xc1424>
    42a8:	00000053 	andeq	r0, r0, r3, asr r0
    42ac:	02060104 	andeq	r0, r6, #1
    42b0:	50090023 	andpl	r0, r9, r3, lsr #32
    42b4:	0300000e 	movweq	r0, #14
    42b8:	0000536b 	andeq	r5, r0, fp, ror #6
    42bc:	04020400 	streq	r0, [r2], #-1024	; 0x400
    42c0:	09002302 	stmdbeq	r0, {r1, r8, r9, sp}
    42c4:	00000c62 	andeq	r0, r0, r2, ror #24
    42c8:	00536c03 	subseq	r6, r3, r3, lsl #24
    42cc:	01040000 	mrseq	r0, (UNDEF: 4)
    42d0:	00230203 	eoreq	r0, r3, r3, lsl #4
    42d4:	000e5a09 	andeq	r5, lr, r9, lsl #20
    42d8:	536d0300 	cmnpl	sp, #0
    42dc:	04000000 	streq	r0, [r0], #-0
    42e0:	23020102 	movwcs	r0, #8450	; 0x2102
    42e4:	0dbd0900 	ldceq	9, cr0, [sp]
    42e8:	6e030000 	cdpvs	0, 0, cr0, cr3, cr0, {0}
    42ec:	00000053 	andeq	r0, r0, r3, asr r0
    42f0:	02000104 	andeq	r0, r0, #1
    42f4:	03000023 	movweq	r0, #35	; 0x23
    42f8:	000004d1 	ldrdeq	r0, [r0], -r1
    42fc:	04286f03 	strteq	r6, [r8], #-3843	; 0xf03
    4300:	3e080000 	cdpcc	0, 0, cr0, cr8, cr0, {0}
    4304:	0400000c 	streq	r0, [r0], #-12
    4308:	068f7203 	streq	r7, [pc], r3, lsl #4
    430c:	93090000 	movwls	r0, #36864	; 0x9000
    4310:	03000006 	movweq	r0, #6
    4314:	00005374 	andeq	r5, r0, r4, ror r3
    4318:	1c040400 	cfstrsne	mvf0, [r4], {-0}
    431c:	09002302 	stmdbeq	r0, {r1, r8, r9, sp}
    4320:	0000068b 	andeq	r0, r0, fp, lsl #13
    4324:	00537503 	subseq	r7, r3, r3, lsl #10
    4328:	02040000 	andeq	r0, r4, #0
    432c:	0023021a 	eoreq	r0, r3, sl, lsl r2
    4330:	000e2809 	andeq	r2, lr, r9, lsl #16
    4334:	53760300 	cmnpl	r6, #0
    4338:	04000000 	streq	r0, [r0], #-0
    433c:	23021802 	movwcs	r1, #10242	; 0x2802
    4340:	069b0900 	ldreq	r0, [fp], r0, lsl #18
    4344:	77030000 	strvc	r0, [r3, -r0]
    4348:	00000053 	andeq	r0, r0, r3, asr r0
    434c:	02140404 	andseq	r0, r4, #67108864	; 0x4000000
    4350:	32090023 	andcc	r0, r9, #35	; 0x23
    4354:	0300000e 	movweq	r0, #14
    4358:	00005378 	andeq	r5, r0, r8, ror r3
    435c:	10040400 	andne	r0, r4, r0, lsl #8
    4360:	09002302 	stmdbeq	r0, {r1, r8, r9, sp}
    4364:	00000609 	andeq	r0, r0, r9, lsl #12
    4368:	00537903 	subseq	r7, r3, r3, lsl #18
    436c:	01040000 	mrseq	r0, (UNDEF: 4)
    4370:	0023020f 	eoreq	r0, r3, pc, lsl #4
    4374:	000d4809 	andeq	r4, sp, r9, lsl #16
    4378:	537b0300 	cmnpl	fp, #0
    437c:	04000000 	streq	r0, [r0], #-0
    4380:	23020e01 	movwcs	r0, #11777	; 0x2e01
    4384:	0e3c0900 	cdpeq	9, 3, cr0, cr12, cr0, {0}
    4388:	7c030000 	stcvc	0, cr0, [r3], {-0}
    438c:	00000053 	andeq	r0, r0, r3, asr r0
    4390:	020c0204 	andeq	r0, ip, #1073741824	; 0x40000000
    4394:	27090023 	strcs	r0, [r9, -r3, lsr #32]
    4398:	0300000c 	movweq	r0, #12
    439c:	0000537d 	andeq	r5, r0, sp, ror r3
    43a0:	0b010400 	bleq	453a8 <__bss_end+0x42520>
    43a4:	09002302 	stmdbeq	r0, {r1, r8, r9, sp}
    43a8:	00000477 	andeq	r0, r0, r7, ror r4
    43ac:	00537e03 	subseq	r7, r3, r3, lsl #28
    43b0:	01040000 	mrseq	r0, (UNDEF: 4)
    43b4:	0023020a 	eoreq	r0, r3, sl, lsl #4
    43b8:	00052909 	andeq	r2, r5, r9, lsl #18
    43bc:	537f0300 	cmnpl	pc, #0
    43c0:	04000000 	streq	r0, [r0], #-0
    43c4:	23020901 	movwcs	r0, #10497	; 0x2901
    43c8:	0e210900 	cdpeq	9, 2, cr0, cr1, cr0, {0}
    43cc:	80030000 	andhi	r0, r3, r0
    43d0:	00000053 	andeq	r0, r0, r3, asr r0
    43d4:	02080104 	andeq	r0, r8, #1
    43d8:	46090023 	strmi	r0, [r9], -r3, lsr #32
    43dc:	0300000e 	movweq	r0, #14
    43e0:	00005381 	andeq	r5, r0, r1, lsl #7
    43e4:	07010400 	streq	r0, [r1, -r0, lsl #8]
    43e8:	09002302 	stmdbeq	r0, {r1, r8, r9, sp}
    43ec:	00000ca9 	andeq	r0, r0, r9, lsr #25
    43f0:	00538203 	subseq	r8, r3, r3, lsl #4
    43f4:	01040000 	mrseq	r0, (UNDEF: 4)
    43f8:	00230206 	eoreq	r0, r3, r6, lsl #4
    43fc:	000db709 	andeq	fp, sp, r9, lsl #14
    4400:	53830300 	orrpl	r0, r3, #0
    4404:	04000000 	streq	r0, [r0], #-0
    4408:	23020501 	movwcs	r0, #9473	; 0x2501
    440c:	0f290900 	svceq	0x00290900
    4410:	84030000 	strhi	r0, [r3], #-0
    4414:	00000053 	andeq	r0, r0, r3, asr r0
    4418:	02040104 	andeq	r0, r4, #1
    441c:	62090023 	andvs	r0, r9, #35	; 0x23
    4420:	0300000c 	movweq	r0, #12
    4424:	00005385 	andeq	r5, r0, r5, lsl #7
    4428:	03010400 	movweq	r0, #5120	; 0x1400
    442c:	09002302 	stmdbeq	r0, {r1, r8, r9, sp}
    4430:	00000e50 	andeq	r0, r0, r0, asr lr
    4434:	00538603 	subseq	r8, r3, r3, lsl #12
    4438:	02040000 	andeq	r0, r4, #0
    443c:	00230201 	eoreq	r0, r3, r1, lsl #4
    4440:	000dbd09 	andeq	fp, sp, r9, lsl #26
    4444:	53870300 	orrpl	r0, r7, #0
    4448:	04000000 	streq	r0, [r0], #-0
    444c:	23020001 	movwcs	r0, #8193	; 0x2001
    4450:	04030000 	streq	r0, [r3], #-0
    4454:	03000003 	movweq	r0, #3
    4458:	00053f88 	andeq	r3, r5, r8, lsl #31
    445c:	0eb50800 	cdpeq	8, 11, cr0, cr5, cr0, {0}
    4460:	03040000 	movweq	r0, #16384	; 0x4000
    4464:	00070d8e 	andeq	r0, r7, lr, lsl #27
    4468:	10df0900 	sbcsne	r0, pc, r0, lsl #18
    446c:	90030000 	andls	r0, r3, r0
    4470:	00000053 	andeq	r0, r0, r3, asr r0
    4474:	021d0304 	andseq	r0, sp, #268435456	; 0x10000000
    4478:	28090023 	stmdacs	r9, {r0, r1, r5}
    447c:	0300000e 	movweq	r0, #14
    4480:	00005391 	muleq	r0, r1, r3
    4484:	18050400 	stmdane	r5, {sl}
    4488:	09002302 	stmdbeq	r0, {r1, r8, r9, sp}
    448c:	00000df5 	strdeq	r0, [r0], -r5
    4490:	00539203 	subseq	r9, r3, r3, lsl #4
    4494:	02040000 	andeq	r0, r4, #0
    4498:	00230216 	eoreq	r0, r3, r6, lsl r2
    449c:	000e3209 	andeq	r3, lr, r9, lsl #4
    44a0:	53930300 	orrspl	r0, r3, #0
    44a4:	04000000 	streq	r0, [r0], #-0
    44a8:	23021006 	movwcs	r1, #8198	; 0x2006
    44ac:	0fde0900 	svceq	0x00de0900
    44b0:	94030000 	strls	r0, [r3], #-0
    44b4:	00000053 	andeq	r0, r0, r3, asr r0
    44b8:	020e0204 	andeq	r0, lr, #1073741824	; 0x40000000
    44bc:	3c090023 	stccc	0, cr0, [r9], {35}	; 0x23
    44c0:	0300000e 	movweq	r0, #14
    44c4:	00005395 	muleq	r0, r5, r3
    44c8:	000e0400 	andeq	r0, lr, r0, lsl #8
    44cc:	00002302 	andeq	r2, r0, r2, lsl #6
    44d0:	00050b03 	andeq	r0, r5, r3, lsl #22
    44d4:	9a960300 	bls	fe5850dc <__bss_end+0xfe582254>
    44d8:	08000006 	stmdaeq	r0, {r1, r2}
    44dc:	00000283 	andeq	r0, r0, r3, lsl #5
    44e0:	9c9d0304 	ldcls	3, cr0, [sp], {4}
    44e4:	09000007 	stmdbeq	r0, {r0, r1, r2}
    44e8:	00000e28 	andeq	r0, r0, r8, lsr #28
    44ec:	00539f03 	subseq	r9, r3, r3, lsl #30
    44f0:	04040000 	streq	r0, [r4], #-0
    44f4:	0023021c 	eoreq	r0, r3, ip, lsl r2
    44f8:	000b6509 	andeq	r6, fp, r9, lsl #10
    44fc:	53a00300 	movpl	r0, #0
    4500:	04000000 	streq	r0, [r0], #-0
    4504:	23021a02 	movwcs	r1, #10754	; 0x2a02
    4508:	10a40900 	adcne	r0, r4, r0, lsl #18
    450c:	a1030000 	mrsge	r0, (UNDEF: 3)
    4510:	00000053 	andeq	r0, r0, r3, asr r0
    4514:	02180204 	andseq	r0, r8, #1073741824	; 0x40000000
    4518:	fe090023 	cdp2	0, 0, cr0, cr9, cr3, {1}
    451c:	0300000c 	movweq	r0, #12
    4520:	000053a2 	andeq	r5, r0, r2, lsr #7
    4524:	16020400 	strne	r0, [r2], -r0, lsl #8
    4528:	09002302 	stmdbeq	r0, {r1, r8, r9, sp}
    452c:	00000e32 	andeq	r0, r0, r2, lsr lr
    4530:	0053a303 	subseq	sl, r3, r3, lsl #6
    4534:	02040000 	andeq	r0, r4, #0
    4538:	00230214 	eoreq	r0, r3, r4, lsl r2
    453c:	000f6909 	andeq	r6, pc, r9, lsl #18
    4540:	53a40300 			; <UNDEFINED> instruction: 0x53a40300
    4544:	04000000 	streq	r0, [r0], #-0
    4548:	23021202 	movwcs	r1, #8706	; 0x2202
    454c:	0e3c0900 	cdpeq	9, 3, cr0, cr12, cr0, {0}
    4550:	a5030000 	strge	r0, [r3, #-0]
    4554:	00000053 	andeq	r0, r0, r3, asr r0
    4558:	02001204 	andeq	r1, r0, #1073741824	; 0x40000000
    455c:	03000023 	movweq	r0, #35	; 0x23
    4560:	00000fa6 	andeq	r0, r0, r6, lsr #31
    4564:	0718a603 	ldreq	sl, [r8, -r3, lsl #12]
    4568:	2d080000 	stccs	0, cr0, [r8, #-0]
    456c:	04000010 	streq	r0, [r0], #-16
    4570:	081aac03 	ldmdaeq	sl, {r0, r1, sl, fp, sp, pc}
    4574:	80090000 	andhi	r0, r9, r0
    4578:	03000007 	movweq	r0, #7
    457c:	000053ae 	andeq	r5, r0, lr, lsr #7
    4580:	1b050400 	blne	145588 <__bss_end+0x142700>
    4584:	09002302 	stmdbeq	r0, {r1, r8, r9, sp}
    4588:	000010d6 	ldrdeq	r1, [r0], -r6
    458c:	0053af03 	subseq	sl, r3, r3, lsl #30
    4590:	0b040000 	bleq	104598 <__bss_end+0x101710>
    4594:	00230210 	eoreq	r0, r3, r0, lsl r2
    4598:	00078509 	andeq	r8, r7, r9, lsl #10
    459c:	53b00300 	movspl	r0, #0
    45a0:	04000000 	streq	r0, [r0], #-0
    45a4:	23020e02 	movwcs	r0, #11778	; 0x2e02
    45a8:	0e320900 	cdpeq	9, 3, cr0, cr2, cr0, {0}
    45ac:	b1030000 	mrslt	r0, (UNDEF: 3)
    45b0:	00000053 	andeq	r0, r0, r3, asr r0
    45b4:	02080604 	andeq	r0, r8, #4194304	; 0x400000
    45b8:	6d090023 	stcvs	0, cr0, [r9, #-140]	; 0xffffff74
    45bc:	0300000f 	movweq	r0, #15
    45c0:	000053b2 			; <UNDEFINED> instruction: 0x000053b2
    45c4:	06020400 	streq	r0, [r2], -r0, lsl #8
    45c8:	09002302 	stmdbeq	r0, {r1, r8, r9, sp}
    45cc:	00000e3c 	andeq	r0, r0, ip, lsr lr
    45d0:	0053b303 	subseq	fp, r3, r3, lsl #6
    45d4:	06040000 	streq	r0, [r4], -r0
    45d8:	00230200 	eoreq	r0, r3, r0, lsl #4
    45dc:	0bcd0300 	bleq	ff3451e4 <__bss_end+0xff34235c>
    45e0:	b4030000 	strlt	r0, [r3], #-0
    45e4:	000007a7 	andeq	r0, r0, r7, lsr #15
    45e8:	00108308 	andseq	r8, r0, r8, lsl #6
    45ec:	b7030400 	strlt	r0, [r3, -r0, lsl #8]
    45f0:	00000854 	andeq	r0, r0, r4, asr r8
    45f4:	00099009 	andeq	r9, r9, r9
    45f8:	53b90300 			; <UNDEFINED> instruction: 0x53b90300
    45fc:	04000000 	streq	r0, [r0], #-0
    4600:	23021f01 	movwcs	r1, #12033	; 0x2f01
    4604:	0e280900 	cdpeq	9, 2, cr0, cr8, cr0, {0}
    4608:	ba030000 	blt	c4610 <__bss_end+0xc1788>
    460c:	00000053 	andeq	r0, r0, r3, asr r0
    4610:	02001f04 	andeq	r1, r0, #16
    4614:	03000023 	movweq	r0, #35	; 0x23
    4618:	00000818 	andeq	r0, r0, r8, lsl r8
    461c:	0825bb03 	stmdaeq	r5!, {r0, r1, r8, r9, fp, ip, sp, pc}
    4620:	7b080000 	blvc	204628 <__bss_end+0x2017a0>
    4624:	04000008 	streq	r0, [r0], #-8
    4628:	0a57be03 	beq	15f3e3c <__bss_end+0x15f0fb4>
    462c:	0f090000 	svceq	0x00090000
    4630:	0300000e 	movweq	r0, #14
    4634:	000053c0 	andeq	r5, r0, r0, asr #7
    4638:	1f010400 	svcne	0x00010400
    463c:	09002302 	stmdbeq	r0, {r1, r8, r9, sp}
    4640:	000004e7 	andeq	r0, r0, r7, ror #9
    4644:	0053c103 	subseq	ip, r3, r3, lsl #2
    4648:	01040000 	mrseq	r0, (UNDEF: 4)
    464c:	0023021e 	eoreq	r0, r3, lr, lsl r2
    4650:	000e2809 	andeq	r2, lr, r9, lsl #16
    4654:	53c20300 	bicpl	r0, r2, #0
    4658:	04000000 	streq	r0, [r0], #-0
    465c:	23021b03 	movwcs	r1, #11011	; 0x2b03
    4660:	73530a00 	cmpvc	r3, #0
    4664:	53c30300 	bicpl	r0, r3, #0
    4668:	04000000 	streq	r0, [r0], #-0
    466c:	23021a01 	movwcs	r1, #10753	; 0x2a01
    4670:	6d440a00 	vstrvs	s1, [r4, #-0]
    4674:	c4030061 	strgt	r0, [r3], #-97	; 0x61
    4678:	00000053 	andeq	r0, r0, r3, asr r0
    467c:	02190104 	andseq	r0, r9, #1
    4680:	32090023 	andcc	r0, r9, #35	; 0x23
    4684:	0300000e 	movweq	r0, #14
    4688:	000053c5 	andeq	r5, r0, r5, asr #7
    468c:	18010400 	stmdane	r1, {sl}
    4690:	0a002302 	beq	d2a0 <__bss_end+0xa418>
    4694:	00306453 	eorseq	r6, r0, r3, asr r4
    4698:	0053c603 	subseq	ip, r3, r3, lsl #12
    469c:	01040000 	mrseq	r0, (UNDEF: 4)
    46a0:	00230217 	eoreq	r0, r3, r7, lsl r2
    46a4:	3164530a 	cmncc	r4, sl, lsl #6
    46a8:	53c70300 	bicpl	r0, r7, #0
    46ac:	04000000 	streq	r0, [r0], #-0
    46b0:	23021601 	movwcs	r1, #9729	; 0x2601
    46b4:	64530a00 	ldrbvs	r0, [r3], #-2560	; 0xa00
    46b8:	c8030032 	stmdagt	r3, {r1, r4, r5}
    46bc:	00000053 	andeq	r0, r0, r3, asr r0
    46c0:	02150104 	andseq	r0, r5, #1
    46c4:	530a0023 	movwpl	r0, #40995	; 0xa023
    46c8:	03003364 	movweq	r3, #868	; 0x364
    46cc:	000053c9 	andeq	r5, r0, r9, asr #7
    46d0:	14010400 	strne	r0, [r1], #-1024	; 0x400
    46d4:	09002302 	stmdbeq	r0, {r1, r8, r9, sp}
    46d8:	00001186 	andeq	r1, r0, r6, lsl #3
    46dc:	0053ca03 	subseq	ip, r3, r3, lsl #20
    46e0:	01040000 	mrseq	r0, (UNDEF: 4)
    46e4:	00230213 	eoreq	r0, r3, r3, lsl r2
    46e8:	00118009 	andseq	r8, r1, r9
    46ec:	53cb0300 	bicpl	r0, fp, #0
    46f0:	04000000 	streq	r0, [r0], #-0
    46f4:	23021201 	movwcs	r1, #8705	; 0x2201
    46f8:	0afa0900 	beq	ffe86b00 <__bss_end+0xffe83c78>
    46fc:	cc030000 	stcgt	0, cr0, [r3], {-0}
    4700:	00000053 	andeq	r0, r0, r3, asr r0
    4704:	02110104 	andseq	r0, r1, #1
    4708:	3c090023 	stccc	0, cr0, [r9], {35}	; 0x23
    470c:	0300000e 	movweq	r0, #14
    4710:	000053cd 	andeq	r5, r0, sp, asr #7
    4714:	0f020400 	svceq	0x00020400
    4718:	09002302 	stmdbeq	r0, {r1, r8, r9, sp}
    471c:	000006d7 	ldrdeq	r0, [r0], -r7
    4720:	0053ce03 	subseq	ip, r3, r3, lsl #28
    4724:	01040000 	mrseq	r0, (UNDEF: 4)
    4728:	0023020e 	eoreq	r0, r3, lr, lsl #4
    472c:	0073540a 	rsbseq	r5, r3, sl, lsl #8
    4730:	0053cf03 	subseq	ip, r3, r3, lsl #30
    4734:	01040000 	mrseq	r0, (UNDEF: 4)
    4738:	0023020d 	eoreq	r0, r3, sp, lsl #4
    473c:	000ed109 	andeq	sp, lr, r9, lsl #2
    4740:	53d00300 	bicspl	r0, r0, #0
    4744:	04000000 	streq	r0, [r0], #-0
    4748:	23020c01 	movwcs	r0, #11265	; 0x2c01
    474c:	0eec0900 	cdpeq	9, 14, cr0, cr12, cr0, {0}
    4750:	d1030000 	mrsle	r0, (UNDEF: 3)
    4754:	00000053 	andeq	r0, r0, r3, asr r0
    4758:	020b0104 	andeq	r0, fp, #1
    475c:	f1090023 			; <UNDEFINED> instruction: 0xf1090023
    4760:	0300000e 	movweq	r0, #14
    4764:	000053d2 	ldrdeq	r5, [r0], -r2
    4768:	0a010400 	beq	45770 <__bss_end+0x428e8>
    476c:	09002302 	stmdbeq	r0, {r1, r8, r9, sp}
    4770:	00000ef6 	strdeq	r0, [r0], -r6
    4774:	0053d303 	subseq	sp, r3, r3, lsl #6
    4778:	01040000 	mrseq	r0, (UNDEF: 4)
    477c:	00230209 	eoreq	r0, r3, r9, lsl #4
    4780:	000d5409 	andeq	r5, sp, r9, lsl #8
    4784:	53d40300 	bicspl	r0, r4, #0
    4788:	04000000 	streq	r0, [r0], #-0
    478c:	23020801 	movwcs	r0, #10241	; 0x2801
    4790:	744f0a00 	strbvc	r0, [pc], #-2560	; 4798 <__bss_end+0x1910>
    4794:	d5030067 	strle	r0, [r3, #-103]	; 0x67
    4798:	00000053 	andeq	r0, r0, r3, asr r0
    479c:	02070104 	andeq	r0, r7, #1
    47a0:	46090023 	strmi	r0, [r9], -r3, lsr #32
    47a4:	0300000e 	movweq	r0, #14
    47a8:	000053d6 	ldrdeq	r5, [r0], -r6
    47ac:	06010400 	streq	r0, [r1], -r0, lsl #8
    47b0:	09002302 	stmdbeq	r0, {r1, r8, r9, sp}
    47b4:	000004c5 	andeq	r0, r0, r5, asr #9
    47b8:	0053d703 	subseq	sp, r3, r3, lsl #14
    47bc:	01040000 	mrseq	r0, (UNDEF: 4)
    47c0:	00230205 	eoreq	r0, r3, r5, lsl #4
    47c4:	0004cb09 	andeq	ip, r4, r9, lsl #22
    47c8:	53d80300 	bicspl	r0, r8, #0
    47cc:	04000000 	streq	r0, [r0], #-0
    47d0:	23020401 	movwcs	r0, #9217	; 0x2401
    47d4:	0e500900 	cdpeq	9, 5, cr0, cr0, cr0, {0}
    47d8:	d9030000 	stmdble	r3, {}	; <UNPREDICTABLE>
    47dc:	00000053 	andeq	r0, r0, r3, asr r0
    47e0:	02030104 	andeq	r0, r3, #1
    47e4:	97090023 	strls	r0, [r9, -r3, lsr #32]
    47e8:	0300000c 	movweq	r0, #12
    47ec:	000053da 	ldrdeq	r5, [r0], -sl
    47f0:	02010400 	andeq	r0, r1, #0
    47f4:	09002302 	stmdbeq	r0, {r1, r8, r9, sp}
    47f8:	00000c9d 	muleq	r0, sp, ip
    47fc:	0053db03 	subseq	sp, r3, r3, lsl #22
    4800:	01040000 	mrseq	r0, (UNDEF: 4)
    4804:	00230201 	eoreq	r0, r3, r1, lsl #4
    4808:	000ca309 	andeq	sl, ip, r9, lsl #6
    480c:	53dc0300 	bicspl	r0, ip, #0
    4810:	04000000 	streq	r0, [r0], #-0
    4814:	23020001 	movwcs	r0, #8193	; 0x2001
    4818:	9d030000 	stcls	0, cr0, [r3, #-0]
    481c:	03000002 	movweq	r0, #2
    4820:	00085fdd 	ldrdeq	r5, [r8], -sp
    4824:	038c0800 	orreq	r0, ip, #0
    4828:	03040000 	movweq	r0, #16384	; 0x4000
    482c:	000c16e0 	andeq	r1, ip, r0, ror #13
    4830:	65560a00 	ldrbvs	r0, [r6, #-2560]	; 0xa00
    4834:	53e20300 	mvnpl	r0, #0
    4838:	04000000 	streq	r0, [r0], #-0
    483c:	23021f01 	movwcs	r1, #12033	; 0x2f01
    4840:	0e280900 	cdpeq	9, 2, cr0, cr8, cr0, {0}
    4844:	e3030000 	movw	r0, #12288	; 0x3000
    4848:	00000053 	andeq	r0, r0, r3, asr r0
    484c:	021c0304 	andseq	r0, ip, #268435456	; 0x10000000
    4850:	8a090023 	bhi	2448e4 <__bss_end+0x241a5c>
    4854:	0300000a 	movweq	r0, #10
    4858:	000053e4 	andeq	r5, r0, r4, ror #7
    485c:	1b010400 	blne	45864 <__bss_end+0x429dc>
    4860:	09002302 	stmdbeq	r0, {r1, r8, r9, sp}
    4864:	00000c88 	andeq	r0, r0, r8, lsl #25
    4868:	0053e503 	subseq	lr, r3, r3, lsl #10
    486c:	01040000 	mrseq	r0, (UNDEF: 4)
    4870:	0023021a 	eoreq	r0, r3, sl, lsl r2
    4874:	000e3209 	andeq	r3, lr, r9, lsl #4
    4878:	53e60300 	mvnpl	r0, #0
    487c:	04000000 	streq	r0, [r0], #-0
    4880:	23021802 	movwcs	r1, #10242	; 0x2802
    4884:	0ea30900 	cdpeq	9, 10, cr0, cr3, cr0, {0}
    4888:	e7030000 	str	r0, [r3, -r0]
    488c:	00000053 	andeq	r0, r0, r3, asr r0
    4890:	02170104 	andseq	r0, r7, #1
    4894:	a8090023 	stmdage	r9, {r0, r1, r5}
    4898:	0300000e 	movweq	r0, #14
    489c:	000053e8 	andeq	r5, r0, r8, ror #7
    48a0:	16010400 	strne	r0, [r1], -r0, lsl #8
    48a4:	09002302 	stmdbeq	r0, {r1, r8, r9, sp}
    48a8:	00000e3c 	andeq	r0, r0, ip, lsr lr
    48ac:	0053e903 	subseq	lr, r3, r3, lsl #18
    48b0:	01040000 	mrseq	r0, (UNDEF: 4)
    48b4:	00230215 	eoreq	r0, r3, r5, lsl r2
    48b8:	00034309 	andeq	r4, r3, r9, lsl #6
    48bc:	53ea0300 	mvnpl	r0, #0
    48c0:	04000000 	streq	r0, [r0], #-0
    48c4:	23021401 	movwcs	r1, #9217	; 0x2401
    48c8:	65420a00 	strbvs	r0, [r2, #-2560]	; 0xa00
    48cc:	eb030030 	bl	c4994 <__bss_end+0xc1b0c>
    48d0:	00000053 	andeq	r0, r0, r3, asr r0
    48d4:	02130104 	andseq	r0, r3, #1
    48d8:	420a0023 	andmi	r0, sl, #35	; 0x23
    48dc:	03003165 	movweq	r3, #357	; 0x165
    48e0:	000053ec 	andeq	r5, r0, ip, ror #7
    48e4:	12010400 	andne	r0, r1, #0
    48e8:	0a002302 	beq	d4f8 <__bss_end+0xa670>
    48ec:	00306546 	eorseq	r6, r0, r6, asr #10
    48f0:	0053ed03 	subseq	lr, r3, r3, lsl #26
    48f4:	01040000 	mrseq	r0, (UNDEF: 4)
    48f8:	00230211 	eoreq	r0, r3, r1, lsl r2
    48fc:	3165460a 	cmncc	r5, sl, lsl #12
    4900:	53ee0300 	mvnpl	r0, #0
    4904:	04000000 	streq	r0, [r0], #-0
    4908:	23021001 	movwcs	r1, #8193	; 0x2001
    490c:	0e460900 	cdpeq	9, 4, cr0, cr6, cr0, {0}
    4910:	ef030000 	svc	0x00030000
    4914:	00000053 	andeq	r0, r0, r3, asr r0
    4918:	020e0204 	andeq	r0, lr, #1073741824	; 0x40000000
    491c:	4d0a0023 	stcmi	0, cr0, [sl, #-140]	; 0xffffff74
    4920:	f0030070 			; <UNDEFINED> instruction: 0xf0030070
    4924:	00000053 	andeq	r0, r0, r3, asr r0
    4928:	020d0104 	andeq	r0, sp, #1
    492c:	50090023 	andpl	r0, r9, r3, lsr #32
    4930:	0300000e 	movweq	r0, #14
    4934:	000053f1 	strdeq	r5, [r0], -r1
    4938:	0c010400 	cfstrseq	mvf0, [r1], {-0}
    493c:	0a002302 	beq	d54c <__bss_end+0xa6c4>
    4940:	00757047 	rsbseq	r7, r5, r7, asr #32
    4944:	0053f203 	subseq	pc, r3, r3, lsl #4
    4948:	01040000 	mrseq	r0, (UNDEF: 4)
    494c:	0023020b 	eoreq	r0, r3, fp, lsl #4
    4950:	0003ad09 	andeq	sl, r3, r9, lsl #26
    4954:	53f30300 	mvnspl	r0, #0
    4958:	04000000 	streq	r0, [r0], #-0
    495c:	23020a01 	movwcs	r0, #10753	; 0x2a01
    4960:	0ed70900 	cdpeq	9, 13, cr0, cr7, cr0, {0}
    4964:	f4030000 	vst4.8	{d0-d3}, [r3], r0
    4968:	00000053 	andeq	r0, r0, r3, asr r0
    496c:	02090104 	andeq	r0, r9, #1
    4970:	5d090023 	stcpl	0, cr0, [r9, #-140]	; 0xffffff74
    4974:	03000008 	movweq	r0, #8
    4978:	000053f5 	strdeq	r5, [r0], -r5	; <UNPREDICTABLE>
    497c:	08010400 	stmdaeq	r1, {sl}
    4980:	09002302 	stmdbeq	r0, {r1, r8, r9, sp}
    4984:	00000865 	andeq	r0, r0, r5, ror #16
    4988:	0053f603 	subseq	pc, r3, r3, lsl #12
    498c:	01040000 	mrseq	r0, (UNDEF: 4)
    4990:	00230207 	eoreq	r0, r3, r7, lsl #4
    4994:	00080b09 	andeq	r0, r8, r9, lsl #22
    4998:	53f70300 	mvnspl	r0, #0
    499c:	04000000 	streq	r0, [r0], #-0
    49a0:	23020601 	movwcs	r0, #9729	; 0x2601
    49a4:	08130900 	ldmdaeq	r3, {r8, fp}
    49a8:	f8030000 			; <UNDEFINED> instruction: 0xf8030000
    49ac:	00000053 	andeq	r0, r0, r3, asr r0
    49b0:	02050104 	andeq	r0, r5, #1
    49b4:	b3090023 	movwlt	r0, #36899	; 0x9023
    49b8:	03000005 	movweq	r0, #5
    49bc:	000053f9 	strdeq	r5, [r0], -r9
    49c0:	04010400 	streq	r0, [r1], #-1024	; 0x400
    49c4:	09002302 	stmdbeq	r0, {r1, r8, r9, sp}
    49c8:	00000e5a 	andeq	r0, r0, sl, asr lr
    49cc:	0053fa03 	subseq	pc, r3, r3, lsl #20
    49d0:	04040000 	streq	r0, [r4], #-0
    49d4:	00230200 	eoreq	r0, r3, r0, lsl #4
    49d8:	0a6e0300 	beq	1b855e0 <__bss_end+0x1b82758>
    49dc:	fb030000 	blx	c49e6 <__bss_end+0xc1b5e>
    49e0:	00000a62 	andeq	r0, r0, r2, ror #20
    49e4:	00076708 	andeq	r6, r7, r8, lsl #14
    49e8:	fe030400 	cdp2	4, 0, cr0, cr3, cr0, {0}
    49ec:	00000cd0 	ldrdeq	r0, [r0], -r0	; <UNPREDICTABLE>
    49f0:	0009720b 	andeq	r7, r9, fp, lsl #4
    49f4:	01000300 	mrseq	r0, LR_irq
    49f8:	00000053 	andeq	r0, r0, r3, asr r0
    49fc:	021f0104 	andseq	r0, pc, #1
    4a00:	e40b0023 	str	r0, [fp], #-35	; 0x23
    4a04:	03000007 	movweq	r0, #7
    4a08:	00530101 	subseq	r0, r3, r1, lsl #2
    4a0c:	01040000 	mrseq	r0, (UNDEF: 4)
    4a10:	0023021e 	eoreq	r0, r3, lr, lsl r2
    4a14:	000e280b 	andeq	r2, lr, fp, lsl #16
    4a18:	01020300 	mrseq	r0, LR_svc
    4a1c:	00000053 	andeq	r0, r0, r3, asr r0
    4a20:	021c0204 	andseq	r0, ip, #1073741824	; 0x40000000
    4a24:	ff0b0023 			; <UNDEFINED> instruction: 0xff0b0023
    4a28:	03000002 	movweq	r0, #2
    4a2c:	00530103 	subseq	r0, r3, r3, lsl #2
    4a30:	01040000 	mrseq	r0, (UNDEF: 4)
    4a34:	0023021b 	eoreq	r0, r3, fp, lsl r2
    4a38:	6f69500c 	svcvs	0x0069500c
    4a3c:	01040300 	mrseq	r0, LR_abt
    4a40:	00000053 	andeq	r0, r0, r3, asr r0
    4a44:	021a0104 	andseq	r0, sl, #1
    4a48:	320b0023 	andcc	r0, fp, #35	; 0x23
    4a4c:	0300000e 	movweq	r0, #14
    4a50:	00530105 	subseq	r0, r3, r5, lsl #2
    4a54:	06040000 	streq	r0, [r4], -r0
    4a58:	00230214 	eoreq	r0, r3, r4, lsl r2
    4a5c:	0010c50b 	andseq	ip, r0, fp, lsl #10
    4a60:	01060300 	mrseq	r0, LR_und
    4a64:	00000053 	andeq	r0, r0, r3, asr r0
    4a68:	02130104 	andseq	r0, r3, #1
    4a6c:	a30b0023 	movwge	r0, #45091	; 0xb023
    4a70:	03000004 	movweq	r0, #4
    4a74:	00530107 	subseq	r0, r3, r7, lsl #2
    4a78:	01040000 	mrseq	r0, (UNDEF: 4)
    4a7c:	00230212 	eoreq	r0, r3, r2, lsl r2
    4a80:	000e3c0b 	andeq	r3, lr, fp, lsl #24
    4a84:	01080300 	mrseq	r0, (UNDEF: 56)
    4a88:	00000053 	andeq	r0, r0, r3, asr r0
    4a8c:	02001204 	andeq	r1, r0, #1073741824	; 0x40000000
    4a90:	0d000023 	stceq	0, cr0, [r0, #-140]	; 0xffffff74
    4a94:	000003b4 			; <UNDEFINED> instruction: 0x000003b4
    4a98:	21010903 	tstcs	r1, r3, lsl #18
    4a9c:	0e00000c 	cdpeq	0, 0, cr0, cr0, cr12, {0}
    4aa0:	00000714 	andeq	r0, r0, r4, lsl r7
    4aa4:	010c0304 	tsteq	ip, r4, lsl #6
    4aa8:	00000dc2 	andeq	r0, r0, r2, asr #27
    4aac:	0005730b 	andeq	r7, r5, fp, lsl #6
    4ab0:	010e0300 	mrseq	r0, ELR_hyp
    4ab4:	00000053 	andeq	r0, r0, r3, asr r0
    4ab8:	021f0104 	andseq	r0, pc, #1
    4abc:	780b0023 	stmdavc	fp, {r0, r1, r5}
    4ac0:	03000005 	movweq	r0, #5
    4ac4:	0053010f 	subseq	r0, r3, pc, lsl #2
    4ac8:	01040000 	mrseq	r0, (UNDEF: 4)
    4acc:	0023021e 	eoreq	r0, r3, lr, lsl r2
    4ad0:	00057d0b 	andeq	r7, r5, fp, lsl #26
    4ad4:	01100300 	tsteq	r0, r0, lsl #6
    4ad8:	00000053 	andeq	r0, r0, r3, asr r0
    4adc:	021d0104 	andseq	r0, sp, #1
    4ae0:	820b0023 	andhi	r0, fp, #35	; 0x23
    4ae4:	03000005 	movweq	r0, #5
    4ae8:	00530111 	subseq	r0, r3, r1, lsl r1
    4aec:	01040000 	mrseq	r0, (UNDEF: 4)
    4af0:	0023021c 	eoreq	r0, r3, ip, lsl r2
    4af4:	000e280b 	andeq	r2, lr, fp, lsl #16
    4af8:	01120300 	tsteq	r2, r0, lsl #6
    4afc:	00000053 	andeq	r0, r0, r3, asr r0
    4b00:	02100c04 	andseq	r0, r0, #1024	; 0x400
    4b04:	270b0023 	strcs	r0, [fp, -r3, lsr #32]
    4b08:	0300000b 	movweq	r0, #11
    4b0c:	00530113 	subseq	r0, r3, r3, lsl r1
    4b10:	01040000 	mrseq	r0, (UNDEF: 4)
    4b14:	0023020f 	eoreq	r0, r3, pc, lsl #4
    4b18:	000f320b 	andeq	r3, pc, fp, lsl #4
    4b1c:	01140300 	tsteq	r4, r0, lsl #6
    4b20:	00000053 	andeq	r0, r0, r3, asr r0
    4b24:	020e0104 	andeq	r0, lr, #1
    4b28:	3d0b0023 	stccc	0, cr0, [fp, #-140]	; 0xffffff74
    4b2c:	0300000f 	movweq	r0, #15
    4b30:	00530115 	subseq	r0, r3, r5, lsl r1
    4b34:	01040000 	mrseq	r0, (UNDEF: 4)
    4b38:	0023020d 	eoreq	r0, r3, sp, lsl #4
    4b3c:	0005870b 	andeq	r8, r5, fp, lsl #14
    4b40:	01160300 	tsteq	r6, r0, lsl #6
    4b44:	00000053 	andeq	r0, r0, r3, asr r0
    4b48:	020c0104 	andeq	r0, ip, #1
    4b4c:	8d0b0023 	stchi	0, cr0, [fp, #-140]	; 0xffffff74
    4b50:	03000005 	movweq	r0, #5
    4b54:	00530117 	subseq	r0, r3, r7, lsl r1
    4b58:	01040000 	mrseq	r0, (UNDEF: 4)
    4b5c:	0023020b 	eoreq	r0, r3, fp, lsl #4
    4b60:	0005930b 	andeq	r9, r5, fp, lsl #6
    4b64:	01180300 	tsteq	r8, r0, lsl #6
    4b68:	00000053 	andeq	r0, r0, r3, asr r0
    4b6c:	020a0104 	andeq	r0, sl, #1
    4b70:	320b0023 	andcc	r0, fp, #35	; 0x23
    4b74:	0300000e 	movweq	r0, #14
    4b78:	00530119 	subseq	r0, r3, r9, lsl r1
    4b7c:	0a040000 	beq	104b84 <__bss_end+0x101cfc>
    4b80:	00230200 	eoreq	r0, r3, r0, lsl #4
    4b84:	09410d00 	stmdbeq	r1, {r8, sl, fp}^
    4b88:	1a030000 	bne	c4b90 <__bss_end+0xc1d08>
    4b8c:	000cdc01 	andeq	sp, ip, r1, lsl #24
    4b90:	0ac70e00 	beq	ff1c8398 <__bss_end+0xff1c5510>
    4b94:	03040000 	movweq	r0, #16384	; 0x4000
    4b98:	0ea2011e 	mcreq	1, 5, r0, cr2, cr14, {0}
    4b9c:	800b0000 	andhi	r0, fp, r0
    4ba0:	03000007 	movweq	r0, #7
    4ba4:	00530120 	subseq	r0, r3, r0, lsr #2
    4ba8:	04040000 	streq	r0, [r4], #-0
    4bac:	0023021c 	eoreq	r0, r3, ip, lsl r2
    4bb0:	000e280b 	andeq	r2, lr, fp, lsl #16
    4bb4:	01210300 	teqeq	r1, r0, lsl #6
    4bb8:	00000053 	andeq	r0, r0, r3, asr r0
    4bbc:	02180404 	andseq	r0, r8, #67108864	; 0x4000000
    4bc0:	a60b0023 	strge	r0, [fp], -r3, lsr #32
    4bc4:	03000009 	movweq	r0, #9
    4bc8:	00530122 	subseq	r0, r3, r2, lsr #2
    4bcc:	03040000 	movweq	r0, #16384	; 0x4000
    4bd0:	00230215 	eoreq	r0, r3, r5, lsl r2
    4bd4:	000e320b 	andeq	r3, lr, fp, lsl #4
    4bd8:	01230300 	teqeq	r3, r0, lsl #6
    4bdc:	00000053 	andeq	r0, r0, r3, asr r0
    4be0:	02100504 	andseq	r0, r0, #16777216	; 0x1000000
    4be4:	850b0023 	strhi	r0, [fp, #-35]	; 0x23
    4be8:	03000007 	movweq	r0, #7
    4bec:	00530124 	subseq	r0, r3, r4, lsr #2
    4bf0:	02040000 	andeq	r0, r4, #0
    4bf4:	0023020e 	eoreq	r0, r3, lr, lsl #4
    4bf8:	000e3c0b 	andeq	r3, lr, fp, lsl #24
    4bfc:	01250300 	teqeq	r5, r0, lsl #6
    4c00:	00000053 	andeq	r0, r0, r3, asr r0
    4c04:	020c0204 	andeq	r0, ip, #1073741824	; 0x40000000
    4c08:	a80b0023 	stmdage	fp, {r0, r1, r5}
    4c0c:	03000004 	movweq	r0, #4
    4c10:	00530126 	subseq	r0, r3, r6, lsr #2
    4c14:	03040000 	movweq	r0, #16384	; 0x4000
    4c18:	00230209 	eoreq	r0, r3, r9, lsl #4
    4c1c:	000e460b 	andeq	r4, lr, fp, lsl #12
    4c20:	01270300 	teqeq	r7, r0, lsl #6
    4c24:	00000053 	andeq	r0, r0, r3, asr r0
    4c28:	02080104 	andeq	r0, r8, #1
    4c2c:	6d0b0023 	stcvs	0, cr0, [fp, #-140]	; 0xffffff74
    4c30:	0300000f 	movweq	r0, #15
    4c34:	00530128 	subseq	r0, r3, r8, lsr #2
    4c38:	03040000 	movweq	r0, #16384	; 0x4000
    4c3c:	00230205 	eoreq	r0, r3, r5, lsl #4
    4c40:	000e500b 	andeq	r5, lr, fp
    4c44:	01290300 	teqeq	r9, r0, lsl #6
    4c48:	00000053 	andeq	r0, r0, r3, asr r0
    4c4c:	02010404 	andeq	r0, r1, #67108864	; 0x4000000
    4c50:	a70b0023 	strge	r0, [fp, -r3, lsr #32]
    4c54:	03000007 	movweq	r0, #7
    4c58:	0053012a 	subseq	r0, r3, sl, lsr #2
    4c5c:	01040000 	mrseq	r0, (UNDEF: 4)
    4c60:	00230200 	eoreq	r0, r3, r0, lsl #4
    4c64:	0d590d00 	ldcleq	13, cr0, [r9, #-0]
    4c68:	2b030000 	blcs	c4c70 <__bss_end+0xc1de8>
    4c6c:	000dce01 	andeq	ip, sp, r1, lsl #28
    4c70:	04ef0e00 	strbteq	r0, [pc], #3584	; 4c78 <__bss_end+0x1df0>
    4c74:	03040000 	movweq	r0, #16384	; 0x4000
    4c78:	0f04012f 	svceq	0x0004012f
    4c7c:	280b0000 	stmdacs	fp, {}	; <UNPREDICTABLE>
    4c80:	0300000e 	movweq	r0, #14
    4c84:	00530131 	subseq	r0, r3, r1, lsr r1
    4c88:	10040000 	andne	r0, r4, r0
    4c8c:	00230210 	eoreq	r0, r3, r0, lsl r2
    4c90:	000f6d0b 	andeq	r6, pc, fp, lsl #26
    4c94:	01320300 	teqeq	r2, r0, lsl #6
    4c98:	00000053 	andeq	r0, r0, r3, asr r0
    4c9c:	020e0204 	andeq	r0, lr, #1073741824	; 0x40000000
    4ca0:	320b0023 	andcc	r0, fp, #35	; 0x23
    4ca4:	0300000e 	movweq	r0, #14
    4ca8:	00530133 	subseq	r0, r3, r3, lsr r1
    4cac:	0d040000 	stceq	0, cr0, [r4, #-0]
    4cb0:	00230201 	eoreq	r0, r3, r1, lsl #4
    4cb4:	0007a70b 	andeq	sl, r7, fp, lsl #14
    4cb8:	01340300 	teqeq	r4, r0, lsl #6
    4cbc:	00000053 	andeq	r0, r0, r3, asr r0
    4cc0:	02000104 	andeq	r0, r0, #1
    4cc4:	0d000023 	stceq	0, cr0, [r0, #-140]	; 0xffffff74
    4cc8:	000006e8 	andeq	r0, r0, r8, ror #13
    4ccc:	ae013603 	cfmadd32ge	mvax0, mvfx3, mvfx1, mvfx3
    4cd0:	0e00000e 	cdpeq	0, 0, cr0, cr0, cr14, {0}
    4cd4:	00000e8c 	andeq	r0, r0, ip, lsl #29
    4cd8:	013a0304 	teqeq	sl, r4, lsl #6
    4cdc:	00000f42 	andeq	r0, r0, r2, asr #30
    4ce0:	000e280b 	andeq	r2, lr, fp, lsl #16
    4ce4:	013c0300 	teqeq	ip, r0, lsl #6
    4ce8:	00000053 	andeq	r0, r0, r3, asr r0
    4cec:	02011f04 	andeq	r1, r1, #16
    4cf0:	a70b0023 	strge	r0, [fp, -r3, lsr #32]
    4cf4:	03000007 	movweq	r0, #7
    4cf8:	0053013d 	subseq	r0, r3, sp, lsr r1
    4cfc:	01040000 	mrseq	r0, (UNDEF: 4)
    4d00:	00230200 	eoreq	r0, r3, r0, lsl #4
    4d04:	118c0d00 	orrne	r0, ip, r0, lsl #26
    4d08:	3f030000 	svccc	0x00030000
    4d0c:	000f1001 	andeq	r1, pc, r1
    4d10:	09e90e00 	stmibeq	r9!, {r9, sl, fp}^
    4d14:	03040000 	movweq	r0, #16384	; 0x4000
    4d18:	10340142 	eorsne	r0, r4, r2, asr #2
    4d1c:	ea0b0000 	b	2c4d24 <__bss_end+0x2c1e9c>
    4d20:	03000007 	movweq	r0, #7
    4d24:	00530144 	subseq	r0, r3, r4, asr #2
    4d28:	01040000 	mrseq	r0, (UNDEF: 4)
    4d2c:	0023021f 	eoreq	r0, r3, pc, lsl r2
    4d30:	000fcc0b 	andeq	ip, pc, fp, lsl #24
    4d34:	01450300 	mrseq	r0, (UNDEF: 117)
    4d38:	00000053 	andeq	r0, r0, r3, asr r0
    4d3c:	021e0104 	andseq	r0, lr, #1
    4d40:	8f0b0023 	svchi	0x000b0023
    4d44:	0300000a 	movweq	r0, #10
    4d48:	00530146 	subseq	r0, r3, r6, asr #2
    4d4c:	01040000 	mrseq	r0, (UNDEF: 4)
    4d50:	0023021d 	eoreq	r0, r3, sp, lsl r2
    4d54:	000e280b 	andeq	r2, lr, fp, lsl #16
    4d58:	01470300 	mrseq	r0, (UNDEF: 119)
    4d5c:	00000053 	andeq	r0, r0, r3, asr r0
    4d60:	02180504 	andseq	r0, r8, #16777216	; 0x1000000
    4d64:	350b0023 	strcc	r0, [fp, #-35]	; 0x23
    4d68:	03000007 	movweq	r0, #7
    4d6c:	00530148 	subseq	r0, r3, r8, asr #2
    4d70:	01040000 	mrseq	r0, (UNDEF: 4)
    4d74:	00230217 	eoreq	r0, r3, r7, lsl r2
    4d78:	00104c0b 	andseq	r4, r0, fp, lsl #24
    4d7c:	01490300 	mrseq	r0, (UNDEF: 121)
    4d80:	00000053 	andeq	r0, r0, r3, asr r0
    4d84:	02160104 	andseq	r0, r6, #1
    4d88:	ac0b0023 	stcge	0, cr0, [fp], {35}	; 0x23
    4d8c:	0300000b 	movweq	r0, #11
    4d90:	0053014a 	subseq	r0, r3, sl, asr #2
    4d94:	01040000 	mrseq	r0, (UNDEF: 4)
    4d98:	00230215 	eoreq	r0, r3, r5, lsl r2
    4d9c:	000e320b 	andeq	r3, lr, fp, lsl #4
    4da0:	014b0300 	mrseq	r0, (UNDEF: 123)
    4da4:	00000053 	andeq	r0, r0, r3, asr r0
    4da8:	02100504 	andseq	r0, r0, #16777216	; 0x1000000
    4dac:	9a0b0023 	bls	2c4e40 <__bss_end+0x2c1fb8>
    4db0:	0300000a 	movweq	r0, #10
    4db4:	0053014c 	subseq	r0, r3, ip, asr #2
    4db8:	01040000 	mrseq	r0, (UNDEF: 4)
    4dbc:	0023020f 	eoreq	r0, r3, pc, lsl #4
    4dc0:	0007fe0b 	andeq	pc, r7, fp, lsl #28
    4dc4:	014d0300 	mrseq	r0, (UNDEF: 125)
    4dc8:	00000053 	andeq	r0, r0, r3, asr r0
    4dcc:	020e0104 	andeq	r0, lr, #1
    4dd0:	5f0b0023 	svcpl	0x000b0023
    4dd4:	03000011 	movweq	r0, #17
    4dd8:	0053014e 	subseq	r0, r3, lr, asr #2
    4ddc:	01040000 	mrseq	r0, (UNDEF: 4)
    4de0:	0023020d 	eoreq	r0, r3, sp, lsl #4
    4de4:	000e3c0b 	andeq	r3, lr, fp, lsl #24
    4de8:	014f0300 	mrseq	r0, (UNDEF: 127)
    4dec:	00000053 	andeq	r0, r0, r3, asr r0
    4df0:	02000d04 	andeq	r0, r0, #256	; 0x100
    4df4:	0d000023 	stceq	0, cr0, [r0, #-140]	; 0xffffff74
    4df8:	00000659 	andeq	r0, r0, r9, asr r6
    4dfc:	4e015003 	cdpmi	0, 0, cr5, cr1, cr3, {0}
    4e00:	0e00000f 	cdpeq	0, 0, cr0, cr0, cr15, {0}
    4e04:	000005f1 	strdeq	r0, [r0], -r1
    4e08:	01530304 	cmpeq	r3, r4, lsl #6
    4e0c:	000010ba 	strheq	r1, [r0], -sl
    4e10:	00053b0b 	andeq	r3, r5, fp, lsl #22
    4e14:	01550300 	cmpeq	r5, r0, lsl #6
    4e18:	00000053 	andeq	r0, r0, r3, asr r0
    4e1c:	021e0204 	andseq	r0, lr, #1073741824	; 0x40000000
    4e20:	170b0023 	strne	r0, [fp, -r3, lsr #32]
    4e24:	03000011 	movweq	r0, #17
    4e28:	00530157 	subseq	r0, r3, r7, asr r1
    4e2c:	01040000 	mrseq	r0, (UNDEF: 4)
    4e30:	0023021d 	eoreq	r0, r3, sp, lsl r2
    4e34:	000d1a0b 	andeq	r1, sp, fp, lsl #20
    4e38:	01580300 	cmpeq	r8, r0, lsl #6
    4e3c:	00000053 	andeq	r0, r0, r3, asr r0
    4e40:	021c0104 	andseq	r0, ip, #1
    4e44:	f80b0023 			; <UNDEFINED> instruction: 0xf80b0023
    4e48:	0300000b 	movweq	r0, #11
    4e4c:	00530159 	subseq	r0, r3, r9, asr r1
    4e50:	01040000 	mrseq	r0, (UNDEF: 4)
    4e54:	0023021b 	eoreq	r0, r3, fp, lsl r2
    4e58:	00070e0b 	andeq	r0, r7, fp, lsl #28
    4e5c:	015a0300 	cmpeq	sl, r0, lsl #6
    4e60:	00000053 	andeq	r0, r0, r3, asr r0
    4e64:	02180304 	andseq	r0, r8, #268435456	; 0x10000000
    4e68:	280b0023 	stmdacs	fp, {r0, r1, r5}
    4e6c:	0300000e 	movweq	r0, #14
    4e70:	0053015b 	subseq	r0, r3, fp, asr r1
    4e74:	18040000 	stmdane	r4, {}	; <UNPREDICTABLE>
    4e78:	00230200 	eoreq	r0, r3, r0, lsl #4
    4e7c:	09270d00 	stmdbeq	r7!, {r8, sl, fp}
    4e80:	5c030000 	stcpl	0, cr0, [r3], {-0}
    4e84:	00104001 	andseq	r4, r0, r1
    4e88:	0d200e00 	stceq	14, cr0, [r0, #-0]
    4e8c:	03040000 	movweq	r0, #16384	; 0x4000
    4e90:	1176015f 	cmnne	r6, pc, asr r1
    4e94:	e50b0000 	str	r0, [fp, #-0]
    4e98:	0300000a 	movweq	r0, #10
    4e9c:	00530161 	subseq	r0, r3, r1, ror #2
    4ea0:	04040000 	streq	r0, [r4], #-0
    4ea4:	0023021c 	eoreq	r0, r3, ip, lsl r2
    4ea8:	0008a20b 	andeq	sl, r8, fp, lsl #4
    4eac:	01620300 	cmneq	r2, r0, lsl #6
    4eb0:	00000053 	andeq	r0, r0, r3, asr r0
    4eb4:	021b0104 	andseq	r0, fp, #1
    4eb8:	280b0023 	stmdacs	fp, {r0, r1, r5}
    4ebc:	0300000e 	movweq	r0, #14
    4ec0:	00530163 	subseq	r0, r3, r3, ror #2
    4ec4:	03040000 	movweq	r0, #16384	; 0x4000
    4ec8:	00230218 	eoreq	r0, r3, r8, lsl r2
    4ecc:	000fa00b 	andeq	sl, pc, fp
    4ed0:	01640300 	cmneq	r4, r0, lsl #6
    4ed4:	00000053 	andeq	r0, r0, r3, asr r0
    4ed8:	02140404 	andseq	r0, r4, #67108864	; 0x4000000
    4edc:	950b0023 	strls	r0, [fp, #-35]	; 0x23
    4ee0:	03000008 	movweq	r0, #8
    4ee4:	00530165 	subseq	r0, r3, r5, ror #2
    4ee8:	01040000 	mrseq	r0, (UNDEF: 4)
    4eec:	00230213 	eoreq	r0, r3, r3, lsl r2
    4ef0:	000e320b 	andeq	r3, lr, fp, lsl #4
    4ef4:	01660300 	cmneq	r6, r0, lsl #6
    4ef8:	00000053 	andeq	r0, r0, r3, asr r0
    4efc:	02100304 	andseq	r0, r0, #268435456	; 0x10000000
    4f00:	150b0023 	strne	r0, [fp, #-35]	; 0x23
    4f04:	0300000b 	movweq	r0, #11
    4f08:	00530167 	subseq	r0, r3, r7, ror #2
    4f0c:	01040000 	mrseq	r0, (UNDEF: 4)
    4f10:	0023020f 	eoreq	r0, r3, pc, lsl #4
    4f14:	000e3c0b 	andeq	r3, lr, fp, lsl #24
    4f18:	01680300 	cmneq	r8, r0, lsl #6
    4f1c:	00000053 	andeq	r0, r0, r3, asr r0
    4f20:	02010e04 	andeq	r0, r1, #64	; 0x40
    4f24:	940b0023 	strls	r0, [fp], #-35	; 0x23
    4f28:	03000004 	movweq	r0, #4
    4f2c:	00530169 	subseq	r0, r3, r9, ror #2
    4f30:	01040000 	mrseq	r0, (UNDEF: 4)
    4f34:	00230200 	eoreq	r0, r3, r0, lsl #4
    4f38:	05990d00 	ldreq	r0, [r9, #3328]	; 0xd00
    4f3c:	6a030000 	bvs	c4f44 <__bss_end+0xc20bc>
    4f40:	0010c601 	andseq	ip, r0, r1, lsl #12
    4f44:	04000e00 	streq	r0, [r0], #-3584	; 0xe00
    4f48:	03040000 	movweq	r0, #16384	; 0x4000
    4f4c:	12ad016d 	adcne	r0, sp, #1073741851	; 0x4000001b
    4f50:	560c0000 	strpl	r0, [ip], -r0
    4f54:	6f030065 	svcvs	0x00030065
    4f58:	00005301 	andeq	r5, r0, r1, lsl #6
    4f5c:	1f010400 	svcne	0x00010400
    4f60:	0b002302 	bleq	db70 <__bss_end+0xace8>
    4f64:	00000555 	andeq	r0, r0, r5, asr r5
    4f68:	53017003 	movwpl	r7, #4099	; 0x1003
    4f6c:	04000000 	streq	r0, [r0], #-0
    4f70:	23021e01 	movwcs	r1, #11777	; 0x2e01
    4f74:	0e280b00 	vmuleq.f64	d0, d8, d0
    4f78:	71030000 	mrsvc	r0, (UNDEF: 3)
    4f7c:	00005301 	andeq	r5, r0, r1, lsl #6
    4f80:	1d010400 	cfstrsne	mvf0, [r1, #-0]
    4f84:	0c002302 	stceq	3, cr2, [r0], {2}
    4f88:	03007354 	movweq	r7, #852	; 0x354
    4f8c:	00530172 	subseq	r0, r3, r2, ror r1
    4f90:	01040000 	mrseq	r0, (UNDEF: 4)
    4f94:	0023021c 	eoreq	r0, r3, ip, lsl r2
    4f98:	000e320b 	andeq	r3, lr, fp, lsl #4
    4f9c:	01730300 	cmneq	r3, r0, lsl #6
    4fa0:	00000053 	andeq	r0, r0, r3, asr r0
    4fa4:	02100c04 	andseq	r0, r0, #1024	; 0x400
    4fa8:	0b0b0023 	bleq	2c503c <__bss_end+0x2c21b4>
    4fac:	03000008 	movweq	r0, #8
    4fb0:	00530174 	subseq	r0, r3, r4, ror r1
    4fb4:	01040000 	mrseq	r0, (UNDEF: 4)
    4fb8:	0023020f 	eoreq	r0, r3, pc, lsl #4
    4fbc:	0008130b 	andeq	r1, r8, fp, lsl #6
    4fc0:	01750300 	cmneq	r5, r0, lsl #6
    4fc4:	00000053 	andeq	r0, r0, r3, asr r0
    4fc8:	020e0104 	andeq	r0, lr, #1
    4fcc:	5d0b0023 	stcpl	0, cr0, [fp, #-140]	; 0xffffff74
    4fd0:	03000008 	movweq	r0, #8
    4fd4:	00530176 	subseq	r0, r3, r6, ror r1
    4fd8:	01040000 	mrseq	r0, (UNDEF: 4)
    4fdc:	0023020d 	eoreq	r0, r3, sp, lsl #4
    4fe0:	0008650b 	andeq	r6, r8, fp, lsl #10
    4fe4:	01770300 	cmneq	r7, r0, lsl #6
    4fe8:	00000053 	andeq	r0, r0, r3, asr r0
    4fec:	020c0104 	andeq	r0, ip, #1
    4ff0:	3c0b0023 	stccc	0, cr0, [fp], {35}	; 0x23
    4ff4:	0300000e 	movweq	r0, #14
    4ff8:	00530178 	subseq	r0, r3, r8, ror r1
    4ffc:	04040000 	streq	r0, [r4], #-0
    5000:	00230208 	eoreq	r0, r3, r8, lsl #4
    5004:	3065460c 	rsbcc	r4, r5, ip, lsl #12
    5008:	01790300 	cmneq	r9, r0, lsl #6
    500c:	00000053 	andeq	r0, r0, r3, asr r0
    5010:	02070104 	andeq	r0, r7, #1
    5014:	460c0023 	strmi	r0, [ip], -r3, lsr #32
    5018:	03003165 	movweq	r3, #357	; 0x165
    501c:	0053017a 	subseq	r0, r3, sl, ror r1
    5020:	01040000 	mrseq	r0, (UNDEF: 4)
    5024:	00230206 	eoreq	r0, r3, r6, lsl #4
    5028:	3065420c 	rsbcc	r4, r5, ip, lsl #4
    502c:	017b0300 	cmneq	fp, r0, lsl #6
    5030:	00000053 	andeq	r0, r0, r3, asr r0
    5034:	02050104 	andeq	r0, r5, #1
    5038:	420c0023 	andmi	r0, ip, #35	; 0x23
    503c:	03003165 	movweq	r3, #357	; 0x165
    5040:	0053017c 	subseq	r0, r3, ip, ror r1
    5044:	01040000 	mrseq	r0, (UNDEF: 4)
    5048:	00230204 	eoreq	r0, r3, r4, lsl #4
    504c:	00704d0c 	rsbseq	r4, r0, ip, lsl #26
    5050:	53017d03 	movwpl	r7, #7427	; 0x1d03
    5054:	04000000 	streq	r0, [r0], #-0
    5058:	23020301 	movwcs	r0, #8961	; 0x2301
    505c:	0e460b00 	vmlaeq.f64	d16, d6, d0
    5060:	7e030000 	cdpvc	0, 0, cr0, cr3, cr0, {0}
    5064:	00005301 	andeq	r5, r0, r1, lsl #6
    5068:	00030400 	andeq	r0, r3, r0, lsl #8
    506c:	00002302 	andeq	r2, r0, r2, lsl #6
    5070:	0004190d 	andeq	r1, r4, sp, lsl #18
    5074:	017f0300 	cmneq	pc, r0, lsl #6
    5078:	00001182 	andeq	r1, r0, r2, lsl #3
    507c:	000d380e 	andeq	r3, sp, lr, lsl #16
    5080:	83030400 	movwhi	r0, #13312	; 0x3400
    5084:	00132101 	andseq	r2, r3, r1, lsl #2
    5088:	07800b00 	streq	r0, [r0, r0, lsl #22]
    508c:	85030000 	strhi	r0, [r3, #-0]
    5090:	00005301 	andeq	r5, r0, r1, lsl #6
    5094:	1c040400 	cfstrsne	mvf0, [r4], {-0}
    5098:	0b002302 	bleq	dca8 <__bss_end+0xae20>
    509c:	00000e28 	andeq	r0, r0, r8, lsr #28
    50a0:	53018603 	movwpl	r8, #5635	; 0x1603
    50a4:	04000000 	streq	r0, [r0], #-0
    50a8:	23020814 	movwcs	r0, #10260	; 0x2814
    50ac:	0f6d0b00 	svceq	0x006d0b00
    50b0:	87030000 	strhi	r0, [r3, -r0]
    50b4:	00005301 	andeq	r5, r0, r1, lsl #6
    50b8:	05030400 	streq	r0, [r3, #-1024]	; 0x400
    50bc:	0b002302 	bleq	dccc <__bss_end+0xae44>
    50c0:	00000e32 	andeq	r0, r0, r2, lsr lr
    50c4:	53018903 	movwpl	r8, #6403	; 0x1903
    50c8:	04000000 	streq	r0, [r0], #-0
    50cc:	23020104 	movwcs	r0, #8452	; 0x2104
    50d0:	07a70b00 	streq	r0, [r7, r0, lsl #22]!
    50d4:	8a030000 	bhi	c50dc <__bss_end+0xc2254>
    50d8:	00005301 	andeq	r5, r0, r1, lsl #6
    50dc:	00010400 	andeq	r0, r1, r0, lsl #8
    50e0:	00002302 	andeq	r2, r0, r2, lsl #6
    50e4:	0004340d 	andeq	r3, r4, sp, lsl #8
    50e8:	018b0300 	orreq	r0, fp, r0, lsl #6
    50ec:	000012b9 			; <UNDEFINED> instruction: 0x000012b9
    50f0:	0009180e 	andeq	r1, r9, lr, lsl #16
    50f4:	8f030400 	svchi	0x00030400
    50f8:	0013ef01 	andseq	lr, r3, r1, lsl #30
    50fc:	033b0b00 	teqeq	fp, #0
    5100:	91030000 	mrsls	r0, (UNDEF: 3)
    5104:	00005301 	andeq	r5, r0, r1, lsl #6
    5108:	1c040400 	cfstrsne	mvf0, [r4], {-0}
    510c:	0b002302 	bleq	dd1c <__bss_end+0xae94>
    5110:	00000e28 	andeq	r0, r0, r8, lsr #28
    5114:	53019203 	movwpl	r9, #4611	; 0x1203
    5118:	04000000 	streq	r0, [r0], #-0
    511c:	23021804 	movwcs	r1, #10244	; 0x2804
    5120:	0bb50b00 	bleq	fed47d28 <__bss_end+0xfed44ea0>
    5124:	93030000 	movwls	r0, #12288	; 0x3000
    5128:	00005301 	andeq	r5, r0, r1, lsl #6
    512c:	15030400 	strne	r0, [r3, #-1024]	; 0x400
    5130:	0b002302 	bleq	dd40 <__bss_end+0xaeb8>
    5134:	00000e32 	andeq	r0, r0, r2, lsr lr
    5138:	53019403 	movwpl	r9, #5123	; 0x1403
    513c:	04000000 	streq	r0, [r0], #-0
    5140:	23021104 	movwcs	r1, #8452	; 0x2104
    5144:	07a60b00 	streq	r0, [r6, r0, lsl #22]!
    5148:	95030000 	strls	r0, [r3, #-0]
    514c:	00005301 	andeq	r5, r0, r1, lsl #6
    5150:	10010400 	andne	r0, r1, r0, lsl #8
    5154:	0b002302 	bleq	dd64 <__bss_end+0xaedc>
    5158:	00000996 	muleq	r0, r6, r9
    515c:	53019603 	movwpl	r9, #5635	; 0x1603
    5160:	04000000 	streq	r0, [r0], #-0
    5164:	23020c04 	movwcs	r0, #11268	; 0x2c04
    5168:	0e3c0b00 	vaddeq.f64	d0, d12, d0
    516c:	97030000 	strls	r0, [r3, -r0]
    5170:	00005301 	andeq	r5, r0, r1, lsl #6
    5174:	08040400 	stmdaeq	r4, {sl}
    5178:	0b002302 	bleq	dd88 <__bss_end+0xaf00>
    517c:	00000be9 	andeq	r0, r0, r9, ror #23
    5180:	53019803 	movwpl	r9, #6147	; 0x1803
    5184:	04000000 	streq	r0, [r0], #-0
    5188:	23020503 	movwcs	r0, #9475	; 0x2503
    518c:	0e460b00 	vmlaeq.f64	d16, d6, d0
    5190:	9a030000 	bls	c5198 <__bss_end+0xc2310>
    5194:	00005301 	andeq	r5, r0, r1, lsl #6
    5198:	01040400 	tsteq	r4, r0, lsl #8
    519c:	0b002302 	bleq	ddac <__bss_end+0xaf24>
    51a0:	00000756 	andeq	r0, r0, r6, asr r7
    51a4:	53019b03 	movwpl	r9, #6915	; 0x1b03
    51a8:	04000000 	streq	r0, [r0], #-0
    51ac:	23020001 	movwcs	r0, #8193	; 0x2001
    51b0:	490d0000 	stmdbmi	sp, {}	; <UNPREDICTABLE>
    51b4:	03000008 	movweq	r0, #8
    51b8:	132d019c 	teqne	sp, #39	; 0x27
    51bc:	af0e0000 	svcge	0x000e0000
    51c0:	04000010 	streq	r0, [r0], #-16
    51c4:	51019f03 	tstpl	r1, r3, lsl #30
    51c8:	0b000014 	bleq	5220 <__bss_end+0x2398>
    51cc:	00000e28 	andeq	r0, r0, r8, lsr #28
    51d0:	5301a103 	movwpl	sl, #4355	; 0x1103
    51d4:	04000000 	streq	r0, [r0], #-0
    51d8:	23021010 	movwcs	r1, #8208	; 0x2010
    51dc:	10e20b00 	rscne	r0, r2, r0, lsl #22
    51e0:	a2030000 	andge	r0, r3, #0
    51e4:	00005301 	andeq	r5, r0, r1, lsl #6
    51e8:	0d030400 	cfstrseq	mvf0, [r3, #-0]
    51ec:	0b002302 	bleq	ddfc <__bss_end+0xaf74>
    51f0:	00000e32 	andeq	r0, r0, r2, lsr lr
    51f4:	5301a303 	movwpl	sl, #4867	; 0x1303
    51f8:	04000000 	streq	r0, [r0], #-0
    51fc:	2302010c 	movwcs	r0, #8460	; 0x210c
    5200:	07a70b00 	streq	r0, [r7, r0, lsl #22]!
    5204:	a4030000 	strge	r0, [r3], #-0
    5208:	00005301 	andeq	r5, r0, r1, lsl #6
    520c:	00010400 	andeq	r0, r1, r0, lsl #8
    5210:	00002302 	andeq	r2, r0, r2, lsl #6
    5214:	000d760d 	andeq	r7, sp, sp, lsl #12
    5218:	01a50300 			; <UNDEFINED> instruction: 0x01a50300
    521c:	000013fb 	strdeq	r1, [r0], -fp
    5220:	000b4d0e 	andeq	r4, fp, lr, lsl #26
    5224:	a8030400 	stmdage	r3, {sl}
    5228:	0014d701 	andseq	sp, r4, r1, lsl #14
    522c:	10e20b00 	rscne	r0, r2, r0, lsl #22
    5230:	aa030000 	bge	c5238 <__bss_end+0xc23b0>
    5234:	00005301 	andeq	r5, r0, r1, lsl #6
    5238:	1c040400 	cfstrsne	mvf0, [r4], {-0}
    523c:	0b002302 	bleq	de4c <__bss_end+0xafc4>
    5240:	00000e28 	andeq	r0, r0, r8, lsr #28
    5244:	5301ab03 	movwpl	sl, #6915	; 0x1b03
    5248:	04000000 	streq	r0, [r0], #-0
    524c:	23020814 	movwcs	r0, #10260	; 0x2814
    5250:	0f6d0b00 	svceq	0x006d0b00
    5254:	ac030000 	stcge	0, cr0, [r3], {-0}
    5258:	00005301 	andeq	r5, r0, r1, lsl #6
    525c:	06020400 	streq	r0, [r2], -r0, lsl #8
    5260:	0b002302 	bleq	de70 <__bss_end+0xafe8>
    5264:	00000e32 	andeq	r0, r0, r2, lsr lr
    5268:	5301ad03 	movwpl	sl, #7427	; 0x1d03
    526c:	04000000 	streq	r0, [r0], #-0
    5270:	23020204 	movwcs	r0, #8708	; 0x2204
    5274:	0a160b00 	beq	587e7c <__bss_end+0x584ff4>
    5278:	ae030000 	cdpge	0, 0, cr0, cr3, cr0, {0}
    527c:	00005301 	andeq	r5, r0, r1, lsl #6
    5280:	01010400 	tsteq	r1, r0, lsl #8
    5284:	0b002302 	bleq	de94 <__bss_end+0xb00c>
    5288:	000007a7 	andeq	r0, r0, r7, lsr #15
    528c:	5301af03 	movwpl	sl, #7939	; 0x1f03
    5290:	04000000 	streq	r0, [r0], #-0
    5294:	23020001 	movwcs	r0, #8193	; 0x2001
    5298:	a00d0000 	andge	r0, sp, r0
    529c:	03000011 	movweq	r0, #17
    52a0:	145d01b0 	ldrbne	r0, [sp], #-432	; 0x1b0
    52a4:	bd0e0000 	stclt	0, cr0, [lr, #-0]
    52a8:	0400000b 	streq	r0, [r0], #-11
    52ac:	a501b303 	strge	fp, [r1, #-771]	; 0x303
    52b0:	0b000015 	bleq	530c <__bss_end+0x2484>
    52b4:	00000ded 	andeq	r0, r0, sp, ror #27
    52b8:	5301b503 	movwpl	fp, #5379	; 0x1503
    52bc:	04000000 	streq	r0, [r0], #-0
    52c0:	23021c04 	movwcs	r1, #11268	; 0x2c04
    52c4:	0e280b00 	vmuleq.f64	d0, d8, d0
    52c8:	b6030000 	strlt	r0, [r3], -r0
    52cc:	00005301 	andeq	r5, r0, r1, lsl #6
    52d0:	18040400 	stmdane	r4, {sl}
    52d4:	0b002302 	bleq	dee4 <__bss_end+0xb05c>
    52d8:	0000072d 	andeq	r0, r0, sp, lsr #14
    52dc:	5301b703 	movwpl	fp, #5891	; 0x1703
    52e0:	04000000 	streq	r0, [r0], #-0
    52e4:	23021602 	movwcs	r1, #9730	; 0x2602
    52e8:	0e320b00 	vaddeq.f64	d0, d2, d0
    52ec:	b8030000 	stmdalt	r3, {}	; <UNPREDICTABLE>
    52f0:	00005301 	andeq	r5, r0, r1, lsl #6
    52f4:	11050400 	tstne	r5, r0, lsl #8
    52f8:	0b002302 	bleq	df08 <__bss_end+0xb080>
    52fc:	00000502 	andeq	r0, r0, r2, lsl #10
    5300:	5301b903 	movwpl	fp, #6403	; 0x1903
    5304:	04000000 	streq	r0, [r0], #-0
    5308:	23021001 	movwcs	r1, #8193	; 0x2001
    530c:	09960b00 	ldmibeq	r6, {r8, r9, fp}
    5310:	ba030000 	blt	c5318 <__bss_end+0xc2490>
    5314:	00005301 	andeq	r5, r0, r1, lsl #6
    5318:	0c040400 	cfstrseq	mvf0, [r4], {-0}
    531c:	0b002302 	bleq	df2c <__bss_end+0xb0a4>
    5320:	00000e3c 	andeq	r0, r0, ip, lsr lr
    5324:	5301bb03 	movwpl	fp, #6915	; 0x1b03
    5328:	04000000 	streq	r0, [r0], #-0
    532c:	23020804 	movwcs	r0, #10244	; 0x2804
    5330:	0be90b00 	bleq	ffa47f38 <__bss_end+0xffa450b0>
    5334:	bc030000 	stclt	0, cr0, [r3], {-0}
    5338:	00005301 	andeq	r5, r0, r1, lsl #6
    533c:	05030400 	streq	r0, [r3, #-1024]	; 0x400
    5340:	0b002302 	bleq	df50 <__bss_end+0xb0c8>
    5344:	00000e46 	andeq	r0, r0, r6, asr #28
    5348:	5301bd03 	movwpl	fp, #7427	; 0x1d03
    534c:	04000000 	streq	r0, [r0], #-0
    5350:	23020104 	movwcs	r0, #8452	; 0x2104
    5354:	07560b00 	ldrbeq	r0, [r6, -r0, lsl #22]
    5358:	be030000 	cdplt	0, 0, cr0, cr3, cr0, {0}
    535c:	00005301 	andeq	r5, r0, r1, lsl #6
    5360:	00010400 	andeq	r0, r1, r0, lsl #8
    5364:	00002302 	andeq	r2, r0, r2, lsl #6
    5368:	0008370d 	andeq	r3, r8, sp, lsl #14
    536c:	01bf0300 			; <UNDEFINED> instruction: 0x01bf0300
    5370:	000014e3 	andeq	r1, r0, r3, ror #9
    5374:	0009bc0e 	andeq	fp, r9, lr, lsl #24
    5378:	c2030400 	andgt	r0, r3, #0
    537c:	0015e301 	andseq	lr, r5, r1, lsl #6
    5380:	109b0b00 	addsne	r0, fp, r0, lsl #22
    5384:	c4030000 	strgt	r0, [r3], #-0
    5388:	00005301 	andeq	r5, r0, r1, lsl #6
    538c:	10100400 	andsne	r0, r0, r0, lsl #8
    5390:	0b002302 	bleq	dfa0 <__bss_end+0xb118>
    5394:	000010d6 	ldrdeq	r1, [r0], -r6
    5398:	5301c503 	movwpl	ip, #5379	; 0x1503
    539c:	04000000 	streq	r0, [r0], #-0
    53a0:	23020010 	movwcs	r0, #8208	; 0x2010
    53a4:	100d0000 	andne	r0, sp, r0
    53a8:	0300000f 	movweq	r0, #15
    53ac:	15b101c6 	ldrne	r0, [r1, #454]!	; 0x1c6
    53b0:	ca0e0000 	bgt	3853b8 <__bss_end+0x382530>
    53b4:	04000008 	streq	r0, [r0], #-8
    53b8:	0501c903 	streq	ip, [r1, #-2307]	; 0x903
    53bc:	0b000018 	bleq	5424 <__bss_end+0x259c>
    53c0:	00000e28 	andeq	r0, r0, r8, lsr #28
    53c4:	5301cb03 	movwpl	ip, #6915	; 0x1b03
    53c8:	04000000 	streq	r0, [r0], #-0
    53cc:	23021f01 	movwcs	r1, #12033	; 0x2f01
    53d0:	04e70b00 	strbteq	r0, [r7], #2816	; 0xb00
    53d4:	cc030000 	stcgt	0, cr0, [r3], {-0}
    53d8:	00005301 	andeq	r5, r0, r1, lsl #6
    53dc:	1e010400 	cfcpysne	mvf0, mvf1
    53e0:	0b002302 	bleq	dff0 <__bss_end+0xb168>
    53e4:	00000e32 	andeq	r0, r0, r2, lsr lr
    53e8:	5301cd03 	movwpl	ip, #7427	; 0x1d03
    53ec:	04000000 	streq	r0, [r0], #-0
    53f0:	23021b03 	movwcs	r1, #11011	; 0x2b03
    53f4:	73530c00 	cmpvc	r3, #0
    53f8:	01ce0300 	biceq	r0, lr, r0, lsl #6
    53fc:	00000053 	andeq	r0, r0, r3, asr r0
    5400:	021a0104 	andseq	r0, sl, #1
    5404:	440c0023 	strmi	r0, [ip], #-35	; 0x23
    5408:	0300616d 	movweq	r6, #365	; 0x16d
    540c:	005301cf 	subseq	r0, r3, pc, asr #3
    5410:	01040000 	mrseq	r0, (UNDEF: 4)
    5414:	00230219 	eoreq	r0, r3, r9, lsl r2
    5418:	000e3c0b 	andeq	r3, lr, fp, lsl #24
    541c:	01d00300 	bicseq	r0, r0, r0, lsl #6
    5420:	00000053 	andeq	r0, r0, r3, asr r0
    5424:	02180104 	andseq	r0, r8, #1
    5428:	530c0023 	movwpl	r0, #49187	; 0xc023
    542c:	03003064 	movweq	r3, #100	; 0x64
    5430:	005301d1 	ldrsbeq	r0, [r3], #-17	; 0xffffffef
    5434:	01040000 	mrseq	r0, (UNDEF: 4)
    5438:	00230217 	eoreq	r0, r3, r7, lsl r2
    543c:	3164530c 	cmncc	r4, ip, lsl #6
    5440:	01d20300 	bicseq	r0, r2, r0, lsl #6
    5444:	00000053 	andeq	r0, r0, r3, asr r0
    5448:	02160104 	andseq	r0, r6, #1
    544c:	530c0023 	movwpl	r0, #49187	; 0xc023
    5450:	03003264 	movweq	r3, #612	; 0x264
    5454:	005301d3 	ldrsbeq	r0, [r3], #-19	; 0xffffffed
    5458:	01040000 	mrseq	r0, (UNDEF: 4)
    545c:	00230215 	eoreq	r0, r3, r5, lsl r2
    5460:	3364530c 	cmncc	r4, #805306368	; 0x30000000
    5464:	01d40300 	bicseq	r0, r4, r0, lsl #6
    5468:	00000053 	andeq	r0, r0, r3, asr r0
    546c:	02140104 	andseq	r0, r4, #1
    5470:	860b0023 	strhi	r0, [fp], -r3, lsr #32
    5474:	03000011 	movweq	r0, #17
    5478:	005301d5 	ldrsbeq	r0, [r3], #-21	; 0xffffffeb
    547c:	01040000 	mrseq	r0, (UNDEF: 4)
    5480:	00230213 	eoreq	r0, r3, r3, lsl r2
    5484:	0011800b 	andseq	r8, r1, fp
    5488:	01d60300 	bicseq	r0, r6, r0, lsl #6
    548c:	00000053 	andeq	r0, r0, r3, asr r0
    5490:	02120104 	andseq	r0, r2, #1
    5494:	900b0023 	andls	r0, fp, r3, lsr #32
    5498:	03000009 	movweq	r0, #9
    549c:	005301d7 	ldrsbeq	r0, [r3], #-23	; 0xffffffe9
    54a0:	01040000 	mrseq	r0, (UNDEF: 4)
    54a4:	00230211 	eoreq	r0, r3, r1, lsl r2
    54a8:	000e460b 	andeq	r4, lr, fp, lsl #12
    54ac:	01d80300 	bicseq	r0, r8, r0, lsl #6
    54b0:	00000053 	andeq	r0, r0, r3, asr r0
    54b4:	020f0204 	andeq	r0, pc, #1073741824	; 0x40000000
    54b8:	d70b0023 	strle	r0, [fp, -r3, lsr #32]
    54bc:	03000006 	movweq	r0, #6
    54c0:	005301d9 	ldrsbeq	r0, [r3], #-25	; 0xffffffe7
    54c4:	01040000 	mrseq	r0, (UNDEF: 4)
    54c8:	0023020e 	eoreq	r0, r3, lr, lsl #4
    54cc:	0073540c 	rsbseq	r5, r3, ip, lsl #8
    54d0:	5301da03 	movwpl	sp, #6659	; 0x1a03
    54d4:	04000000 	streq	r0, [r0], #-0
    54d8:	23020d01 	movwcs	r0, #11521	; 0x2d01
    54dc:	0ed10b00 	vfnmseq.f64	d16, d1, d0
    54e0:	db030000 	blle	c54e8 <__bss_end+0xc2660>
    54e4:	00005301 	andeq	r5, r0, r1, lsl #6
    54e8:	0c010400 	cfstrseq	mvf0, [r1], {-0}
    54ec:	0b002302 	bleq	e0fc <__bss_end+0xb274>
    54f0:	00000eec 	andeq	r0, r0, ip, ror #29
    54f4:	5301dc03 	movwpl	sp, #7171	; 0x1c03
    54f8:	04000000 	streq	r0, [r0], #-0
    54fc:	23020b01 	movwcs	r0, #11009	; 0x2b01
    5500:	0ef10b00 	vmoveq.f64	d16, #16
    5504:	dd030000 	stcle	0, cr0, [r3, #-0]
    5508:	00005301 	andeq	r5, r0, r1, lsl #6
    550c:	0a010400 	beq	46514 <__bss_end+0x4368c>
    5510:	0b002302 	bleq	e120 <__bss_end+0xb298>
    5514:	00000ef6 	strdeq	r0, [r0], -r6
    5518:	5301de03 	movwpl	sp, #7683	; 0x1e03
    551c:	04000000 	streq	r0, [r0], #-0
    5520:	23020901 	movwcs	r0, #10497	; 0x2901
    5524:	0d540b00 	vldreq	d16, [r4, #-0]
    5528:	df030000 	svcle	0x00030000
    552c:	00005301 	andeq	r5, r0, r1, lsl #6
    5530:	08010400 	stmdaeq	r1, {sl}
    5534:	0c002302 	stceq	3, cr2, [r0], {2}
    5538:	0067744f 	rsbeq	r7, r7, pc, asr #8
    553c:	5301e003 	movwpl	lr, #4099	; 0x1003
    5540:	04000000 	streq	r0, [r0], #-0
    5544:	23020701 	movwcs	r0, #9985	; 0x2701
    5548:	0e500b00 	vnmlseq.f64	d16, d0, d0
    554c:	e1030000 	mrs	r0, (UNDEF: 3)
    5550:	00005301 	andeq	r5, r0, r1, lsl #6
    5554:	06010400 	streq	r0, [r1], -r0, lsl #8
    5558:	0b002302 	bleq	e168 <__bss_end+0xb2e0>
    555c:	000004c5 	andeq	r0, r0, r5, asr #9
    5560:	5301e203 	movwpl	lr, #4611	; 0x1203
    5564:	04000000 	streq	r0, [r0], #-0
    5568:	23020501 	movwcs	r0, #9473	; 0x2501
    556c:	04cb0b00 	strbeq	r0, [fp], #2816	; 0xb00
    5570:	e3030000 	movw	r0, #12288	; 0x3000
    5574:	00005301 	andeq	r5, r0, r1, lsl #6
    5578:	04010400 	streq	r0, [r1], #-1024	; 0x400
    557c:	0b002302 	bleq	e18c <__bss_end+0xb304>
    5580:	00000e5a 	andeq	r0, r0, sl, asr lr
    5584:	5301e403 	movwpl	lr, #5123	; 0x1403
    5588:	04000000 	streq	r0, [r0], #-0
    558c:	23020301 	movwcs	r0, #8961	; 0x2301
    5590:	0c970b00 	vldmiaeq	r7, {d0-d-1}
    5594:	e5030000 	str	r0, [r3, #-0]
    5598:	00005301 	andeq	r5, r0, r1, lsl #6
    559c:	02010400 	andeq	r0, r1, #0
    55a0:	0b002302 	bleq	e1b0 <__bss_end+0xb328>
    55a4:	00000c9d 	muleq	r0, sp, ip
    55a8:	5301e603 	movwpl	lr, #5635	; 0x1603
    55ac:	04000000 	streq	r0, [r0], #-0
    55b0:	23020101 	movwcs	r0, #8449	; 0x2101
    55b4:	0ca30b00 	vstmiaeq	r3!, {d0-d-1}
    55b8:	e7030000 	str	r0, [r3, -r0]
    55bc:	00005301 	andeq	r5, r0, r1, lsl #6
    55c0:	00010400 	andeq	r0, r1, r0, lsl #8
    55c4:	00002302 	andeq	r2, r0, r2, lsl #6
    55c8:	000a3a0d 	andeq	r3, sl, sp, lsl #20
    55cc:	01e90300 	mvneq	r0, r0, lsl #6
    55d0:	000015ef 	andeq	r1, r0, pc, ror #11
    55d4:	0008ea0e 	andeq	lr, r8, lr, lsl #20
    55d8:	ec030400 	cfstrs	mvf0, [r3], {-0}
    55dc:	0019df01 	andseq	sp, r9, r1, lsl #30
    55e0:	65560c00 	ldrbvs	r0, [r6, #-3072]	; 0xc00
    55e4:	01ee0300 	mvneq	r0, r0, lsl #6
    55e8:	00000053 	andeq	r0, r0, r3, asr r0
    55ec:	021f0104 	andseq	r0, pc, #1
    55f0:	280b0023 	stmdacs	fp, {r0, r1, r5}
    55f4:	0300000e 	movweq	r0, #14
    55f8:	005301ef 	subseq	r0, r3, pc, ror #3
    55fc:	03040000 	movweq	r0, #16384	; 0x4000
    5600:	0023021c 	eoreq	r0, r3, ip, lsl r2
    5604:	000a8a0b 	andeq	r8, sl, fp, lsl #20
    5608:	01f00300 	mvnseq	r0, r0, lsl #6
    560c:	00000053 	andeq	r0, r0, r3, asr r0
    5610:	021b0104 	andseq	r0, fp, #1
    5614:	880b0023 	stmdahi	fp, {r0, r1, r5}
    5618:	0300000c 	movweq	r0, #12
    561c:	005301f1 	ldrsheq	r0, [r3], #-17	; 0xffffffef
    5620:	01040000 	mrseq	r0, (UNDEF: 4)
    5624:	0023021a 	eoreq	r0, r3, sl, lsl r2
    5628:	000e320b 	andeq	r3, lr, fp, lsl #4
    562c:	01f20300 	mvnseq	r0, r0, lsl #6
    5630:	00000053 	andeq	r0, r0, r3, asr r0
    5634:	02180204 	andseq	r0, r8, #1073741824	; 0x40000000
    5638:	a30b0023 	movwge	r0, #45091	; 0xb023
    563c:	0300000e 	movweq	r0, #14
    5640:	005301f3 	ldrsheq	r0, [r3], #-19	; 0xffffffed
    5644:	01040000 	mrseq	r0, (UNDEF: 4)
    5648:	00230217 	eoreq	r0, r3, r7, lsl r2
    564c:	000ea80b 	andeq	sl, lr, fp, lsl #16
    5650:	01f40300 	mvnseq	r0, r0, lsl #6
    5654:	00000053 	andeq	r0, r0, r3, asr r0
    5658:	02160104 	andseq	r0, r6, #1
    565c:	3c0b0023 	stccc	0, cr0, [fp], {35}	; 0x23
    5660:	0300000e 	movweq	r0, #14
    5664:	005301f5 	ldrsheq	r0, [r3], #-21	; 0xffffffeb
    5668:	01040000 	mrseq	r0, (UNDEF: 4)
    566c:	00230215 	eoreq	r0, r3, r5, lsl r2
    5670:	0003430b 	andeq	r4, r3, fp, lsl #6
    5674:	01f60300 	mvnseq	r0, r0, lsl #6
    5678:	00000053 	andeq	r0, r0, r3, asr r0
    567c:	02140104 	andseq	r0, r4, #1
    5680:	420c0023 	andmi	r0, ip, #35	; 0x23
    5684:	03003065 	movweq	r3, #101	; 0x65
    5688:	005301f7 	ldrsheq	r0, [r3], #-23	; 0xffffffe9
    568c:	01040000 	mrseq	r0, (UNDEF: 4)
    5690:	00230213 	eoreq	r0, r3, r3, lsl r2
    5694:	3165420c 	cmncc	r5, ip, lsl #4
    5698:	01f80300 	mvnseq	r0, r0, lsl #6
    569c:	00000053 	andeq	r0, r0, r3, asr r0
    56a0:	02120104 	andseq	r0, r2, #1
    56a4:	460c0023 	strmi	r0, [ip], -r3, lsr #32
    56a8:	03003065 	movweq	r3, #101	; 0x65
    56ac:	005301f9 	ldrsheq	r0, [r3], #-25	; 0xffffffe7
    56b0:	01040000 	mrseq	r0, (UNDEF: 4)
    56b4:	00230211 	eoreq	r0, r3, r1, lsl r2
    56b8:	3165460c 	cmncc	r5, ip, lsl #12
    56bc:	01fa0300 	mvnseq	r0, r0, lsl #6
    56c0:	00000053 	andeq	r0, r0, r3, asr r0
    56c4:	02100104 	andseq	r0, r0, #1
    56c8:	460b0023 	strmi	r0, [fp], -r3, lsr #32
    56cc:	0300000e 	movweq	r0, #14
    56d0:	005301fb 	ldrsheq	r0, [r3], #-27	; 0xffffffe5
    56d4:	02040000 	andeq	r0, r4, #0
    56d8:	0023020e 	eoreq	r0, r3, lr, lsl #4
    56dc:	00704d0c 	rsbseq	r4, r0, ip, lsl #26
    56e0:	5301fc03 	movwpl	pc, #7171	; 0x1c03	; <UNPREDICTABLE>
    56e4:	04000000 	streq	r0, [r0], #-0
    56e8:	23020d01 	movwcs	r0, #11521	; 0x2d01
    56ec:	0e500b00 	vnmlseq.f64	d16, d0, d0
    56f0:	fd030000 	stc2	0, cr0, [r3, #-0]
    56f4:	00005301 	andeq	r5, r0, r1, lsl #6
    56f8:	0c010400 	cfstrseq	mvf0, [r1], {-0}
    56fc:	0c002302 	stceq	3, cr2, [r0], {2}
    5700:	00757047 	rsbseq	r7, r5, r7, asr #32
    5704:	5301ff03 	movwpl	pc, #7939	; 0x1f03	; <UNPREDICTABLE>
    5708:	04000000 	streq	r0, [r0], #-0
    570c:	23020b01 	movwcs	r0, #11009	; 0x2b01
    5710:	03ad0b00 			; <UNDEFINED> instruction: 0x03ad0b00
    5714:	00030000 	andeq	r0, r3, r0
    5718:	00005302 	andeq	r5, r0, r2, lsl #6
    571c:	0a010400 	beq	46724 <__bss_end+0x4389c>
    5720:	0b002302 	bleq	e330 <__bss_end+0xb4a8>
    5724:	00000ed7 	ldrdeq	r0, [r0], -r7
    5728:	53020103 	movwpl	r0, #8451	; 0x2103
    572c:	04000000 	streq	r0, [r0], #-0
    5730:	23020901 	movwcs	r0, #10497	; 0x2901
    5734:	085d0b00 	ldmdaeq	sp, {r8, r9, fp}^
    5738:	02030000 	andeq	r0, r3, #0
    573c:	00005302 	andeq	r5, r0, r2, lsl #6
    5740:	08010400 	stmdaeq	r1, {sl}
    5744:	0b002302 	bleq	e354 <__bss_end+0xb4cc>
    5748:	00000865 	andeq	r0, r0, r5, ror #16
    574c:	53020303 	movwpl	r0, #8963	; 0x2303
    5750:	04000000 	streq	r0, [r0], #-0
    5754:	23020701 	movwcs	r0, #9985	; 0x2701
    5758:	080b0b00 	stmdaeq	fp, {r8, r9, fp}
    575c:	04030000 	streq	r0, [r3], #-0
    5760:	00005302 	andeq	r5, r0, r2, lsl #6
    5764:	06010400 	streq	r0, [r1], -r0, lsl #8
    5768:	0b002302 	bleq	e378 <__bss_end+0xb4f0>
    576c:	00000813 	andeq	r0, r0, r3, lsl r8
    5770:	53020503 	movwpl	r0, #9475	; 0x2503
    5774:	04000000 	streq	r0, [r0], #-0
    5778:	23020501 	movwcs	r0, #9473	; 0x2501
    577c:	05b30b00 	ldreq	r0, [r3, #2816]!	; 0xb00
    5780:	06030000 	streq	r0, [r3], -r0
    5784:	00005302 	andeq	r5, r0, r2, lsl #6
    5788:	04010400 	streq	r0, [r1], #-1024	; 0x400
    578c:	0b002302 	bleq	e39c <__bss_end+0xb514>
    5790:	00000e5a 	andeq	r0, r0, sl, asr lr
    5794:	53020703 	movwpl	r0, #9987	; 0x2703
    5798:	04000000 	streq	r0, [r0], #-0
    579c:	23020004 	movwcs	r0, #8196	; 0x2004
    57a0:	590d0000 	stmdbpl	sp, {}	; <UNPREDICTABLE>
    57a4:	03000003 	movweq	r0, #3
    57a8:	18110209 	ldmdane	r1, {r0, r3, r9}
    57ac:	010e0000 	mrseq	r0, (UNDEF: 14)
    57b0:	04000009 	streq	r0, [r0], #-9
    57b4:	1d020c03 	stcne	12, cr0, [r2, #-12]
    57b8:	0b00001a 	bleq	5828 <__bss_end+0x29a0>
    57bc:	00001047 	andeq	r1, r0, r7, asr #32
    57c0:	53020e03 	movwpl	r0, #11779	; 0x2e03
    57c4:	04000000 	streq	r0, [r0], #-0
    57c8:	23021f01 	movwcs	r1, #12033	; 0x2f01
    57cc:	10d60b00 	sbcsne	r0, r6, r0, lsl #22
    57d0:	0f030000 	svceq	0x00030000
    57d4:	00005302 	andeq	r5, r0, r2, lsl #6
    57d8:	001f0400 	andseq	r0, pc, r0, lsl #8
    57dc:	00002302 	andeq	r2, r0, r2, lsl #6
    57e0:	000c6f0d 	andeq	r6, ip, sp, lsl #30
    57e4:	02110300 	andseq	r0, r1, #0
    57e8:	000019eb 	andeq	r1, r0, fp, ror #19
    57ec:	0002b90e 	andeq	fp, r2, lr, lsl #18
    57f0:	14030400 	strne	r0, [r3], #-1024	; 0x400
    57f4:	001ac702 	andseq	ip, sl, r2, lsl #14
    57f8:	09720b00 	ldmdbeq	r2!, {r8, r9, fp}^
    57fc:	16030000 	strne	r0, [r3], -r0
    5800:	00005302 	andeq	r5, r0, r2, lsl #6
    5804:	1f010400 	svcne	0x00010400
    5808:	0b002302 	bleq	e418 <__bss_end+0xb590>
    580c:	000007e4 	andeq	r0, r0, r4, ror #15
    5810:	53021703 	movwpl	r1, #9987	; 0x2703
    5814:	04000000 	streq	r0, [r0], #-0
    5818:	23021e01 	movwcs	r1, #11777	; 0x2e01
    581c:	0e280b00 	vmuleq.f64	d0, d8, d0
    5820:	18030000 	stmdane	r3, {}	; <UNPREDICTABLE>
    5824:	00005302 	andeq	r5, r0, r2, lsl #6
    5828:	1b030400 	blne	c6830 <__bss_end+0xc39a8>
    582c:	0c002302 	stceq	3, cr2, [r0], {2}
    5830:	006f6950 	rsbeq	r6, pc, r0, asr r9	; <UNPREDICTABLE>
    5834:	53021903 	movwpl	r1, #10499	; 0x2903
    5838:	04000000 	streq	r0, [r0], #-0
    583c:	23021a01 	movwcs	r1, #10753	; 0x2a01
    5840:	0e320b00 	vaddeq.f64	d0, d2, d0
    5844:	1a030000 	bne	c584c <__bss_end+0xc29c4>
    5848:	00005302 	andeq	r5, r0, r2, lsl #6
    584c:	14060400 	strne	r0, [r6], #-1024	; 0x400
    5850:	0b002302 	bleq	e460 <__bss_end+0xb5d8>
    5854:	000010c5 	andeq	r1, r0, r5, asr #1
    5858:	53021b03 	movwpl	r1, #11011	; 0x2b03
    585c:	04000000 	streq	r0, [r0], #-0
    5860:	23021301 	movwcs	r1, #8961	; 0x2301
    5864:	04a30b00 	strteq	r0, [r3], #2816	; 0xb00
    5868:	1c030000 	stcne	0, cr0, [r3], {-0}
    586c:	00005302 	andeq	r5, r0, r2, lsl #6
    5870:	12010400 	andne	r0, r1, #0
    5874:	0b002302 	bleq	e484 <__bss_end+0xb5fc>
    5878:	00000e3c 	andeq	r0, r0, ip, lsr lr
    587c:	53021d03 	movwpl	r1, #11523	; 0x2d03
    5880:	04000000 	streq	r0, [r0], #-0
    5884:	23020012 	movwcs	r0, #8210	; 0x2012
    5888:	e60d0000 	str	r0, [sp], -r0
    588c:	03000002 	movweq	r0, #2
    5890:	1a29021f 	bne	a46114 <__bss_end+0xa4328c>
    5894:	240e0000 	strcs	r0, [lr], #-0
    5898:	04000003 	streq	r0, [r0], #-3
    589c:	b9022203 	stmdblt	r2, {r0, r1, r9, sp}
    58a0:	0b00001b 	bleq	5914 <__bss_end+0x2a8c>
    58a4:	00000573 	andeq	r0, r0, r3, ror r5
    58a8:	53022403 	movwpl	r2, #9219	; 0x2403
    58ac:	04000000 	streq	r0, [r0], #-0
    58b0:	23021f01 	movwcs	r1, #12033	; 0x2f01
    58b4:	05780b00 	ldrbeq	r0, [r8, #-2816]!	; 0xb00
    58b8:	25030000 	strcs	r0, [r3, #-0]
    58bc:	00005302 	andeq	r5, r0, r2, lsl #6
    58c0:	1e010400 	cfcpysne	mvf0, mvf1
    58c4:	0b002302 	bleq	e4d4 <__bss_end+0xb64c>
    58c8:	0000057d 	andeq	r0, r0, sp, ror r5
    58cc:	53022603 	movwpl	r2, #9731	; 0x2603
    58d0:	04000000 	streq	r0, [r0], #-0
    58d4:	23021d01 	movwcs	r1, #11521	; 0x2d01
    58d8:	05820b00 	streq	r0, [r2, #2816]	; 0xb00
    58dc:	27030000 	strcs	r0, [r3, -r0]
    58e0:	00005302 	andeq	r5, r0, r2, lsl #6
    58e4:	1c010400 	cfstrsne	mvf0, [r1], {-0}
    58e8:	0b002302 	bleq	e4f8 <__bss_end+0xb670>
    58ec:	00000e28 	andeq	r0, r0, r8, lsr #28
    58f0:	53022803 	movwpl	r2, #10243	; 0x2803
    58f4:	04000000 	streq	r0, [r0], #-0
    58f8:	2302100c 	movwcs	r1, #8204	; 0x200c
    58fc:	0b270b00 	bleq	9c8504 <__bss_end+0x9c567c>
    5900:	29030000 	stmdbcs	r3, {}	; <UNPREDICTABLE>
    5904:	00005302 	andeq	r5, r0, r2, lsl #6
    5908:	0f010400 	svceq	0x00010400
    590c:	0b002302 	bleq	e51c <__bss_end+0xb694>
    5910:	00000f32 	andeq	r0, r0, r2, lsr pc
    5914:	53022a03 	movwpl	r2, #10755	; 0x2a03
    5918:	04000000 	streq	r0, [r0], #-0
    591c:	23020e01 	movwcs	r0, #11777	; 0x2e01
    5920:	0f3d0b00 	svceq	0x003d0b00
    5924:	2b030000 	blcs	c592c <__bss_end+0xc2aa4>
    5928:	00005302 	andeq	r5, r0, r2, lsl #6
    592c:	0d010400 	cfstrseq	mvf0, [r1, #-0]
    5930:	0b002302 	bleq	e540 <__bss_end+0xb6b8>
    5934:	00000587 	andeq	r0, r0, r7, lsl #11
    5938:	53022c03 	movwpl	r2, #11267	; 0x2c03
    593c:	04000000 	streq	r0, [r0], #-0
    5940:	23020c01 	movwcs	r0, #11265	; 0x2c01
    5944:	058d0b00 	streq	r0, [sp, #2816]	; 0xb00
    5948:	2d030000 	stccs	0, cr0, [r3, #-0]
    594c:	00005302 	andeq	r5, r0, r2, lsl #6
    5950:	0b010400 	bleq	46958 <__bss_end+0x43ad0>
    5954:	0b002302 	bleq	e564 <__bss_end+0xb6dc>
    5958:	00000593 	muleq	r0, r3, r5
    595c:	53022e03 	movwpl	r2, #11779	; 0x2e03
    5960:	04000000 	streq	r0, [r0], #-0
    5964:	23020a01 	movwcs	r0, #10753	; 0x2a01
    5968:	0e320b00 	vaddeq.f64	d0, d2, d0
    596c:	2f030000 	svccs	0x00030000
    5970:	00005302 	andeq	r5, r0, r2, lsl #6
    5974:	000a0400 	andeq	r0, sl, r0, lsl #8
    5978:	00002302 	andeq	r2, r0, r2, lsl #6
    597c:	0005d80d 	andeq	sp, r5, sp, lsl #16
    5980:	02310300 	eorseq	r0, r1, #0
    5984:	00001ad3 	ldrdeq	r1, [r0], -r3
    5988:	000aeb0e 	andeq	lr, sl, lr, lsl #22
    598c:	34030400 	strcc	r0, [r3], #-1024	; 0x400
    5990:	001c6302 	andseq	r6, ip, r2, lsl #6
    5994:	0e280b00 	vmuleq.f64	d0, d8, d0
    5998:	36030000 	strcc	r0, [r3], -r0
    599c:	00005302 	andeq	r5, r0, r2, lsl #6
    59a0:	18080400 	stmdane	r8, {sl}
    59a4:	0b002302 	bleq	e5b4 <__bss_end+0xb72c>
    59a8:	00000780 	andeq	r0, r0, r0, lsl #15
    59ac:	53023703 	movwpl	r3, #9987	; 0x2703
    59b0:	04000000 	streq	r0, [r0], #-0
    59b4:	23021305 	movwcs	r1, #8965	; 0x2305
    59b8:	0e320b00 	vaddeq.f64	d0, d2, d0
    59bc:	38030000 	stmdacc	r3, {}	; <UNPREDICTABLE>
    59c0:	00005302 	andeq	r5, r0, r2, lsl #6
    59c4:	0c070400 	cfstrseq	mvf0, [r7], {-0}
    59c8:	0b002302 	bleq	e5d8 <__bss_end+0xb750>
    59cc:	00000785 	andeq	r0, r0, r5, lsl #15
    59d0:	53023903 	movwpl	r3, #10499	; 0x2903
    59d4:	04000000 	streq	r0, [r0], #-0
    59d8:	23020a02 	movwcs	r0, #10754	; 0x2a02
    59dc:	0e3c0b00 	vaddeq.f64	d0, d12, d0
    59e0:	3a030000 	bcc	c59e8 <__bss_end+0xc2b60>
    59e4:	00005302 	andeq	r5, r0, r2, lsl #6
    59e8:	08020400 	stmdaeq	r2, {sl}
    59ec:	0b002302 	bleq	e5fc <__bss_end+0xb774>
    59f0:	00000f6d 	andeq	r0, r0, sp, ror #30
    59f4:	53023b03 	movwpl	r3, #11011	; 0x2b03
    59f8:	04000000 	streq	r0, [r0], #-0
    59fc:	23020404 	movwcs	r0, #9220	; 0x2404
    5a00:	0e460b00 	vmlaeq.f64	d16, d6, d0
    5a04:	3c030000 	stccc	0, cr0, [r3], {-0}
    5a08:	00005302 	andeq	r5, r0, r2, lsl #6
    5a0c:	01030400 	tsteq	r3, r0, lsl #8
    5a10:	0b002302 	bleq	e620 <__bss_end+0xb798>
    5a14:	000011c6 	andeq	r1, r0, r6, asr #3
    5a18:	53023d03 	movwpl	r3, #11523	; 0x2d03
    5a1c:	04000000 	streq	r0, [r0], #-0
    5a20:	23020001 	movwcs	r0, #8193	; 0x2001
    5a24:	2d0d0000 	stccs	0, cr0, [sp, #-0]
    5a28:	0300000c 	movweq	r0, #12
    5a2c:	1bc5023f 	blne	ff146330 <__bss_end+0xff1434a8>
    5a30:	370f0000 	strcc	r0, [pc, -r0]
    5a34:	0c000011 	stceq	0, cr0, [r0], {17}
    5a38:	02420303 	subeq	r0, r2, #201326592	; 0xc000000
    5a3c:	0000234c 	andeq	r2, r0, ip, asr #6
    5a40:	00095c10 	andeq	r5, r9, r0, lsl ip
    5a44:	02440300 	subeq	r0, r4, #0
    5a48:	0000234c 	andeq	r2, r0, ip, asr #6
    5a4c:	10002302 	andne	r2, r0, r2, lsl #6
    5a50:	00000e28 	andeq	r0, r0, r8, lsr #28
    5a54:	73024503 	movwvc	r4, #9475	; 0x2503
    5a58:	02000000 	andeq	r0, r0, #0
    5a5c:	4d100423 	cfldrsmi	mvf0, [r0, #-140]	; 0xffffff74
    5a60:	03000005 	movweq	r0, #5
    5a64:	23510246 	cmpcs	r1, #1610612740	; 0x60000004
    5a68:	23020000 	movwcs	r0, #8192	; 0x2000
    5a6c:	0e321008 	cdpeq	0, 3, cr1, cr2, cr8, {0}
    5a70:	47030000 	strmi	r0, [r3, -r0]
    5a74:	00007302 	andeq	r7, r0, r2, lsl #6
    5a78:	0c230200 	sfmeq	f0, 4, [r3], #-0
    5a7c:	000b8e10 	andeq	r8, fp, r0, lsl lr
    5a80:	02480300 	subeq	r0, r8, #0
    5a84:	00002356 	andeq	r2, r0, r6, asr r3
    5a88:	10102302 	andsne	r2, r0, r2, lsl #6
    5a8c:	00000e3c 	andeq	r0, r0, ip, lsr lr
    5a90:	73024903 	movwvc	r4, #10499	; 0x2903
    5a94:	02000000 	andeq	r0, r0, #0
    5a98:	bd101423 	cfldrslt	mvf1, [r0, #-140]	; 0xffffff74
    5a9c:	03000004 	movweq	r0, #4
    5aa0:	2356024a 	cmpcs	r6, #-1610612732	; 0xa0000004
    5aa4:	23020000 	movwcs	r0, #8192	; 0x2000
    5aa8:	0e461018 	mcreq	0, 2, r1, cr6, cr8, {0}
    5aac:	4b030000 	blmi	c5ab4 <__bss_end+0xc2c2c>
    5ab0:	00007302 	andeq	r7, r0, r2, lsl #6
    5ab4:	1c230200 	sfmne	f0, 4, [r3], #-0
    5ab8:	000d6e10 	andeq	r6, sp, r0, lsl lr
    5abc:	024c0300 	subeq	r0, ip, #0
    5ac0:	0000235b 	andeq	r2, r0, fp, asr r3
    5ac4:	10202302 	eorne	r2, r0, r2, lsl #6
    5ac8:	00000e50 	andeq	r0, r0, r0, asr lr
    5acc:	73024d03 	movwvc	r4, #11523	; 0x2d03
    5ad0:	02000000 	andeq	r0, r0, #0
    5ad4:	64102423 	ldrvs	r2, [r0], #-1059	; 0x423
    5ad8:	03000010 	movweq	r0, #16
    5adc:	2360024e 	cmncs	r0, #-536870908	; 0xe0000004
    5ae0:	23020000 	movwcs	r0, #8192	; 0x2000
    5ae4:	0e5a1028 	cdpeq	0, 5, cr1, cr10, cr8, {1}
    5ae8:	4f030000 	svcmi	0x00030000
    5aec:	00007302 	andeq	r7, r0, r2, lsl #6
    5af0:	2c230200 	sfmcs	f0, 4, [r3], #-0
    5af4:	000f0110 	andeq	r0, pc, r0, lsl r1	; <UNPREDICTABLE>
    5af8:	02500300 	subseq	r0, r0, #0
    5afc:	00002356 	andeq	r2, r0, r6, asr r3
    5b00:	10302302 	eorsne	r2, r0, r2, lsl #6
    5b04:	00000e64 	andeq	r0, r0, r4, ror #28
    5b08:	73025103 	movwvc	r5, #8451	; 0x2103
    5b0c:	02000000 	andeq	r0, r0, #0
    5b10:	9e103423 	cfmuldls	mvd3, mvd0, mvd3
    5b14:	03000009 	movweq	r0, #9
    5b18:	23560252 	cmpcs	r6, #536870917	; 0x20000005
    5b1c:	23020000 	movwcs	r0, #8192	; 0x2000
    5b20:	0e6e1038 	mcreq	0, 3, r1, cr14, cr8, {1}
    5b24:	53030000 	movwpl	r0, #12288	; 0x3000
    5b28:	00007302 	andeq	r7, r0, r2, lsl #6
    5b2c:	3c230200 	sfmcc	f0, 4, [r3], #-0
    5b30:	00064e10 	andeq	r4, r6, r0, lsl lr
    5b34:	02540300 	subseq	r0, r4, #0
    5b38:	00002365 	andeq	r2, r0, r5, ror #6
    5b3c:	10402302 	subne	r2, r0, r2, lsl #6
    5b40:	000011e2 	andeq	r1, r0, r2, ror #3
    5b44:	56025503 	strpl	r5, [r2], -r3, lsl #10
    5b48:	02000023 	andeq	r0, r0, #35	; 0x23
    5b4c:	b4104423 	ldrlt	r4, [r0], #-1059	; 0x423
    5b50:	03000004 	movweq	r0, #4
    5b54:	23560256 	cmpcs	r6, #1610612741	; 0x60000005
    5b58:	23020000 	movwcs	r0, #8192	; 0x2000
    5b5c:	0e781048 	cdpeq	0, 7, cr1, cr8, cr8, {2}
    5b60:	57030000 	strpl	r0, [r3, -r0]
    5b64:	00007302 	andeq	r7, r0, r2, lsl #6
    5b68:	4c230200 	sfmmi	f0, 4, [r3], #-0
    5b6c:	000b9610 	andeq	r9, fp, r0, lsl r6
    5b70:	02580300 	subseq	r0, r8, #0
    5b74:	0000236a 	andeq	r2, r0, sl, ror #6
    5b78:	10502302 	subsne	r2, r0, r2, lsl #6
    5b7c:	00000b65 	andeq	r0, r0, r5, ror #22
    5b80:	6f025903 	svcvs	0x00025903
    5b84:	02000023 	andeq	r0, r0, #35	; 0x23
    5b88:	a3105423 	tstge	r0, #587202560	; 0x23000000
    5b8c:	03000006 	movweq	r0, #6
    5b90:	2374025a 	cmncs	r4, #-1610612731	; 0xa0000005
    5b94:	23020000 	movwcs	r0, #8192	; 0x2000
    5b98:	10551058 	subsne	r1, r5, r8, asr r0
    5b9c:	5b030000 	blpl	c5ba4 <__bss_end+0xc2d1c>
    5ba0:	00237902 	eoreq	r7, r3, r2, lsl #18
    5ba4:	5c230200 	sfmpl	f0, 4, [r3], #-0
    5ba8:	0008e110 	andeq	lr, r8, r0, lsl r1
    5bac:	025c0300 	subseq	r0, ip, #0
    5bb0:	0000237e 	andeq	r2, r0, lr, ror r3
    5bb4:	10602302 	rsbne	r2, r0, r2, lsl #6
    5bb8:	0000079d 	muleq	r0, sp, r7
    5bbc:	83025d03 	movwhi	r5, #11523	; 0x2d03
    5bc0:	02000023 	andeq	r0, r0, #35	; 0x23
    5bc4:	e9106423 	ldmdb	r0, {r0, r1, r5, sl, sp, lr}
    5bc8:	03000010 	movweq	r0, #16
    5bcc:	2388025e 	orrcs	r0, r8, #-536870907	; 0xe0000005
    5bd0:	23020000 	movwcs	r0, #8192	; 0x2000
    5bd4:	074d1068 	strbeq	r1, [sp, -r8, rrx]
    5bd8:	5f030000 	svcpl	0x00030000
    5bdc:	00238d02 	eoreq	r8, r3, r2, lsl #26
    5be0:	6c230200 	sfmvs	f0, 4, [r3], #-0
    5be4:	000e8210 	andeq	r8, lr, r0, lsl r2
    5be8:	02600300 	rsbeq	r0, r0, #0
    5bec:	00002392 	muleq	r0, r2, r3
    5bf0:	10702302 	rsbsne	r2, r0, r2, lsl #6
    5bf4:	00001180 	andeq	r1, r0, r0, lsl #3
    5bf8:	97026103 	strls	r6, [r2, -r3, lsl #2]
    5bfc:	03000023 	movweq	r0, #35	; 0x23
    5c00:	10018023 	andne	r8, r1, r3, lsr #32
    5c04:	00001186 	andeq	r1, r0, r6, lsl #3
    5c08:	97026203 	strls	r6, [r2, -r3, lsl #4]
    5c0c:	03000023 	movweq	r0, #35	; 0x23
    5c10:	11018423 	tstne	r1, r3, lsr #8
    5c14:	00306453 	eorseq	r6, r0, r3, asr r4
    5c18:	97026303 	strls	r6, [r2, -r3, lsl #6]
    5c1c:	03000023 	movweq	r0, #35	; 0x23
    5c20:	11018823 	tstne	r1, r3, lsr #16
    5c24:	00316453 	eorseq	r6, r1, r3, asr r4
    5c28:	97026403 	strls	r6, [r2, -r3, lsl #8]
    5c2c:	03000023 	movweq	r0, #35	; 0x23
    5c30:	11018c23 	tstne	r1, r3, lsr #24
    5c34:	00326453 	eorseq	r6, r2, r3, asr r4
    5c38:	97026503 	strls	r6, [r2, -r3, lsl #10]
    5c3c:	03000023 	movweq	r0, #35	; 0x23
    5c40:	11019023 	tstne	r1, r3, lsr #32
    5c44:	00336453 	eorseq	r6, r3, r3, asr r4
    5c48:	97026603 	strls	r6, [r2, -r3, lsl #12]
    5c4c:	03000023 	movweq	r0, #35	; 0x23
    5c50:	11019423 	tstne	r1, r3, lsr #8
    5c54:	03007354 	movweq	r7, #852	; 0x354
    5c58:	23970267 	orrscs	r0, r7, #1879048198	; 0x70000006
    5c5c:	23030000 	movwcs	r0, #12288	; 0x3000
    5c60:	53110198 	tstpl	r1, #38	; 0x26
    5c64:	68030073 	stmdavs	r3, {r0, r1, r4, r5, r6}
    5c68:	00239702 	eoreq	r9, r3, r2, lsl #14
    5c6c:	9c230300 	stcls	3, cr0, [r3], #-0
    5c70:	0eec1001 	cdpeq	0, 14, cr1, cr12, cr1, {0}
    5c74:	69030000 	stmdbvs	r3, {}	; <UNPREDICTABLE>
    5c78:	00239702 	eoreq	r9, r3, r2, lsl #14
    5c7c:	a0230300 	eorge	r0, r3, r0, lsl #6
    5c80:	0ef11001 	cdpeq	0, 15, cr1, cr1, cr1, {0}
    5c84:	6a030000 	bvs	c5c8c <__bss_end+0xc2e04>
    5c88:	00239702 	eoreq	r9, r3, r2, lsl #14
    5c8c:	a4230300 	strtge	r0, [r3], #-768	; 0x300
    5c90:	0ef61001 	cdpeq	0, 15, cr1, cr6, cr1, {0}
    5c94:	6b030000 	blvs	c5c9c <__bss_end+0xc2e14>
    5c98:	00239702 	eoreq	r9, r3, r2, lsl #14
    5c9c:	a8230300 	stmdage	r3!, {r8, r9}
    5ca0:	0d541001 	ldcleq	0, cr1, [r4, #-4]
    5ca4:	6c030000 	stcvs	0, cr0, [r3], {-0}
    5ca8:	00239702 	eoreq	r9, r3, r2, lsl #14
    5cac:	ac230300 	stcge	3, cr0, [r3], #-0
    5cb0:	10c51001 	sbcne	r1, r5, r1
    5cb4:	6d030000 	stcvs	0, cr0, [r3, #-0]
    5cb8:	00239c02 	eoreq	r9, r3, r2, lsl #24
    5cbc:	b0230300 	eorlt	r0, r3, r0, lsl #6
    5cc0:	04a31001 	strteq	r1, [r3], #1
    5cc4:	6e030000 	cdpvs	0, 0, cr0, cr3, cr0, {0}
    5cc8:	00239c02 	eoreq	r9, r3, r2, lsl #24
    5ccc:	b4230300 	strtlt	r0, [r3], #-768	; 0x300
    5cd0:	09b11001 	ldmibeq	r1!, {r0, ip}
    5cd4:	6f030000 	svcvs	0x00030000
    5cd8:	0023a102 	eoreq	sl, r3, r2, lsl #2
    5cdc:	b8230300 	stmdalt	r3!, {r8, r9}
    5ce0:	07e41001 	strbeq	r1, [r4, r1]!
    5ce4:	70030000 	andvc	r0, r3, r0
    5ce8:	00239c02 	eoreq	r9, r3, r2, lsl #24
    5cec:	c0230300 	eorgt	r0, r3, r0, lsl #6
    5cf0:	0b2d1001 	bleq	b49cfc <__bss_end+0xb46e74>
    5cf4:	71030000 	mrsvc	r0, (UNDEF: 3)
    5cf8:	0023a602 	eoreq	sl, r3, r2, lsl #12
    5cfc:	c4230300 	strtgt	r0, [r3], #-768	; 0x300
    5d00:	73551101 	cmpvc	r5, #1073741824	; 0x40000000
    5d04:	72030062 	andvc	r0, r3, #98	; 0x62
    5d08:	0023ab02 	eoreq	sl, r3, r2, lsl #22
    5d0c:	cc230300 	stcgt	3, cr0, [r3], #-0
    5d10:	06d71001 	ldrbeq	r1, [r7], r1
    5d14:	73030000 	movwvc	r0, #12288	; 0x3000
    5d18:	0023b002 	eoreq	fp, r3, r2
    5d1c:	d0230300 	eorle	r0, r3, r0, lsl #6
    5d20:	09d31001 	ldmibeq	r3, {r0, ip}^
    5d24:	74030000 	strvc	r0, [r3], #-0
    5d28:	0023c502 	eoreq	ip, r3, r2, lsl #10
    5d2c:	d4230300 	strtle	r0, [r3], #-768	; 0x300
    5d30:	0aaa1001 	beq	fea89d3c <__bss_end+0xfea86eb4>
    5d34:	75030000 	strvc	r0, [r3, #-0]
    5d38:	00239702 	eoreq	r9, r3, r2, lsl #14
    5d3c:	f0230300 			; <UNDEFINED> instruction: 0xf0230300
    5d40:	0f931001 	svceq	0x00931001
    5d44:	76030000 	strvc	r0, [r3], -r0
    5d48:	0023ca02 	eoreq	ip, r3, r2, lsl #20
    5d4c:	f4230300 	vld2.8	{d0-d3}, [r3], r0
    5d50:	09de1001 	ldmibeq	lr, {r0, ip}^
    5d54:	77030000 	strvc	r0, [r3, -r0]
    5d58:	0023cf02 	eoreq	ip, r3, r2, lsl #30
    5d5c:	f8230300 			; <UNDEFINED> instruction: 0xf8230300
    5d60:	0ccb1001 	stcleq	0, cr1, [fp], {1}
    5d64:	78030000 	stmdavc	r3, {}	; <UNPREDICTABLE>
    5d68:	0023d402 	eoreq	sp, r3, r2, lsl #8
    5d6c:	80230300 	eorhi	r0, r3, r0, lsl #6
    5d70:	65421102 	strbvs	r1, [r2, #-258]	; 0x102
    5d74:	79030030 	stmdbvc	r3, {r4, r5}
    5d78:	0023d902 	eoreq	sp, r3, r2, lsl #18
    5d7c:	84230300 	strthi	r0, [r3], #-768	; 0x300
    5d80:	65421102 	strbvs	r1, [r2, #-258]	; 0x102
    5d84:	7a030031 	bvc	c5e50 <__bss_end+0xc2fc8>
    5d88:	0023d902 	eoreq	sp, r3, r2, lsl #18
    5d8c:	88230300 	stmdahi	r3!, {r8, r9}
    5d90:	65461102 	strbvs	r1, [r6, #-258]	; 0x102
    5d94:	7b030030 	blvc	c5e5c <__bss_end+0xc2fd4>
    5d98:	0023d902 	eoreq	sp, r3, r2, lsl #18
    5d9c:	8c230300 	stchi	3, cr0, [r3], #-0
    5da0:	65461102 	strbvs	r1, [r6, #-258]	; 0x102
    5da4:	7c030031 	stcvc	0, cr0, [r3], {49}	; 0x31
    5da8:	0023d902 	eoreq	sp, r3, r2, lsl #18
    5dac:	90230300 	eorls	r0, r3, r0, lsl #6
    5db0:	704d1102 	subvc	r1, sp, r2, lsl #2
    5db4:	027d0300 	rsbseq	r0, sp, #0
    5db8:	000023d9 	ldrdeq	r2, [r0], -r9
    5dbc:	02942303 	addseq	r2, r4, #201326592	; 0xc000000
    5dc0:	0003da10 	andeq	sp, r3, r0, lsl sl
    5dc4:	027e0300 	rsbseq	r0, lr, #0
    5dc8:	000023d9 	ldrdeq	r2, [r0], -r9
    5dcc:	02982303 	addseq	r2, r8, #201326592	; 0xc000000
    5dd0:	000cee10 	andeq	lr, ip, r0, lsl lr
    5dd4:	027f0300 	rsbseq	r0, pc, #0
    5dd8:	000023d9 	ldrdeq	r2, [r0], -r9
    5ddc:	029c2303 	addseq	r2, ip, #201326592	; 0xc000000
    5de0:	000b4210 	andeq	r4, fp, r0, lsl r2
    5de4:	02800300 	addeq	r0, r0, #0
    5de8:	000023ee 	andeq	r2, r0, lr, ror #7
    5dec:	02a02303 	adceq	r2, r0, #201326592	; 0xc000000
    5df0:	0003e210 	andeq	lr, r3, r0, lsl r2
    5df4:	02810300 	addeq	r0, r1, #0
    5df8:	000023d9 	ldrdeq	r2, [r0], -r9
    5dfc:	02ac2303 	adceq	r2, ip, #201326592	; 0xc000000
    5e00:	000cf610 	andeq	pc, ip, r0, lsl r6	; <UNPREDICTABLE>
    5e04:	02820300 	addeq	r0, r2, #0
    5e08:	000023d9 	ldrdeq	r2, [r0], -r9
    5e0c:	02b02303 	adcseq	r2, r0, #201326592	; 0xc000000
    5e10:	000ea310 	andeq	sl, lr, r0, lsl r3
    5e14:	02830300 	addeq	r0, r3, #0
    5e18:	000023f3 	strdeq	r2, [r0], -r3
    5e1c:	02b42303 	adcseq	r2, r4, #201326592	; 0xc000000
    5e20:	000ea810 	andeq	sl, lr, r0, lsl r8
    5e24:	02840300 	addeq	r0, r4, #0
    5e28:	000023f3 	strdeq	r2, [r0], -r3
    5e2c:	02b82303 	adcseq	r2, r8, #201326592	; 0xc000000
    5e30:	00655611 	rsbeq	r5, r5, r1, lsl r6
    5e34:	f8028503 			; <UNDEFINED> instruction: 0xf8028503
    5e38:	03000023 	movweq	r0, #35	; 0x23
    5e3c:	1002bc23 	andne	fp, r2, r3, lsr #24
    5e40:	00000972 	andeq	r0, r0, r2, ror r9
    5e44:	9c028603 	stcls	6, cr8, [r2], {3}
    5e48:	03000023 	movweq	r0, #35	; 0x23
    5e4c:	1102c023 	tstne	r2, r3, lsr #32
    5e50:	00737641 	rsbseq	r7, r3, r1, asr #12
    5e54:	fd028703 	stc2	7, cr8, [r2, #-12]
    5e58:	03000023 	movweq	r0, #35	; 0x23
    5e5c:	1002c423 	andne	ip, r2, r3, lsr #8
    5e60:	000002ff 	strdeq	r0, [r0], -pc	; <UNPREDICTABLE>
    5e64:	9c028803 	stcls	8, cr8, [r2], {3}
    5e68:	03000023 	movweq	r0, #35	; 0x23
    5e6c:	1002c823 	andne	ip, r2, r3, lsr #16
    5e70:	00000a00 	andeq	r0, r0, r0, lsl #20
    5e74:	73028903 	movwvc	r8, #10499	; 0x2903
    5e78:	03000000 	movweq	r0, #0
    5e7c:	1002cc23 	andne	ip, r2, r3, lsr #24
    5e80:	00000343 	andeq	r0, r0, r3, asr #6
    5e84:	02028a03 	andeq	r8, r2, #12288	; 0x3000
    5e88:	03000024 	movweq	r0, #36	; 0x24
    5e8c:	1102d023 	tstne	r2, r3, lsr #32
    5e90:	03007350 	movweq	r7, #848	; 0x350
    5e94:	239c028b 	orrscs	r0, ip, #-1342177272	; 0xb0000008
    5e98:	23030000 	movwcs	r0, #12288	; 0x3000
    5e9c:	b31002d4 	tstlt	r0, #1073741837	; 0x4000000d
    5ea0:	03000005 	movweq	r0, #5
    5ea4:	2397028c 	orrscs	r0, r7, #-1073741816	; 0xc0000008
    5ea8:	23030000 	movwcs	r0, #12288	; 0x3000
    5eac:	711002d8 			; <UNDEFINED> instruction: 0x711002d8
    5eb0:	03000004 	movweq	r0, #4
    5eb4:	2397028d 	orrscs	r0, r7, #-805306360	; 0xd0000008
    5eb8:	23030000 	movwcs	r0, #12288	; 0x3000
    5ebc:	7e1002dc 	mrcvc	2, 0, r0, cr0, cr12, {6}
    5ec0:	03000004 	movweq	r0, #4
    5ec4:	2397028e 	orrscs	r0, r7, #-536870904	; 0xe0000008
    5ec8:	23030000 	movwcs	r0, #12288	; 0x3000
    5ecc:	0b1002e0 	bleq	406a54 <__bss_end+0x403bcc>
    5ed0:	0300000a 	movweq	r0, #10
    5ed4:	0073028f 	rsbseq	r0, r3, pc, lsl #5
    5ed8:	23030000 	movwcs	r0, #12288	; 0x3000
    5edc:	e71002e4 	ldr	r0, [r0, -r4, ror #5]
    5ee0:	03000004 	movweq	r0, #4
    5ee4:	24070290 	strcs	r0, [r7], #-656	; 0x290
    5ee8:	23030000 	movwcs	r0, #12288	; 0x3000
    5eec:	0f1002e8 	svceq	0x001002e8
    5ef0:	0300000e 	movweq	r0, #14
    5ef4:	24070291 	strcs	r0, [r7], #-657	; 0x291
    5ef8:	23030000 	movwcs	r0, #12288	; 0x3000
    5efc:	6d1002ec 	lfmvs	f0, 4, [r0, #-944]	; 0xfffffc50
    5f00:	0300000b 	movweq	r0, #11
    5f04:	240c0292 	strcs	r0, [ip], #-658	; 0x292
    5f08:	23030000 	movwcs	r0, #12288	; 0x3000
    5f0c:	081002f0 	ldmdaeq	r0, {r4, r5, r6, r7, r9}
    5f10:	03000008 	movweq	r0, #8
    5f14:	23970293 	orrscs	r0, r7, #805306377	; 0x30000009
    5f18:	23030000 	movwcs	r0, #12288	; 0x3000
    5f1c:	10100380 	andsne	r0, r0, r0, lsl #7
    5f20:	03000008 	movweq	r0, #8
    5f24:	23970294 	orrscs	r0, r7, #1073741833	; 0x40000009
    5f28:	23030000 	movwcs	r0, #12288	; 0x3000
    5f2c:	5a100384 	bpl	406d44 <__bss_end+0x403ebc>
    5f30:	03000008 	movweq	r0, #8
    5f34:	23970295 	orrscs	r0, r7, #1342177289	; 0x50000009
    5f38:	23030000 	movwcs	r0, #12288	; 0x3000
    5f3c:	62100388 	andsvs	r0, r0, #536870914	; 0x20000002
    5f40:	03000008 	movweq	r0, #8
    5f44:	23970296 	orrscs	r0, r7, #1610612745	; 0x60000009
    5f48:	23030000 	movwcs	r0, #12288	; 0x3000
    5f4c:	1e10038c 	cdpne	3, 1, cr0, cr0, cr12, {4}
    5f50:	0300000a 	movweq	r0, #10
    5f54:	24110297 	ldrcs	r0, [r1], #-663	; 0x297
    5f58:	23030000 	movwcs	r0, #12288	; 0x3000
    5f5c:	45100390 	ldrmi	r0, [r0, #-912]	; 0x390
    5f60:	03000007 	movweq	r0, #7
    5f64:	23970298 	orrscs	r0, r7, #-2147483639	; 0x80000009
    5f68:	23030000 	movwcs	r0, #12288	; 0x3000
    5f6c:	3e1003a0 	cdpcc	3, 1, cr0, cr0, cr0, {5}
    5f70:	03000007 	movweq	r0, #7
    5f74:	23970299 	orrscs	r0, r7, #-1879048183	; 0x90000009
    5f78:	23030000 	movwcs	r0, #12288	; 0x3000
    5f7c:	f11003a4 			; <UNDEFINED> instruction: 0xf11003a4
    5f80:	0300000b 	movweq	r0, #11
    5f84:	2397029a 	orrscs	r0, r7, #-1610612727	; 0xa0000009
    5f88:	23030000 	movwcs	r0, #12288	; 0x3000
    5f8c:	781003a8 	ldmdavc	r0, {r3, r5, r7, r8, r9}
    5f90:	0300000b 	movweq	r0, #11
    5f94:	2426029b 	strtcs	r0, [r6], #-667	; 0x29b
    5f98:	23030000 	movwcs	r0, #12288	; 0x3000
    5f9c:	dc1003ac 	ldcle	3, cr0, [r0], {172}	; 0xac
    5fa0:	03000007 	movweq	r0, #7
    5fa4:	242b029d 	strtcs	r0, [fp], #-669	; 0x29d
    5fa8:	23030000 	movwcs	r0, #12288	; 0x3000
    5fac:	5e100480 	cfmv32ahpl	mvfx0, mvax0
    5fb0:	0300000c 	movweq	r0, #12
    5fb4:	0073029e 			; <UNDEFINED> instruction: 0x0073029e
    5fb8:	23030000 	movwcs	r0, #12288	; 0x3000
    5fbc:	ca100484 	bgt	4071d4 <__bss_end+0x40434c>
    5fc0:	03000010 	movweq	r0, #16
    5fc4:	2440029f 	strbcs	r0, [r0], #-671	; 0x29f
    5fc8:	23030000 	movwcs	r0, #12288	; 0x3000
    5fcc:	be100488 	cdplt	4, 1, cr0, cr0, cr8, {4}
    5fd0:	0300000a 	movweq	r0, #10
    5fd4:	245502a0 	ldrbcs	r0, [r5], #-672	; 0x2a0
    5fd8:	23030000 	movwcs	r0, #12288	; 0x3000
    5fdc:	b31004a0 	tstlt	r0, #-1610612736	; 0xa0000000
    5fe0:	03000006 	movweq	r0, #6
    5fe4:	007302a1 	rsbseq	r0, r3, r1, lsr #5
    5fe8:	23030000 	movwcs	r0, #12288	; 0x3000
    5fec:	d01004cc 	andsle	r0, r0, ip, asr #9
    5ff0:	03000005 	movweq	r0, #5
    5ff4:	007302a2 	rsbseq	r0, r3, r2, lsr #5
    5ff8:	23030000 	movwcs	r0, #12288	; 0x3000
    5ffc:	bf1004d0 	svclt	0x001004d0
    6000:	03000006 	movweq	r0, #6
    6004:	245a02a3 	ldrbcs	r0, [sl], #-675	; 0x2a3
    6008:	23030000 	movwcs	r0, #12288	; 0x3000
    600c:	1f1004d4 	svcne	0x001004d4
    6010:	0300000b 	movweq	r0, #11
    6014:	007302a4 	rsbseq	r0, r3, r4, lsr #5
    6018:	23030000 	movwcs	r0, #12288	; 0x3000
    601c:	cb1004e0 	blgt	4073a4 <__bss_end+0x40451c>
    6020:	03000006 	movweq	r0, #6
    6024:	245f02a5 	ldrbcs	r0, [pc], #-677	; 602c <__bss_end+0x31a4>
    6028:	23030000 	movwcs	r0, #12288	; 0x3000
    602c:	da1004e4 	ble	4073c4 <__bss_end+0x40453c>
    6030:	0300000a 	movweq	r0, #10
    6034:	007302a6 	rsbseq	r0, r3, r6, lsr #5
    6038:	23030000 	movwcs	r0, #12288	; 0x3000
    603c:	0e1004f0 	mrceq	4, 0, r0, cr0, cr0, {7}
    6040:	0300000d 	movweq	r0, #13
    6044:	246402a7 	strbtcs	r0, [r4], #-679	; 0x2a7
    6048:	23030000 	movwcs	r0, #12288	; 0x3000
    604c:	dc1004f4 	cfldrsle	mvf0, [r0], {244}	; 0xf4
    6050:	03000006 	movweq	r0, #6
    6054:	247902a8 	ldrbtcs	r0, [r9], #-680	; 0x2a8
    6058:	23030000 	movwcs	r0, #12288	; 0x3000
    605c:	fe100580 	cdp2	5, 1, cr0, cr0, cr0, {4}
    6060:	0300000b 	movweq	r0, #11
    6064:	247e02aa 	ldrbtcs	r0, [lr], #-682	; 0x2aa
    6068:	23030000 	movwcs	r0, #12288	; 0x3000
    606c:	081005c0 	ldmdaeq	r0, {r6, r7, r8, sl}
    6070:	0300000c 	movweq	r0, #12
    6074:	248302ab 	strcs	r0, [r3], #683	; 0x2ab
    6078:	23030000 	movwcs	r0, #12288	; 0x3000
    607c:	121005c4 	andsne	r0, r0, #822083584	; 0x31000000
    6080:	0300000c 	movweq	r0, #12
    6084:	248802ac 	strcs	r0, [r8], #684	; 0x2ac
    6088:	23030000 	movwcs	r0, #12288	; 0x3000
    608c:	e31005c8 	tst	r0, #838860800	; 0x32000000
    6090:	0300000c 	movweq	r0, #12
    6094:	007302ad 	rsbseq	r0, r3, sp, lsr #5
    6098:	23030000 	movwcs	r0, #12288	; 0x3000
    609c:	171005cc 	ldrne	r0, [r0, -ip, asr #11]
    60a0:	0300000e 	movweq	r0, #14
    60a4:	248d02ae 	strcs	r0, [sp], #686	; 0x2ae
    60a8:	23030000 	movwcs	r0, #12288	; 0x3000
    60ac:	ff1005d0 			; <UNDEFINED> instruction: 0xff1005d0
    60b0:	0300000a 	movweq	r0, #10
    60b4:	007302af 	rsbseq	r0, r3, pc, lsr #5
    60b8:	23030000 	movwcs	r0, #12288	; 0x3000
    60bc:	931005d4 	tstls	r0, #889192448	; 0x35000000
    60c0:	03000007 	movweq	r0, #7
    60c4:	249202b0 	ldrcs	r0, [r2], #688	; 0x2b0
    60c8:	23030000 	movwcs	r0, #12288	; 0x3000
    60cc:	0a1005d8 	beq	407834 <__bss_end+0x4049ac>
    60d0:	0300000b 	movweq	r0, #11
    60d4:	24a702b1 	strtcs	r0, [r7], #689	; 0x2b1
    60d8:	23030000 	movwcs	r0, #12288	; 0x3000
    60dc:	5b1005dc 	blpl	407854 <__bss_end+0x4049cc>
    60e0:	03000004 	movweq	r0, #4
    60e4:	24ac02b2 	strtcs	r0, [ip], #690	; 0x2b2
    60e8:	23030000 	movwcs	r0, #12288	; 0x3000
    60ec:	63100680 	tstvs	r0, #134217728	; 0x8000000
    60f0:	03000004 	movweq	r0, #4
    60f4:	24ac02b3 	strtcs	r0, [ip], #691	; 0x2b3
    60f8:	23030000 	movwcs	r0, #12288	; 0x3000
    60fc:	67100684 	ldrvs	r0, [r0, -r4, lsl #13]
    6100:	0300000c 	movweq	r0, #12
    6104:	24ac02b4 	strtcs	r0, [ip], #692	; 0x2b4
    6108:	23030000 	movwcs	r0, #12288	; 0x3000
    610c:	05000688 	streq	r0, [r0, #-1672]	; 0x688
    6110:	00000160 	andeq	r0, r0, r0, ror #2
    6114:	00023305 	andeq	r3, r2, r5, lsl #6
    6118:	03280500 	teqeq	r8, #0
    611c:	1d050000 	stcne	0, cr0, [r5, #-0]
    6120:	05000004 	streq	r0, [r0, #-4]
    6124:	00000534 	andeq	r0, r0, r4, lsr r5
    6128:	00068f05 	andeq	r8, r6, r5, lsl #30
    612c:	070d0500 	streq	r0, [sp, -r0, lsl #10]
    6130:	9c050000 	stcls	0, cr0, [r5], {-0}
    6134:	05000007 	streq	r0, [r0, #-7]
    6138:	0000081a 	andeq	r0, r0, sl, lsl r8
    613c:	00085405 	andeq	r5, r8, r5, lsl #8
    6140:	0a570500 	beq	15c7548 <__bss_end+0x15c46c0>
    6144:	16050000 	strne	r0, [r5], -r0
    6148:	0500000c 	streq	r0, [r0, #-12]
    614c:	00000cd0 	ldrdeq	r0, [r0], -r0	; <UNPREDICTABLE>
    6150:	000dc205 	andeq	ip, sp, r5, lsl #4
    6154:	00880500 	addeq	r0, r8, r0, lsl #10
    6158:	a2050000 	andge	r0, r5, #0
    615c:	0500000e 	streq	r0, [r0, #-14]
    6160:	00000f04 	andeq	r0, r0, r4, lsl #30
    6164:	00007805 	andeq	r7, r0, r5, lsl #16
    6168:	00780500 	rsbseq	r0, r8, r0, lsl #10
    616c:	34050000 	strcc	r0, [r5], #-0
    6170:	05000010 	streq	r0, [r0, #-16]
    6174:	000010ba 	strheq	r1, [r0], -sl
    6178:	00005306 	andeq	r5, r0, r6, lsl #6
    617c:	0023c500 	eoreq	ip, r3, r0, lsl #10
    6180:	005e0700 	subseq	r0, lr, r0, lsl #14
    6184:	00060000 	andeq	r0, r6, r0
    6188:	0023b505 	eoreq	fp, r3, r5, lsl #10
    618c:	11760500 	cmnne	r6, r0, lsl #10
    6190:	78050000 	stmdavc	r5, {}	; <UNPREDICTABLE>
    6194:	05000000 	streq	r0, [r0, #-0]
    6198:	000012ad 	andeq	r1, r0, sp, lsr #5
    619c:	00132105 	andseq	r2, r3, r5, lsl #2
    61a0:	00530600 	subseq	r0, r3, r0, lsl #12
    61a4:	23ee0000 	mvncs	r0, #0
    61a8:	5e070000 	cdppl	0, 0, cr0, cr7, cr0, {0}
    61ac:	02000000 	andeq	r0, r0, #0
    61b0:	23de0500 	bicscs	r0, lr, #0
    61b4:	ef050000 	svc	0x00050000
    61b8:	05000013 	streq	r0, [r0, #-19]
    61bc:	00001451 	andeq	r1, r0, r1, asr r4
    61c0:	000f4205 	andeq	r4, pc, r5, lsl #4
    61c4:	14d70500 	ldrbne	r0, [r7], #1280	; 0x500
    61c8:	a5050000 	strge	r0, [r5, #-0]
    61cc:	05000015 	streq	r0, [r0, #-21]
    61d0:	00000088 	andeq	r0, r0, r8, lsl #1
    61d4:	00008805 	andeq	r8, r0, r5, lsl #16
    61d8:	00530600 	subseq	r0, r3, r0, lsl #12
    61dc:	24260000 	strtcs	r0, [r6], #-0
    61e0:	5e070000 	cdppl	0, 0, cr0, cr7, cr0, {0}
    61e4:	14000000 	strne	r0, [r0], #-0
    61e8:	24160500 	ldrcs	r0, [r6], #-1280	; 0x500
    61ec:	e3050000 	movw	r0, #20480	; 0x5000
    61f0:	06000015 			; <UNDEFINED> instruction: 0x06000015
    61f4:	00000053 	andeq	r0, r0, r3, asr r0
    61f8:	00002440 	andeq	r2, r0, r0, asr #8
    61fc:	00005e07 	andeq	r5, r0, r7, lsl #28
    6200:	05000500 	streq	r0, [r0, #-1280]	; 0x500
    6204:	00002430 	andeq	r2, r0, r0, lsr r4
    6208:	00005306 	andeq	r5, r0, r6, lsl #6
    620c:	00245500 	eoreq	r5, r4, r0, lsl #10
    6210:	005e0700 	subseq	r0, lr, r0, lsl #14
    6214:	000a0000 	andeq	r0, sl, r0
    6218:	00244505 	eoreq	r4, r4, r5, lsl #10
    621c:	23de0500 	bicscs	r0, lr, #0
    6220:	de050000 	cdple	0, 0, cr0, cr5, cr0, {0}
    6224:	05000023 	streq	r0, [r0, #-35]	; 0x23
    6228:	000023de 	ldrdeq	r2, [r0], -lr
    622c:	00005306 	andeq	r5, r0, r6, lsl #6
    6230:	00247900 	eoreq	r7, r4, r0, lsl #18
    6234:	005e0700 	subseq	r0, lr, r0, lsl #14
    6238:	000f0000 	andeq	r0, pc, r0
    623c:	00246905 	eoreq	r6, r4, r5, lsl #18
    6240:	18050500 	stmdane	r5, {r8, sl}
    6244:	df050000 	svcle	0x00050000
    6248:	05000019 	streq	r0, [r0, #-25]
    624c:	00001a1d 	andeq	r1, r0, sp, lsl sl
    6250:	001ac705 	andseq	ip, sl, r5, lsl #14
    6254:	1bb90500 	blne	fee4765c <__bss_end+0xfee447d4>
    6258:	53060000 	movwpl	r0, #24576	; 0x6000
    625c:	a7000000 	strge	r0, [r0, -r0]
    6260:	07000024 	streq	r0, [r0, -r4, lsr #32]
    6264:	0000005e 	andeq	r0, r0, lr, asr r0
    6268:	97050008 	strls	r0, [r5, -r8]
    626c:	05000024 	streq	r0, [r0, #-36]	; 0x24
    6270:	00001c63 	andeq	r1, r0, r3, ror #24
    6274:	000f570d 	andeq	r5, pc, sp, lsl #14
    6278:	02b60300 	adcseq	r0, r6, #0
    627c:	00001c6f 	andeq	r1, r0, pc, ror #24
    6280:	24b10412 	ldrtcs	r0, [r1], #1042	; 0x412
    6284:	97130000 	ldrls	r0, [r3, -r0]
    6288:	01000016 	tsteq	r0, r6, lsl r0
    628c:	00530124 	subseq	r0, r3, r4, lsr #2
    6290:	20010000 	andcs	r0, r1, r0
    6294:	14000025 	strne	r0, [r0], #-37	; 0x25
    6298:	000013e4 	andeq	r1, r0, r4, ror #7
    629c:	00532401 	subseq	r2, r3, r1, lsl #8
    62a0:	5b150000 	blpl	5462a8 <__bss_end+0x543420>
    62a4:	01000017 	tsteq	r0, r7, lsl r0
    62a8:	00005326 	andeq	r5, r0, r6, lsr #6
    62ac:	17421500 	strbne	r1, [r2, -r0, lsl #10]
    62b0:	27010000 	strcs	r0, [r1, -r0]
    62b4:	00000053 	andeq	r0, r0, r3, asr r0
    62b8:	67657216 			; <UNDEFINED> instruction: 0x67657216
    62bc:	20280100 	eorcs	r0, r8, r0, lsl #2
    62c0:	15000025 	strne	r0, [r0, #-37]	; 0x25
    62c4:	00001782 	andeq	r1, r0, r2, lsl #15
    62c8:	24bd2901 	ldrtcs	r2, [sp], #2305	; 0x901
    62cc:	a0150000 	andsge	r0, r5, r0
    62d0:	01000017 	tsteq	r0, r7, lsl r0
    62d4:	0000532a 	andeq	r5, r0, sl, lsr #6
    62d8:	00691600 	rsbeq	r1, r9, r0, lsl #12
    62dc:	00532b01 	subseq	r2, r3, r1, lsl #22
    62e0:	12000000 	andne	r0, r0, #0
    62e4:	00252604 	eoreq	r2, r5, r4, lsl #12
    62e8:	005e0500 	subseq	r0, lr, r0, lsl #10
    62ec:	cc170000 	ldcgt	0, cr0, [r7], {-0}
    62f0:	01000016 	tsteq	r0, r6, lsl r0
    62f4:	63010171 	movwvs	r0, #4465	; 0x1171
    62f8:	14000025 	strne	r0, [r0], #-37	; 0x25
    62fc:	000013e4 	andeq	r1, r0, r4, ror #7
    6300:	00537101 	subseq	r7, r3, r1, lsl #2
    6304:	a0150000 	andsge	r0, r5, r0
    6308:	01000017 	tsteq	r0, r7, lsl r0
    630c:	00005373 	andeq	r5, r0, r3, ror r3
    6310:	00691600 	rsbeq	r1, r9, r0, lsl #12
    6314:	00537401 	subseq	r7, r3, r1, lsl #8
    6318:	72160000 	andsvc	r0, r6, #0
    631c:	01006765 	tsteq	r0, r5, ror #14
    6320:	00252075 	eoreq	r2, r5, r5, ror r0
    6324:	8a170000 	bhi	5c632c <__bss_end+0x5c34a4>
    6328:	01000017 	tsteq	r0, r7, lsl r0
    632c:	7a0101a6 	bvc	469cc <__bss_end+0x43b44>
    6330:	18000025 	stmdane	r0, {r0, r2, r5}
    6334:	a6010063 	strge	r0, [r1], -r3, rrx
    6338:	0000257a 	andeq	r2, r0, sl, ror r5
    633c:	08010200 	stmdaeq	r1, {r9}
    6340:	00000081 	andeq	r0, r0, r1, lsl #1
    6344:	0016b613 	andseq	fp, r6, r3, lsl r6
    6348:	01ae0100 			; <UNDEFINED> instruction: 0x01ae0100
    634c:	0000257a 	andeq	r2, r0, sl, ror r5
    6350:	00259e01 	eoreq	r9, r5, r1, lsl #28
    6354:	16f41500 	ldrbtne	r1, [r4], r0, lsl #10
    6358:	b0010000 	andlt	r0, r1, r0
    635c:	00000053 	andeq	r0, r0, r3, asr r0
    6360:	16a61900 	strtne	r1, [r6], r0, lsl #18
    6364:	0d010000 	stceq	0, cr0, [r1, #-0]
    6368:	b7010101 	strlt	r0, [r1, -r1, lsl #2]
    636c:	1a000025 	bne	6408 <__bss_end+0x3580>
    6370:	0d010063 	stceq	0, cr0, [r1, #-396]	; 0xfffffe74
    6374:	00257a01 	eoreq	r7, r5, r1, lsl #20
    6378:	0a1b0000 	beq	6c6380 <__bss_end+0x6c34f8>
    637c:	01000017 	tsteq	r0, r7, lsl r0
    6380:	7a010116 	bvc	467e0 <__bss_end+0x43958>
    6384:	01000025 	tsteq	r0, r5, lsr #32
    6388:	000025d6 	ldrdeq	r2, [r0], -r6
    638c:	0016f41c 	andseq	pc, r6, ip, lsl r4	; <UNPREDICTABLE>
    6390:	01180100 	tsteq	r8, r0, lsl #2
    6394:	00000053 	andeq	r0, r0, r3, asr r0
    6398:	24c31d00 	strbcs	r1, [r3], #3328	; 0xd00
    639c:	11dc0000 	bicsne	r0, ip, r0
    63a0:	12f00000 	rscsne	r0, r0, #0
    63a4:	07200000 	streq	r0, [r0, -r0]!
    63a8:	26640000 	strbtcs	r0, [r4], -r0
    63ac:	d41e0000 	ldrle	r0, [lr], #-0
    63b0:	40000024 	andmi	r0, r0, r4, lsr #32
    63b4:	1f000007 	svcne	0x00000007
    63b8:	000024df 	ldrdeq	r2, [r0], -pc	; <UNPREDICTABLE>
    63bc:	0000075e 	andeq	r0, r0, lr, asr r7
    63c0:	0024ea1f 	eoreq	lr, r4, pc, lsl sl
    63c4:	00077d00 	andeq	r7, r7, r0, lsl #26
    63c8:	24f51f00 	ldrbtcs	r1, [r5], #3840	; 0xf00
    63cc:	079b0000 	ldreq	r0, [fp, r0]
    63d0:	001f0000 	andseq	r0, pc, r0
    63d4:	c3000025 	movwgt	r0, #37	; 0x25
    63d8:	20000007 	andcs	r0, r0, r7
    63dc:	0000250b 	andeq	r2, r0, fp, lsl #10
    63e0:	25162000 	ldrcs	r2, [r6, #-0]
    63e4:	21000000 	mrscs	r0, (UNDEF: 0)
    63e8:	000024c3 	andeq	r2, r0, r3, asr #9
    63ec:	0000127c 	andeq	r1, r0, ip, ror r2
    63f0:	00000000 	andeq	r0, r0, r0
    63f4:	18222401 	stmdane	r2!, {r0, sl, sp}
    63f8:	23000000 	movwcs	r0, #0
    63fc:	000024df 	ldrdeq	r2, [r0], -pc	; <UNPREDICTABLE>
    6400:	0024ea23 	eoreq	lr, r4, r3, lsr #20
    6404:	24f51f00 	ldrbtcs	r1, [r5], #3840	; 0xf00
    6408:	07e10000 	strbeq	r0, [r1, r0]!
    640c:	00230000 	eoreq	r0, r3, r0
    6410:	24000025 	strcs	r0, [r0], #-37	; 0x25
    6414:	000024d4 	ldrdeq	r2, [r0], -r4
    6418:	00250b20 	eoreq	r0, r5, r0, lsr #22
    641c:	16200000 	strtne	r0, [r0], -r0
    6420:	00000025 	andeq	r0, r0, r5, lsr #32
    6424:	25000000 	strcs	r0, [r0, #-0]
    6428:	00173001 	andseq	r3, r7, r1
    642c:	01890100 	orreq	r0, r9, r0, lsl #2
    6430:	000012f0 	strdeq	r1, [r0], -r0
    6434:	00001390 	muleq	r0, r0, r3
    6438:	00000809 	andeq	r0, r0, r9, lsl #16
    643c:	000026db 	ldrdeq	r2, [r0], -fp
    6440:	00666426 	rsbeq	r6, r6, r6, lsr #8
    6444:	00538b01 	subseq	r8, r3, r1, lsl #22
    6448:	08290000 	stmdaeq	r9!, {}	; <UNPREDICTABLE>
    644c:	6c260000 	stcvs	0, cr0, [r6], #-0
    6450:	01007263 	tsteq	r0, r3, ror #4
    6454:	0000538c 	andeq	r5, r0, ip, lsl #7
    6458:	00084000 	andeq	r4, r8, r0
    645c:	17422700 	strbne	r2, [r2, -r0, lsl #14]
    6460:	8d010000 	stchi	0, cr0, [r1, #-0]
    6464:	00000053 	andeq	r0, r0, r3, asr r0
    6468:	00000853 	andeq	r0, r0, r3, asr r8
    646c:	00252b21 	eoreq	r2, r5, r1, lsr #22
    6470:	0012f400 	andseq	pc, r2, r0, lsl #8
    6474:	00003000 	andeq	r3, r0, r0
    6478:	288f0100 	stmcs	pc, {r8}	; <UNPREDICTABLE>
    647c:	00002538 	andeq	r2, r0, r8, lsr r5
    6480:	00482200 	subeq	r2, r8, r0, lsl #4
    6484:	57290000 	strpl	r0, [r9, -r0]!
    6488:	b4000025 	strlt	r0, [r0], #-37	; 0x25
    648c:	2001c208 	andcs	ip, r1, r8, lsl #4
    6490:	00002543 	andeq	r2, r0, r3, asr #10
    6494:	254e2000 	strbcs	r2, [lr, #-0]
    6498:	00000000 	andeq	r0, r0, r0
    649c:	012a0000 	teqeq	sl, r0
    64a0:	00001685 	andeq	r1, r0, r5, lsl #13
    64a4:	4101b701 	tstmi	r1, r1, lsl #14
    64a8:	90000000 	andls	r0, r0, r0
    64ac:	20000013 	andcs	r0, r0, r3, lsl r0
    64b0:	75000014 	strvc	r0, [r0, #-20]
    64b4:	3a000008 	bcc	64dc <__bss_end+0x3654>
    64b8:	2b000027 	blcs	655c <__bss_end+0x36d4>
    64bc:	000017ea 	andeq	r1, r0, sl, ror #15
    64c0:	273ab701 	ldrcs	fp, [sl, -r1, lsl #14]!
    64c4:	08950000 	ldmeq	r5, {}	; <UNPREDICTABLE>
    64c8:	632c0000 	teqvs	ip, #0
    64cc:	b4000025 	strlt	r0, [r0], #-37	; 0x25
    64d0:	60000013 	andvs	r0, r0, r3, lsl r0
    64d4:	01000000 	mrseq	r0, (UNDEF: 0)
    64d8:	002720c5 	eoreq	r2, r7, r5, asr #1
    64dc:	25702400 	ldrbcs	r2, [r0, #-1024]!	; 0x400
    64e0:	2d000000 	stccs	0, cr0, [r0, #-0]
    64e4:	00002563 	andeq	r2, r0, r3, ror #10
    64e8:	000013d0 	ldrdeq	r1, [r0], -r0
    64ec:	000013e8 	andeq	r1, r0, r8, ror #7
    64f0:	701ec701 	andsvc	ip, lr, r1, lsl #14
    64f4:	c0000025 	andgt	r0, r0, r5, lsr #32
    64f8:	00000008 	andeq	r0, r0, r8
    64fc:	40041200 	andmi	r1, r4, r0, lsl #4
    6500:	2e000027 	cdpcs	0, 0, cr0, cr0, cr7, {1}
    6504:	0000257a 	andeq	r2, r0, sl, ror r5
    6508:	1764012a 	strbne	r0, [r4, -sl, lsr #2]!
    650c:	cd010000 	stcgt	0, cr0, [r1, #-0]
    6510:	00005301 	andeq	r5, r0, r1, lsl #6
    6514:	00142000 	andseq	r2, r4, r0
    6518:	0014ac00 	andseq	sl, r4, r0, lsl #24
    651c:	0008d300 	andeq	sp, r8, r0, lsl #6
    6520:	0027b400 	eoreq	fp, r7, r0, lsl #8
    6524:	75622f00 	strbvc	r2, [r2, #-3840]!	; 0xf00
    6528:	cd010066 	stcgt	0, cr0, [r1, #-408]	; 0xfffffe68
    652c:	000027b4 			; <UNDEFINED> instruction: 0x000027b4
    6530:	000008f3 	strdeq	r0, [r0], -r3
    6534:	01006e30 	tsteq	r0, r0, lsr lr
    6538:	000053cd 	andeq	r5, r0, sp, asr #7
    653c:	26510100 	ldrbcs	r0, [r1], -r0, lsl #2
    6540:	cf010069 	svcgt	0x00010069
    6544:	00000053 	andeq	r0, r0, r3, asr r0
    6548:	00000906 	andeq	r0, r0, r6, lsl #18
    654c:	01006331 	tsteq	r0, r1, lsr r3
    6550:	00257ad0 	ldrdeq	r7, [r5], -r0	; <UNPREDICTABLE>
    6554:	21530100 	cmpcs	r3, r0, lsl #2
    6558:	00002581 	andeq	r2, r0, r1, lsl #11
    655c:	0000144c 	andeq	r1, r0, ip, asr #8
    6560:	00000080 	andeq	r0, r0, r0, lsl #1
    6564:	a822d701 	stmdage	r2!, {r0, r8, r9, sl, ip, lr, pc}
    6568:	1f000000 	svcne	0x00000000
    656c:	00002592 	muleq	r0, r2, r5
    6570:	00000925 	andeq	r0, r0, r5, lsr #18
    6574:	12000000 	andne	r0, r0, #0
    6578:	00257a04 	eoreq	r7, r5, r4, lsl #20
    657c:	e8012500 	stmda	r1, {r8, sl, sp}
    6580:	01000016 	tsteq	r0, r6, lsl r0
    6584:	14ac01df 	strtne	r0, [ip], #479	; 0x1df
    6588:	154c0000 	strbne	r0, [ip, #-0]
    658c:	09500000 	ldmdbeq	r0, {}^	; <UNPREDICTABLE>
    6590:	28320000 	ldmdacs	r2!, {}	; <UNPREDICTABLE>
    6594:	42270000 	eormi	r0, r7, #0
    6598:	01000017 	tsteq	r0, r7, lsl r0
    659c:	000053e2 	andeq	r5, r0, r2, ror #7
    65a0:	00097000 	andeq	r7, r9, r0
    65a4:	66642600 	strbtvs	r2, [r4], -r0, lsl #12
    65a8:	53e30100 	mvnpl	r0, #0
    65ac:	92000000 	andls	r0, r0, #0
    65b0:	26000009 	strcs	r0, [r0], -r9
    65b4:	0072636c 	rsbseq	r6, r2, ip, ror #6
    65b8:	0053e401 	subseq	lr, r3, r1, lsl #8
    65bc:	09a90000 	stmibeq	r9!, {}	; <UNPREDICTABLE>
    65c0:	2b210000 	blcs	8465c8 <__bss_end+0x843740>
    65c4:	b0000025 	andlt	r0, r0, r5, lsr #32
    65c8:	d0000014 	andle	r0, r0, r4, lsl r0
    65cc:	01000000 	mrseq	r0, (UNDEF: 0)
    65d0:	253828e6 	ldrcs	r2, [r8, #-2278]!	; 0x8e6
    65d4:	22010000 	andcs	r0, r1, #0
    65d8:	000000e8 	andeq	r0, r0, r8, ror #1
    65dc:	00255732 	eoreq	r5, r5, r2, lsr r7
    65e0:	8891b400 	ldmhi	r1, {sl, ip, sp, pc}
    65e4:	43207f8e 	teqmi	r0, #568	; 0x238
    65e8:	00000025 	andeq	r0, r0, r5, lsr #32
    65ec:	00254e20 	eoreq	r4, r5, r0, lsr #28
    65f0:	00000000 	andeq	r0, r0, r0
    65f4:	a5013300 	strge	r3, [r1, #-768]	; 0x300
    65f8:	01000017 	tsteq	r0, r7, lsl r0
    65fc:	154c01fe 	strbne	r0, [ip, #-510]	; 0x1fe
    6600:	15800000 	strne	r0, [r0]
    6604:	7d020000 	stcvc	0, cr0, [r2, #-0]
    6608:	76013400 	strvc	r3, [r1], -r0, lsl #8
    660c:	01000017 	tsteq	r0, r7, lsl r0
    6610:	4101012b 	tstmi	r1, fp, lsr #2
    6614:	80000000 	andhi	r0, r0, r0
    6618:	10000015 	andne	r0, r0, r5, lsl r0
    661c:	bc000016 	stclt	0, cr0, [r0], {22}
    6620:	a9000009 	stmdbge	r0, {r0, r3}
    6624:	35000028 	strcc	r0, [r0, #-40]	; 0x28
    6628:	000017ea 	andeq	r1, r0, sl, ror #15
    662c:	3a012b01 	bcc	51238 <__bss_end+0x4e3b0>
    6630:	dc000027 	stcle	0, cr0, [r0], {39}	; 0x27
    6634:	36000009 	strcc	r0, [r0], -r9
    6638:	0000259e 	muleq	r0, lr, r5
    663c:	000015a4 	andeq	r1, r0, r4, lsr #11
    6640:	00000100 	andeq	r0, r0, r0, lsl #2
    6644:	8e013901 	cdphi	9, 0, cr3, cr1, cr1, {0}
    6648:	24000028 	strcs	r0, [r0], #-40	; 0x28
    664c:	000025ac 	andeq	r2, r0, ip, lsr #11
    6650:	259e3700 	ldrcs	r3, [lr, #1792]	; 0x700
    6654:	15c00000 	strbne	r0, [r0]
    6658:	15d80000 	ldrbne	r0, [r8]
    665c:	3b010000 	blcc	46664 <__bss_end+0x437dc>
    6660:	25ac1e01 	strcs	r1, [ip, #3585]!	; 0xe01
    6664:	0a070000 	beq	1c666c <__bss_end+0x1c37e4>
    6668:	00000000 	andeq	r0, r0, r0
    666c:	16dc0134 			; <UNDEFINED> instruction: 0x16dc0134
    6670:	42010000 	andmi	r0, r1, #0
    6674:	00530101 	subseq	r0, r3, r1, lsl #2
    6678:	16100000 	ldrne	r0, [r0], -r0
    667c:	169c0000 	ldrne	r0, [ip], r0
    6680:	0a1a0000 	beq	686688 <__bss_end+0x683800>
    6684:	291e0000 	ldmdbcs	lr, {}	; <UNPREDICTABLE>
    6688:	62380000 	eorsvs	r0, r8, #0
    668c:	01006675 	tsteq	r0, r5, ror r6
    6690:	27b40142 	ldrcs	r0, [r4, r2, asr #2]!
    6694:	0a3a0000 	beq	e8669c <__bss_end+0xe83814>
    6698:	6e390000 	cdpvs	0, 3, cr0, cr9, cr0, {0}
    669c:	01420100 	mrseq	r0, (UNDEF: 82)
    66a0:	00000053 	andeq	r0, r0, r3, asr r0
    66a4:	693a5101 	ldmdbvs	sl!, {r0, r8, ip, lr}
    66a8:	01440100 	mrseq	r0, (UNDEF: 84)
    66ac:	00000053 	andeq	r0, r0, r3, asr r0
    66b0:	00000a4d 	andeq	r0, r0, sp, asr #20
    66b4:	0100633b 	tsteq	r0, fp, lsr r3
    66b8:	257a0145 	ldrbcs	r0, [sl, #-325]!	; 0x145
    66bc:	53010000 	movwpl	r0, #4096	; 0x1000
    66c0:	0025b73c 	eoreq	fp, r5, ip, lsr r7
    66c4:	00163c00 	andseq	r3, r6, r0, lsl #24
    66c8:	00012000 	andeq	r2, r1, r0
    66cc:	014c0100 	mrseq	r0, (UNDEF: 92)
    66d0:	00014822 	andeq	r4, r1, r2, lsr #16
    66d4:	25c91f00 	strbcs	r1, [r9, #3840]	; 0xf00
    66d8:	0a6c0000 	beq	1b066e0 <__bss_end+0x1b03858>
    66dc:	00000000 	andeq	r0, r0, r0
    66e0:	17b13d00 	ldrne	r3, [r1, r0, lsl #26]!
    66e4:	1f010000 	svcne	0x00010000
    66e8:	00000053 	andeq	r0, r0, r3, asr r0
    66ec:	2ba40305 	blcs	fe907308 <__bss_end+0xfe904480>
    66f0:	1a3d0000 	bne	f466f8 <__bss_end+0xf43870>
    66f4:	01000017 	tsteq	r0, r7, lsl r0
    66f8:	00005320 	andeq	r5, r0, r0, lsr #6
    66fc:	a8030500 	stmdage	r3, {r8, sl}
    6700:	3d00002b 	stccc	0, cr0, [r0, #-172]	; 0xffffff54
    6704:	000016f9 	strdeq	r1, [r0], -r9
    6708:	00532101 	subseq	r2, r3, r1, lsl #2
    670c:	03050000 	movweq	r0, #20480	; 0x5000
    6710:	00002bac 	andeq	r2, r0, ip, lsr #23
    6714:	0017483d 	andseq	r4, r7, sp, lsr r8
    6718:	53220100 	teqpl	r2, #0
    671c:	05000000 	streq	r0, [r0, #-0]
    6720:	002bb003 	eoreq	fp, fp, r3
    6724:	097f0000 	ldmdbeq	pc!, {}^	; <UNPREDICTABLE>
    6728:	00020000 	andeq	r0, r2, r0
    672c:	00000c36 	andeq	r0, r0, r6, lsr ip
    6730:	009a0104 	addseq	r0, sl, r4, lsl #2
    6734:	91010000 	mrsls	r0, (UNDEF: 1)
    6738:	bc000018 	stclt	0, cr0, [r0], {24}
    673c:	9c000000 	stcls	0, cr0, [r0], {-0}
    6740:	00000016 	andeq	r0, r0, r6, lsl r0
    6744:	8b000020 	blhi	67cc <__bss_end+0x3944>
    6748:	0200000a 	andeq	r0, r0, #10
    674c:	007a0601 	rsbseq	r0, sl, r1, lsl #12
    6750:	01020000 	mrseq	r0, (UNDEF: 2)
    6754:	00007808 	andeq	r7, r0, r8, lsl #16
    6758:	05020200 	streq	r0, [r2, #-512]	; 0x200
    675c:	00000090 	muleq	r0, r0, r0
    6760:	2e070202 	cdpcs	2, 0, cr0, cr7, cr2, {0}
    6764:	03000001 	movweq	r0, #1
    6768:	00000239 	andeq	r0, r0, r9, lsr r2
    676c:	004c1202 	subeq	r1, ip, r2, lsl #4
    6770:	04040000 	streq	r0, [r4], #-0
    6774:	746e6905 	strbtvc	r6, [lr], #-2309	; 0x905
    6778:	07040200 	streq	r0, [r4, -r0, lsl #4]
    677c:	000001a6 	andeq	r0, r0, r6, lsr #3
    6780:	86050802 	strhi	r0, [r5], -r2, lsl #16
    6784:	02000001 	andeq	r0, r0, #1
    6788:	019c0708 	orrseq	r0, ip, r8, lsl #14
    678c:	d8030000 	stmdale	r3, {}	; <UNPREDICTABLE>
    6790:	02000017 	andeq	r0, r0, #23
    6794:	00005318 	andeq	r5, r0, r8, lsl r3
    6798:	03040500 	movweq	r0, #17664	; 0x4500
    679c:	00001807 	andeq	r1, r0, r7, lsl #16
    67a0:	00802803 	addeq	r2, r0, r3, lsl #16
    67a4:	16060000 	strne	r0, [r6], -r0
    67a8:	04000018 	streq	r0, [r0], #-24
    67ac:	009a0004 	addseq	r0, sl, r4
    67b0:	63070000 	movwvs	r0, #28672	; 0x7000
    67b4:	73000018 	movwvc	r0, #24
    67b8:	02000000 	andeq	r0, r0, #0
    67bc:	00010023 	andeq	r0, r1, r3, lsr #32
    67c0:	00181803 	andseq	r1, r8, r3, lsl #16
    67c4:	75660300 	strbvc	r0, [r6, #-768]!	; 0x300
    67c8:	08000000 	stmdaeq	r0, {}	; <UNPREDICTABLE>
    67cc:	00185c01 	andseq	r5, r8, r1, lsl #24
    67d0:	01270100 	teqeq	r7, r0, lsl #2
    67d4:	00000068 	andeq	r0, r0, r8, rrx
    67d8:	0000cb01 	andeq	ip, r0, r1, lsl #22
    67dc:	00730900 	rsbseq	r0, r3, r0, lsl #18
    67e0:	00cb2701 	sbceq	r2, fp, r1, lsl #14
    67e4:	730a0000 	movwvc	r0, #40960	; 0xa000
    67e8:	29010063 	stmdbcs	r1, {r0, r1, r5, r6}
    67ec:	000000cb 	andeq	r0, r0, fp, asr #1
    67f0:	d1040b00 	tstle	r4, r0, lsl #22
    67f4:	0c000000 	stceq	0, cr0, [r0], {-0}
    67f8:	000000d6 	ldrdeq	r0, [r0], -r6
    67fc:	81080102 	tsthi	r8, r2, lsl #2
    6800:	08000000 	stmdaeq	r0, {}	; <UNPREDICTABLE>
    6804:	00182c01 	andseq	r2, r8, r1, lsl #24
    6808:	01380100 	teqeq	r8, r0, lsl #2
    680c:	00000111 	andeq	r0, r0, r1, lsl r1
    6810:	00011101 	andeq	r1, r1, r1, lsl #2
    6814:	18480d00 	stmdane	r8, {r8, sl, fp}^
    6818:	38010000 	stmdacc	r1, {}	; <UNPREDICTABLE>
    681c:	00000111 	andeq	r0, r0, r1, lsl r1
    6820:	63727309 	cmnvs	r2, #603979776	; 0x24000000
    6824:	cb380100 	blgt	e06c2c <__bss_end+0xe03da4>
    6828:	0a000000 	beq	6830 <__bss_end+0x39a8>
    682c:	00706d74 	rsbseq	r6, r0, r4, ror sp
    6830:	01113a01 	tsteq	r1, r1, lsl #20
    6834:	0b000000 	bleq	683c <__bss_end+0x39b4>
    6838:	0000d604 	andeq	sp, r0, r4, lsl #12
    683c:	00a50e00 	adceq	r0, r5, r0, lsl #28
    6840:	169c0000 	ldrne	r0, [ip], r0
    6844:	16c80000 	strbne	r0, [r8], r0
    6848:	7d020000 	stcvc	0, cr0, [r2, #-0]
    684c:	00013e00 	andeq	r3, r1, r0, lsl #28
    6850:	00b70f00 	adcseq	r0, r7, r0, lsl #30
    6854:	0a970000 	beq	fe5c685c <__bss_end+0xfe5c39d4>
    6858:	c0100000 	andsgt	r0, r0, r0
    685c:	c0000000 	andgt	r0, r0, r0
    6860:	0000000a 	andeq	r0, r0, sl
    6864:	0000dd0e 	andeq	sp, r0, lr, lsl #26
    6868:	0016c800 	andseq	ip, r6, r0, lsl #16
    686c:	0016e400 	andseq	lr, r6, r0, lsl #8
    6870:	007d0200 	rsbseq	r0, sp, r0, lsl #4
    6874:	0000016c 	andeq	r0, r0, ip, ror #2
    6878:	0000ef0f 	andeq	lr, r0, pc, lsl #30
    687c:	000af600 	andeq	pc, sl, r0, lsl #12
    6880:	00fa0f00 	rscseq	r0, sl, r0, lsl #30
    6884:	0b140000 	bleq	50688c <__bss_end+0x503a04>
    6888:	05110000 	ldreq	r0, [r1, #-0]
    688c:	01000001 	tsteq	r0, r1
    6890:	01120050 	tsteq	r2, r0, asr r0
    6894:	0000183f 	andeq	r1, r0, pc, lsr r8
    6898:	11014401 	tstne	r1, r1, lsl #8
    689c:	e4000001 	str	r0, [r0], #-1
    68a0:	0c000016 	stceq	0, cr0, [r0], {22}
    68a4:	02000017 	andeq	r0, r0, #23
    68a8:	01c3007d 	biceq	r0, r3, sp, ror r0
    68ac:	48130000 	ldmdami	r3, {}	; <UNPREDICTABLE>
    68b0:	01000018 	tsteq	r0, r8, lsl r0
    68b4:	00011144 	andeq	r1, r1, r4, asr #2
    68b8:	000b3400 	andeq	r3, fp, r0, lsl #8
    68bc:	72731400 	rsbsvc	r1, r3, #0
    68c0:	44010063 	strmi	r0, [r1], #-99	; 0x63
    68c4:	000000cb 	andeq	r0, r0, fp, asr #1
    68c8:	de135101 	mufles	f5, f3, f1
    68cc:	01000013 	tsteq	r0, r3, lsl r0
    68d0:	00006844 	andeq	r6, r0, r4, asr #16
    68d4:	000b5200 	andeq	r5, fp, r0, lsl #4
    68d8:	6d741500 	cfldr64vs	mvdx1, [r4, #-0]
    68dc:	46010070 			; <UNDEFINED> instruction: 0x46010070
    68e0:	00000111 	andeq	r0, r0, r1, lsl r1
    68e4:	00000b7d 	andeq	r0, r0, sp, ror fp
    68e8:	38011200 	stmdacc	r1, {r9, ip}
    68ec:	01000018 	tsteq	r0, r8, lsl r0
    68f0:	01110155 	tsteq	r1, r5, asr r1
    68f4:	170c0000 	strne	r0, [ip, -r0]
    68f8:	174c0000 	strbne	r0, [ip, -r0]
    68fc:	7d020000 	stcvc	0, cr0, [r2, #-0]
    6900:	00020b00 	andeq	r0, r2, r0, lsl #22
    6904:	18481300 	stmdane	r8, {r8, r9, ip}^
    6908:	55010000 	strpl	r0, [r1, #-0]
    690c:	00000111 	andeq	r0, r0, r1, lsl r1
    6910:	00000b90 	muleq	r0, r0, fp
    6914:	63727316 	cmnvs	r2, #1476395008	; 0x58000000
    6918:	cb550100 	blgt	1546d20 <__bss_end+0x1543e98>
    691c:	d1000000 	mrsle	r0, (UNDEF: 0)
    6920:	1700000b 	strne	r0, [r0, -fp]
    6924:	00706d74 	rsbseq	r6, r0, r4, ror sp
    6928:	01115701 	tsteq	r1, r1, lsl #14
    692c:	50010000 	andpl	r0, r1, r0
    6930:	4d011800 	stcmi	8, cr1, [r1, #-0]
    6934:	01000018 	tsteq	r0, r8, lsl r0
    6938:	01110165 	tsteq	r1, r5, ror #2
    693c:	174c0000 	strbne	r0, [ip, -r0]
    6940:	17b40000 	ldrne	r0, [r4, r0]!
    6944:	0be40000 	bleq	ff90694c <__bss_end+0xff903ac4>
    6948:	02630000 	rsbeq	r0, r3, #0
    694c:	48130000 	ldmdami	r3, {}	; <UNPREDICTABLE>
    6950:	01000018 	tsteq	r0, r8, lsl r0
    6954:	00011165 	andeq	r1, r1, r5, ror #2
    6958:	000c0400 	andeq	r0, ip, r0, lsl #8
    695c:	72731600 	rsbsvc	r1, r3, #0
    6960:	65010063 	strvs	r0, [r1, #-99]	; 0x63
    6964:	000000cb 	andeq	r0, r0, fp, asr #1
    6968:	00000c5b 	andeq	r0, r0, fp, asr ip
    696c:	0013de13 	andseq	sp, r3, r3, lsl lr
    6970:	68650100 	stmdavs	r5!, {r8}^
    6974:	7b000000 	blvc	697c <__bss_end+0x3af4>
    6978:	1700000c 	strne	r0, [r0, -ip]
    697c:	00706d74 	rsbseq	r6, r0, r4, ror sp
    6980:	01116701 	tsteq	r1, r1, lsl #14
    6984:	50010000 	andpl	r0, r1, r0
    6988:	70011200 	andvc	r1, r1, r0, lsl #4
    698c:	01000018 	tsteq	r0, r8, lsl r0
    6990:	004c017b 	subeq	r0, ip, fp, ror r1
    6994:	17b40000 	ldrne	r0, [r4, r0]!
    6998:	17e40000 	strbne	r0, [r4, r0]!
    699c:	7d020000 	stcvc	0, cr0, [r2, #-0]
    69a0:	0002b200 	andeq	fp, r2, r0, lsl #4
    69a4:	73631600 	cmnvc	r3, #0
    69a8:	cb7b0100 	blgt	1ec6db0 <__bss_end+0x1ec3f28>
    69ac:	a6000000 	strge	r0, [r0], -r0
    69b0:	1400000c 	strne	r0, [r0], #-12
    69b4:	01007463 	tsteq	r0, r3, ror #8
    69b8:	0000cb7b 	andeq	ip, r0, fp, ror fp
    69bc:	17510100 	ldrbne	r0, [r1, -r0, lsl #2]
    69c0:	01003163 	tsteq	r0, r3, ror #2
    69c4:	00002c7d 	andeq	r2, r0, sp, ror ip
    69c8:	17530100 	ldrbne	r0, [r3, -r0, lsl #2]
    69cc:	01003263 	tsteq	r0, r3, ror #4
    69d0:	00002c7d 	andeq	r2, r0, sp, ror ip
    69d4:	00520100 	subseq	r0, r2, r0, lsl #2
    69d8:	187c0112 	ldmdane	ip!, {r1, r4, r8}^
    69dc:	90010000 	andls	r0, r1, r0
    69e0:	00004c01 	andeq	r4, r0, r1, lsl #24
    69e4:	0017e400 	andseq	lr, r7, r0, lsl #8
    69e8:	00185c00 	andseq	r5, r8, r0, lsl #24
    69ec:	007d0200 	rsbseq	r0, sp, r0, lsl #4
    69f0:	00000316 	andeq	r0, r0, r6, lsl r3
    69f4:	00736316 	rsbseq	r6, r3, r6, lsl r3
    69f8:	00cb9001 	sbceq	r9, fp, r1
    69fc:	0cc40000 	stcleq	0, cr0, [r4], {0}
    6a00:	63160000 	tstvs	r6, #0
    6a04:	90010074 	andls	r0, r1, r4, ror r0
    6a08:	000000cb 	andeq	r0, r0, fp, asr #1
    6a0c:	00000cf1 	strdeq	r0, [r0], -r1
    6a10:	0013de13 	andseq	sp, r3, r3, lsl lr
    6a14:	68900100 	ldmvs	r0, {r8}
    6a18:	1e000000 	cdpne	0, 0, cr0, cr0, cr0, {0}
    6a1c:	1500000d 	strne	r0, [r0, #-13]
    6a20:	01003163 	tsteq	r0, r3, ror #2
    6a24:	00002c92 	muleq	r0, r2, ip
    6a28:	000d3100 	andeq	r3, sp, r0, lsl #2
    6a2c:	32631500 	rsbcc	r1, r3, #0
    6a30:	2c920100 	ldfcss	f0, [r2], {0}
    6a34:	5a000000 	bpl	6a3c <__bss_end+0x3bb4>
    6a38:	0000000d 	andeq	r0, r0, sp
    6a3c:	18330118 	ldmdane	r3!, {r3, r4, r8}
    6a40:	a9010000 	stmdbge	r1, {}	; <UNPREDICTABLE>
    6a44:	00011101 	andeq	r1, r1, r1, lsl #2
    6a48:	00185c00 	andseq	r5, r8, r0, lsl #24
    6a4c:	00194000 	andseq	r4, r9, r0
    6a50:	000d8300 	andeq	r8, sp, r0, lsl #6
    6a54:	0003a700 	andeq	sl, r3, r0, lsl #14
    6a58:	16161300 	ldrne	r1, [r6], -r0, lsl #6
    6a5c:	a9010000 	stmdbge	r1, {}	; <UNPREDICTABLE>
    6a60:	0000004c 	andeq	r0, r0, ip, asr #32
    6a64:	00000db0 			; <UNDEFINED> instruction: 0x00000db0
    6a68:	0017ea13 	andseq	lr, r7, r3, lsl sl
    6a6c:	11a90100 			; <UNDEFINED> instruction: 0x11a90100
    6a70:	e4000001 	str	r0, [r0], #-1
    6a74:	1300000d 	movwne	r0, #13
    6a78:	0000188b 	andeq	r1, r0, fp, lsl #17
    6a7c:	004ca901 	subeq	sl, ip, r1, lsl #18
    6a80:	0e020000 	cdpeq	0, 0, cr0, cr2, cr0, {0}
    6a84:	f1190000 			; <UNDEFINED> instruction: 0xf1190000
    6a88:	01000017 	tsteq	r0, r7, lsl r0
    6a8c:	0003a7ab 	andeq	sl, r3, fp, lsr #15
    6a90:	50910200 	addspl	r0, r1, r0, lsl #4
    6a94:	0018b01a 	andseq	fp, r8, sl, lsl r0
    6a98:	4cac0100 	stfmis	f0, [ip]
    6a9c:	20000000 	andcs	r0, r0, r0
    6aa0:	1500000e 	strne	r0, [r0, #-14]
    6aa4:	ad010069 	stcge	0, cr0, [r1, #-420]	; 0xfffffe5c
    6aa8:	0000004c 	andeq	r0, r0, ip, asr #32
    6aac:	00000e4b 	andeq	r0, r0, fp, asr #28
    6ab0:	01006a15 	tsteq	r0, r5, lsl sl
    6ab4:	00004cae 	andeq	r4, r0, lr, lsr #25
    6ab8:	000e8000 	andeq	r8, lr, r0
    6abc:	17e41900 	strbne	r1, [r4, r0, lsl #18]!
    6ac0:	af010000 	svcge	0x00010000
    6ac4:	000003b7 			; <UNDEFINED> instruction: 0x000003b7
    6ac8:	7fbc9103 	svcvc	0x00bc9103
    6acc:	00d61b00 	sbcseq	r1, r6, r0, lsl #22
    6ad0:	03b70000 			; <UNDEFINED> instruction: 0x03b70000
    6ad4:	531c0000 	tstpl	ip, #0
    6ad8:	0f000000 	svceq	0x00000000
    6adc:	00d61b00 	sbcseq	r1, r6, r0, lsl #22
    6ae0:	03c70000 	biceq	r0, r7, #0
    6ae4:	531c0000 	tstpl	ip, #0
    6ae8:	10000000 	andne	r0, r0, r0
    6aec:	77011800 	strvc	r1, [r1, -r0, lsl #16]
    6af0:	01000018 	tsteq	r0, r8, lsl r0
    6af4:	011101d8 			; <UNDEFINED> instruction: 0x011101d8
    6af8:	19400000 	stmdbne	r0, {}^	; <UNPREDICTABLE>
    6afc:	19fc0000 	ldmibne	ip!, {}^	; <UNPREDICTABLE>
    6b00:	0e9f0000 	cdpeq	0, 9, cr0, cr15, cr0, {0}
    6b04:	04490000 	strbeq	r0, [r9], #-0
    6b08:	16130000 	ldrne	r0, [r3], -r0
    6b0c:	01000016 	tsteq	r0, r6, lsl r0
    6b10:	000053d8 	ldrdeq	r5, [r0], -r8
    6b14:	000ecc00 	andeq	ip, lr, r0, lsl #24
    6b18:	17ea1300 	strbne	r1, [sl, r0, lsl #6]!
    6b1c:	d8010000 	stmdale	r1, {}	; <UNPREDICTABLE>
    6b20:	00000111 	andeq	r0, r0, r1, lsl r1
    6b24:	00000f00 	andeq	r0, r0, r0, lsl #30
    6b28:	00188b13 	andseq	r8, r8, r3, lsl fp
    6b2c:	4cd80100 	ldfmie	f0, [r8], {0}
    6b30:	1e000000 	cdpne	0, 0, cr0, cr0, cr0, {0}
    6b34:	1900000f 	stmdbne	r0, {r0, r1, r2, r3}
    6b38:	000017f1 	strdeq	r1, [r0], -r1	; <UNPREDICTABLE>
    6b3c:	03a7da01 			; <UNDEFINED> instruction: 0x03a7da01
    6b40:	91020000 	mrsls	r0, (UNDEF: 2)
    6b44:	00691550 	rsbeq	r1, r9, r0, asr r5
    6b48:	004cdb01 	subeq	sp, ip, r1, lsl #22
    6b4c:	0f3c0000 	svceq	0x003c0000
    6b50:	6a150000 	bvs	546b58 <__bss_end+0x543cd0>
    6b54:	4cdc0100 	ldfmie	f0, [ip], {0}
    6b58:	65000000 	strvs	r0, [r0, #-0]
    6b5c:	1900000f 	stmdbne	r0, {r0, r1, r2, r3}
    6b60:	000017e4 	andeq	r1, r0, r4, ror #15
    6b64:	03b7dd01 			; <UNDEFINED> instruction: 0x03b7dd01
    6b68:	91030000 	mrsls	r0, (UNDEF: 3)
    6b6c:	1d007fbc 	stcne	15, cr7, [r0, #-752]	; 0xfffffd10
    6b70:	00182001 	andseq	r2, r8, r1
    6b74:	01740100 	cmneq	r4, r0, lsl #2
    6b78:	00004101 	andeq	r4, r0, r1, lsl #2
    6b7c:	0019fc00 	andseq	pc, r9, r0, lsl #24
    6b80:	001a5800 	andseq	r5, sl, r0, lsl #16
    6b84:	000f7900 	andeq	r7, pc, r0, lsl #18
    6b88:	0004a700 	andeq	sl, r4, r0, lsl #14
    6b8c:	17ea1e00 	strbne	r1, [sl, r0, lsl #28]!
    6b90:	74010000 	strvc	r0, [r1], #-0
    6b94:	00011101 	andeq	r1, r1, r1, lsl #2
    6b98:	000fa500 	andeq	sl, pc, r0, lsl #10
    6b9c:	656c1f00 	strbvs	r1, [ip, #-3840]!	; 0xf00
    6ba0:	7401006e 	strvc	r0, [r1], #-110	; 0x6e
    6ba4:	00004101 	andeq	r4, r0, r1, lsl #2
    6ba8:	000fc300 	andeq	ip, pc, r0, lsl #6
    6bac:	18261e00 	stmdane	r6!, {r9, sl, fp, ip}
    6bb0:	74010000 	strvc	r0, [r1], #-0
    6bb4:	00004101 	andeq	r4, r0, r1, lsl #2
    6bb8:	000fd600 	andeq	sp, pc, r0, lsl #12
    6bbc:	18682000 	stmdane	r8!, {sp}^
    6bc0:	78010000 	stmdavc	r1, {}	; <UNPREDICTABLE>
    6bc4:	0003b701 	andeq	fp, r3, r1, lsl #14
    6bc8:	54910200 	ldrpl	r0, [r1], #512	; 0x200
    6bcc:	84011d00 	strhi	r1, [r1], #-3328	; 0xd00
    6bd0:	01000018 	tsteq	r0, r8, lsl r0
    6bd4:	4101010e 	tstmi	r1, lr, lsl #2
    6bd8:	58000000 	stmdapl	r0, {}	; <UNPREDICTABLE>
    6bdc:	2c00001a 	stccs	0, cr0, [r0], {26}
    6be0:	f400001d 	vst4.8	{d0-d3}, [r0 :64]!
    6be4:	2e00000f 	cdpcs	0, 0, cr0, cr0, cr15, {0}
    6be8:	1e000007 	cdpne	0, 0, cr0, cr0, cr7, {0}
    6bec:	00001855 	andeq	r1, r0, r5, asr r8
    6bf0:	cb010e01 	blgt	4a3fc <__bss_end+0x47574>
    6bf4:	2d000000 	stccs	0, cr0, [r0, #-0]
    6bf8:	21000010 	tstcs	r0, r0, lsl r0
    6bfc:	0017df20 	andseq	sp, r7, r0, lsr #30
    6c00:	01100100 	tsteq	r0, r0, lsl #2
    6c04:	0000009a 	muleq	r0, sl, r0
    6c08:	204c9102 	subcs	r9, ip, r2, lsl #2
    6c0c:	000017ea 	andeq	r1, r0, sl, ror #15
    6c10:	a7011101 	strge	r1, [r1, -r1, lsl #2]
    6c14:	03000003 	movweq	r0, #3
    6c18:	227fbc91 	rsbscs	fp, pc, #37120	; 0x9100
    6c1c:	00001847 	andeq	r1, r0, r7, asr #16
    6c20:	11011201 	tstne	r1, r1, lsl #4
    6c24:	70000001 	andvc	r0, r0, r1
    6c28:	22000010 	andcs	r0, r0, #16
    6c2c:	000017d3 	ldrdeq	r1, [r0], -r3
    6c30:	11011301 	tstne	r1, r1, lsl #6
    6c34:	e2000001 	and	r0, r0, #1
    6c38:	22000010 	andcs	r0, r0, #16
    6c3c:	00001826 	andeq	r1, r0, r6, lsr #16
    6c40:	41011401 	tstmi	r1, r1, lsl #8
    6c44:	f8000000 			; <UNDEFINED> instruction: 0xf8000000
    6c48:	23000010 	movwcs	r0, #16
    6c4c:	006e656c 	rsbeq	r6, lr, ip, ror #10
    6c50:	41011501 	tstmi	r1, r1, lsl #10
    6c54:	16000000 	strne	r0, [r0], -r0
    6c58:	24000011 	strcs	r0, [r0], #-17
    6c5c:	00000170 	andeq	r0, r0, r0, ror r1
    6c60:	000005ba 			; <UNDEFINED> instruction: 0x000005ba
    6c64:	18200125 	stmdane	r0!, {r0, r2, r5, r8}
    6c68:	32010000 	andcc	r0, r1, #0
    6c6c:	00004c01 	andeq	r4, r0, r1, lsl #24
    6c70:	05520100 	ldrbeq	r0, [r2, #-256]	; 0x100
    6c74:	00210000 	eoreq	r0, r1, r0
    6c78:	0000a526 	andeq	sl, r0, r6, lsr #10
    6c7c:	001b7800 	andseq	r7, fp, r0, lsl #16
    6c80:	001b9800 	andseq	r9, fp, r0, lsl #16
    6c84:	01460100 	mrseq	r0, (UNDEF: 86)
    6c88:	00000583 	andeq	r0, r0, r3, lsl #11
    6c8c:	0000b70f 	andeq	fp, r0, pc, lsl #14
    6c90:	00116c00 	andseq	r6, r1, r0, lsl #24
    6c94:	1b782700 	blne	1e1089c <__bss_end+0x1e0da14>
    6c98:	1b980000 	blne	fe606ca0 <__bss_end+0xfe603e18>
    6c9c:	c0100000 	andsgt	r0, r0, r0
    6ca0:	7f000000 	svcvc	0x00000000
    6ca4:	00000011 	andeq	r0, r0, r1, lsl r0
    6ca8:	00dd2800 	sbcseq	r2, sp, r0, lsl #16
    6cac:	1bb40000 	blne	fed06cb4 <__bss_end+0xfed03e2c>
    6cb0:	1bc40000 	blne	ff106cb8 <__bss_end+0xff103e30>
    6cb4:	48010000 	stmdami	r1, {}	; <UNPREDICTABLE>
    6cb8:	00fa0f01 	rscseq	r0, sl, r1, lsl #30
    6cbc:	11aa0000 			; <UNDEFINED> instruction: 0x11aa0000
    6cc0:	ef0f0000 	svc	0x000f0000
    6cc4:	bd000000 	stclt	0, cr0, [r0, #-0]
    6cc8:	27000011 	smladcs	r0, r1, r0, r0
    6ccc:	00001bb4 			; <UNDEFINED> instruction: 0x00001bb4
    6cd0:	00001bc4 	andeq	r1, r0, r4, asr #23
    6cd4:	00010510 	andeq	r0, r1, r0, lsl r5
    6cd8:	0011db00 	andseq	sp, r1, r0, lsl #22
    6cdc:	00000000 	andeq	r0, r0, r0
    6ce0:	0000dd26 	andeq	sp, r0, r6, lsr #26
    6ce4:	001be400 	andseq	lr, fp, r0, lsl #8
    6ce8:	001bf400 	andseq	pc, fp, r0, lsl #8
    6cec:	01560100 	cmpeq	r6, r0, lsl #2
    6cf0:	000005f4 	strdeq	r0, [r0], -r4
    6cf4:	0000fa0f 	andeq	pc, r0, pc, lsl #20
    6cf8:	0011ee00 	andseq	lr, r1, r0, lsl #28
    6cfc:	00ef0f00 	rsceq	r0, pc, r0, lsl #30
    6d00:	12040000 	andne	r0, r4, #0
    6d04:	e4270000 	strt	r0, [r7], #-0
    6d08:	f400001b 	vst4.8	{d0-d3}, [r0 :64], fp
    6d0c:	1000001b 	andne	r0, r0, fp, lsl r0
    6d10:	00000105 	andeq	r0, r0, r5, lsl #2
    6d14:	00001222 	andeq	r1, r0, r2, lsr #4
    6d18:	a5260000 	strge	r0, [r6, #-0]!
    6d1c:	f4000000 	vst4.8	{d0-d3}, [r0], r0
    6d20:	1400001b 	strne	r0, [r0], #-27
    6d24:	0100001c 	tsteq	r0, ip, lsl r0
    6d28:	06210157 			; <UNDEFINED> instruction: 0x06210157
    6d2c:	b7290000 	strlt	r0, [r9, -r0]!
    6d30:	27000000 	strcs	r0, [r0, -r0]
    6d34:	00001bf4 	strdeq	r1, [r0], -r4
    6d38:	00001c14 	andeq	r1, r0, r4, lsl ip
    6d3c:	0000c010 	andeq	ip, r0, r0, lsl r0
    6d40:	00123500 	andseq	r3, r2, r0, lsl #10
    6d44:	2a000000 	bcs	6d4c <__bss_end+0x3ec4>
    6d48:	00001c1c 	andeq	r1, r0, ip, lsl ip
    6d4c:	00001c84 	andeq	r1, r0, r4, lsl #25
    6d50:	000006aa 	andeq	r0, r0, sl, lsr #13
    6d54:	18200125 	stmdane	r0!, {r0, r2, r5, r8}
    6d58:	32010000 	andcc	r0, r1, #0
    6d5c:	00004c01 	andeq	r4, r0, r1, lsl #24
    6d60:	06420100 	strbeq	r0, [r2], -r0, lsl #2
    6d64:	00210000 	eoreq	r0, r1, r0
    6d68:	0000a526 	andeq	sl, r0, r6, lsr #10
    6d6c:	001c3800 	andseq	r3, ip, r0, lsl #16
    6d70:	001c5800 	andseq	r5, ip, r0, lsl #16
    6d74:	013c0100 	teqeq	ip, r0, lsl #2
    6d78:	00000673 	andeq	r0, r0, r3, ror r6
    6d7c:	0000b70f 	andeq	fp, r0, pc, lsl #14
    6d80:	00126300 	andseq	r6, r2, r0, lsl #6
    6d84:	1c382700 	ldcne	7, cr2, [r8], #-0
    6d88:	1c580000 	mrane	r0, r8, acc0
    6d8c:	c0100000 	andsgt	r0, r0, r0
    6d90:	76000000 	strvc	r0, [r0], -r0
    6d94:	00000012 	andeq	r0, r0, r2, lsl r0
    6d98:	00dd2800 	sbcseq	r2, sp, r0, lsl #16
    6d9c:	1c740000 	ldclne	0, cr0, [r4], #-0
    6da0:	1c840000 	stcne	0, cr0, [r4], {0}
    6da4:	3e010000 	cdpcc	0, 0, cr0, cr1, cr0, {0}
    6da8:	00fa0f01 	rscseq	r0, sl, r1, lsl #30
    6dac:	12a10000 	adcne	r0, r1, #0
    6db0:	ef0f0000 	svc	0x000f0000
    6db4:	b4000000 	strlt	r0, [r0], #-0
    6db8:	27000012 	smladcs	r0, r2, r0, r0
    6dbc:	00001c74 	andeq	r1, r0, r4, ror ip
    6dc0:	00001c84 	andeq	r1, r0, r4, lsl #25
    6dc4:	00010510 	andeq	r0, r1, r0, lsl r5
    6dc8:	0012d200 	andseq	sp, r2, r0, lsl #4
    6dcc:	00000000 	andeq	r0, r0, r0
    6dd0:	001cb827 	andseq	fp, ip, r7, lsr #16
    6dd4:	001d2000 	andseq	r2, sp, r0
    6dd8:	20012500 	andcs	r2, r1, r0, lsl #10
    6ddc:	01000018 	tsteq	r0, r8, lsl r0
    6de0:	004c0132 	subeq	r0, ip, r2, lsr r1
    6de4:	c7010000 	strgt	r0, [r1, -r0]
    6de8:	21000006 	tstcs	r0, r6
    6dec:	00a52600 	adceq	r2, r5, r0, lsl #12
    6df0:	1cd40000 	ldclne	0, cr0, [r4], {0}
    6df4:	1cf40000 	ldclne	0, cr0, [r4]
    6df8:	31010000 	mrscc	r0, (UNDEF: 1)
    6dfc:	0006f601 	andeq	pc, r6, r1, lsl #12
    6e00:	00b72b00 	adcseq	r2, r7, r0, lsl #22
    6e04:	56010000 	strpl	r0, [r1], -r0
    6e08:	001cd427 	andseq	sp, ip, r7, lsr #8
    6e0c:	001cf400 	andseq	pc, ip, r0, lsl #8
    6e10:	00c01000 	sbceq	r1, r0, r0
    6e14:	12e50000 	rscne	r0, r5, #0
    6e18:	00000000 	andeq	r0, r0, r0
    6e1c:	0000dd28 	andeq	sp, r0, r8, lsr #26
    6e20:	001d1000 	andseq	r1, sp, r0
    6e24:	001d2000 	andseq	r2, sp, r0
    6e28:	01330100 	teqeq	r3, r0, lsl #2
    6e2c:	0000fa0f 	andeq	pc, r0, pc, lsl #20
    6e30:	00131000 	andseq	r1, r3, r0
    6e34:	00ef0f00 	rsceq	r0, pc, r0, lsl #30
    6e38:	13230000 	teqne	r3, #0
    6e3c:	10270000 	eorne	r0, r7, r0
    6e40:	2000001d 	andcs	r0, r0, sp, lsl r0
    6e44:	1000001d 	andne	r0, r0, sp, lsl r0
    6e48:	00000105 	andeq	r0, r0, r5, lsl #2
    6e4c:	00001341 	andeq	r1, r0, r1, asr #6
    6e50:	00000000 	andeq	r0, r0, r0
    6e54:	18a3011d 	stmiane	r3!, {r0, r2, r3, r4, r8}
    6e58:	83010000 	movwhi	r0, #4096	; 0x1000
    6e5c:	00410101 	subeq	r0, r1, r1, lsl #2
    6e60:	1d2c0000 	stcne	0, cr0, [ip, #-0]
    6e64:	20000000 	andcs	r0, r0, r0
    6e68:	13540000 	cmpne	r4, #0
    6e6c:	095f0000 	ldmdbeq	pc, {}^	; <UNPREDICTABLE>
    6e70:	551e0000 	ldrpl	r0, [lr, #-0]
    6e74:	01000018 	tsteq	r0, r8, lsl r0
    6e78:	00cb0183 	sbceq	r0, fp, r3, lsl #3
    6e7c:	138d0000 	orrne	r0, sp, #0
    6e80:	20210000 	eorcs	r0, r1, r0
    6e84:	000017df 	ldrdeq	r1, [r0], -pc	; <UNPREDICTABLE>
    6e88:	9a018501 	bls	68294 <__bss_end+0x6540c>
    6e8c:	02000000 	andeq	r0, r0, #0
    6e90:	ea204c91 	b	81a0dc <__bss_end+0x817254>
    6e94:	01000017 	tsteq	r0, r7, lsl r0
    6e98:	03a70186 			; <UNDEFINED> instruction: 0x03a70186
    6e9c:	91030000 	mrsls	r0, (UNDEF: 3)
    6ea0:	47227fbc 			; <UNDEFINED> instruction: 0x47227fbc
    6ea4:	01000018 	tsteq	r0, r8, lsl r0
    6ea8:	01110187 	tsteq	r1, r7, lsl #3
    6eac:	13d00000 	bicsne	r0, r0, #0
    6eb0:	d3220000 	teqle	r2, #0
    6eb4:	01000017 	tsteq	r0, r7, lsl r0
    6eb8:	01110188 	tsteq	r1, r8, lsl #3
    6ebc:	14420000 	strbne	r0, [r2], #-0
    6ec0:	26220000 	strtcs	r0, [r2], -r0
    6ec4:	01000018 	tsteq	r0, r8, lsl r0
    6ec8:	00410189 	subeq	r0, r1, r9, lsl #3
    6ecc:	14580000 	ldrbne	r0, [r8], #-0
    6ed0:	6c230000 	stcvs	0, cr0, [r3], #-0
    6ed4:	01006e65 	tsteq	r0, r5, ror #28
    6ed8:	0041018a 	subeq	r0, r1, sl, lsl #3
    6edc:	14760000 	ldrbtne	r0, [r6], #-0
    6ee0:	a5260000 	strge	r0, [r6, #-0]!
    6ee4:	4c000000 	stcmi	0, cr0, [r0], {-0}
    6ee8:	6c00001e 	stcvs	0, cr0, [r0], {30}
    6eec:	0100001e 	tsteq	r0, lr, lsl r0
    6ef0:	07ed01bb 			; <UNDEFINED> instruction: 0x07ed01bb
    6ef4:	b70f0000 	strlt	r0, [pc, -r0]
    6ef8:	cc000000 	stcgt	0, cr0, [r0], {-0}
    6efc:	27000014 	smladcs	r0, r4, r0, r0
    6f00:	00001e4c 	andeq	r1, r0, ip, asr #28
    6f04:	00001e6c 	andeq	r1, r0, ip, ror #28
    6f08:	0000c010 	andeq	ip, r0, r0, lsl r0
    6f0c:	0014df00 	andseq	sp, r4, r0, lsl #30
    6f10:	26000000 	strcs	r0, [r0], -r0
    6f14:	000000dd 	ldrdeq	r0, [r0], -sp
    6f18:	00001e88 	andeq	r1, r0, r8, lsl #29
    6f1c:	00001e98 	muleq	r0, r8, lr
    6f20:	2701bd01 	strcs	fp, [r1, -r1, lsl #26]
    6f24:	0f000008 	svceq	0x00000008
    6f28:	000000fa 	strdeq	r0, [r0], -sl
    6f2c:	0000150a 	andeq	r1, r0, sl, lsl #10
    6f30:	0000ef0f 	andeq	lr, r0, pc, lsl #30
    6f34:	00151d00 	andseq	r1, r5, r0, lsl #26
    6f38:	1e882700 	cdpne	7, 8, cr2, cr8, cr0, {0}
    6f3c:	1e980000 	cdpne	0, 9, cr0, cr8, cr0, {0}
    6f40:	05100000 	ldreq	r0, [r0, #-0]
    6f44:	3b000001 	blcc	6f50 <__bss_end+0x40c8>
    6f48:	00000015 	andeq	r0, r0, r5, lsl r0
    6f4c:	00dd2600 	sbcseq	r2, sp, r0, lsl #12
    6f50:	1eb80000 	cdpne	0, 11, cr0, cr8, cr0, {0}
    6f54:	1ec80000 	cdpne	0, 12, cr0, cr8, cr0, {0}
    6f58:	cb010000 	blgt	46f60 <__bss_end+0x440d8>
    6f5c:	00086101 	andeq	r6, r8, r1, lsl #2
    6f60:	00fa0f00 	rscseq	r0, sl, r0, lsl #30
    6f64:	154e0000 	strbne	r0, [lr, #-0]
    6f68:	ef0f0000 	svc	0x000f0000
    6f6c:	64000000 	strvs	r0, [r0], #-0
    6f70:	27000015 	smladcs	r0, r5, r0, r0
    6f74:	00001eb8 			; <UNDEFINED> instruction: 0x00001eb8
    6f78:	00001ec8 	andeq	r1, r0, r8, asr #29
    6f7c:	00010510 	andeq	r0, r1, r0, lsl r5
    6f80:	00158200 	andseq	r8, r5, r0, lsl #4
    6f84:	26000000 	strcs	r0, [r0], -r0
    6f88:	000000a5 	andeq	r0, r0, r5, lsr #1
    6f8c:	00001ec8 	andeq	r1, r0, r8, asr #29
    6f90:	00001ee8 	andeq	r1, r0, r8, ror #29
    6f94:	8e01cc01 	cdphi	12, 0, cr12, cr1, cr1, {0}
    6f98:	29000008 	stmdbcs	r0, {r3}
    6f9c:	000000b7 	strheq	r0, [r0], -r7
    6fa0:	001ec827 	andseq	ip, lr, r7, lsr #16
    6fa4:	001ee800 	andseq	lr, lr, r0, lsl #16
    6fa8:	00c01000 	sbceq	r1, r0, r0
    6fac:	15950000 	ldrne	r0, [r5]
    6fb0:	00000000 	andeq	r0, r0, r0
    6fb4:	0000a526 	andeq	sl, r0, r6, lsr #10
    6fb8:	001f0c00 	andseq	r0, pc, r0, lsl #24
    6fbc:	001f2c00 	andseq	r2, pc, r0, lsl #24
    6fc0:	01b10100 			; <UNDEFINED> instruction: 0x01b10100
    6fc4:	000008bf 			; <UNDEFINED> instruction: 0x000008bf
    6fc8:	0000b70f 	andeq	fp, r0, pc, lsl #14
    6fcc:	0015c300 	andseq	ip, r5, r0, lsl #6
    6fd0:	1f0c2700 	svcne	0x000c2700
    6fd4:	1f2c0000 	svcne	0x002c0000
    6fd8:	c0100000 	andsgt	r0, r0, r0
    6fdc:	d6000000 	strle	r0, [r0], -r0
    6fe0:	00000015 	andeq	r0, r0, r5, lsl r0
    6fe4:	00dd2600 	sbcseq	r2, sp, r0, lsl #12
    6fe8:	1f480000 	svcne	0x00480000
    6fec:	1f580000 	svcne	0x00580000
    6ff0:	b3010000 	movwlt	r0, #4096	; 0x1000
    6ff4:	0008f901 	andeq	pc, r8, r1, lsl #18
    6ff8:	00fa0f00 	rscseq	r0, sl, r0, lsl #30
    6ffc:	16010000 	strne	r0, [r1], -r0
    7000:	ef0f0000 	svc	0x000f0000
    7004:	14000000 	strne	r0, [r0], #-0
    7008:	27000016 	smladcs	r0, r6, r0, r0
    700c:	00001f48 	andeq	r1, r0, r8, asr #30
    7010:	00001f58 	andeq	r1, r0, r8, asr pc
    7014:	00010510 	andeq	r0, r1, r0, lsl r5
    7018:	00163200 	andseq	r3, r6, r0, lsl #4
    701c:	26000000 	strcs	r0, [r0], -r0
    7020:	000000a5 	andeq	r0, r0, r5, lsr #1
    7024:	00001fa8 	andeq	r1, r0, r8, lsr #31
    7028:	00001fc8 	andeq	r1, r0, r8, asr #31
    702c:	2801a601 	stmdacs	r1, {r0, r9, sl, sp, pc}
    7030:	2b000009 	blcs	705c <__bss_end+0x41d4>
    7034:	000000b7 	strheq	r0, [r0], -r7
    7038:	a8275601 	stmdage	r7!, {r0, r9, sl, ip, lr}
    703c:	c800001f 	stmdagt	r0, {r0, r1, r2, r3, r4}
    7040:	1000001f 	andne	r0, r0, pc, lsl r0
    7044:	000000c0 	andeq	r0, r0, r0, asr #1
    7048:	00001645 	andeq	r1, r0, r5, asr #12
    704c:	dd280000 	stcle	0, cr0, [r8, #-0]
    7050:	e4000000 	str	r0, [r0], #-0
    7054:	f400001f 	vst4.8	{d0-d3}, [r0 :64]
    7058:	0100001f 	tsteq	r0, pc, lsl r0
    705c:	fa0f01a8 	blx	3c7704 <__bss_end+0x3c487c>
    7060:	70000000 	andvc	r0, r0, r0
    7064:	0f000016 	svceq	0x00000016
    7068:	000000ef 	andeq	r0, r0, pc, ror #1
    706c:	00001683 	andeq	r1, r0, r3, lsl #13
    7070:	001fe427 	andseq	lr, pc, r7, lsr #8
    7074:	001ff400 	andseq	pc, pc, r0, lsl #8
    7078:	01051000 	mrseq	r1, (UNDEF: 5)
    707c:	16a10000 	strtne	r0, [r1], r0
    7080:	00000000 	andeq	r0, r0, r0
    7084:	00d61b00 	sbcseq	r1, r6, r0, lsl #22
    7088:	096f0000 	stmdbeq	pc!, {}^	; <UNPREDICTABLE>
    708c:	531c0000 	tstpl	ip, #0
    7090:	ff000000 			; <UNDEFINED> instruction: 0xff000000
    7094:	17f72c00 	ldrbne	r2, [r7, r0, lsl #24]!
    7098:	0d010000 	stceq	0, cr0, [r1, #-0]
    709c:	00095f01 	andeq	r5, r9, r1, lsl #30
    70a0:	03050100 	movweq	r0, #20736	; 0x5100
    70a4:	00002d88 	andeq	r2, r0, r8, lsl #27
    70a8:	0000a600 	andeq	sl, r0, r0, lsl #12
    70ac:	8d000200 	sfmhi	f0, 4, [r0, #-0]
    70b0:	0400000e 	streq	r0, [r0], #-14
    70b4:	000e2e01 	andeq	r2, lr, r1, lsl #28
    70b8:	00200000 	eoreq	r0, r0, r0
    70bc:	0021dc00 	eoreq	sp, r1, r0, lsl #24
    70c0:	2e2f2e00 	cdpcs	14, 2, cr2, cr15, cr0, {0}
    70c4:	656d2f2e 	strbvs	r2, [sp, #-3886]!	; 0xf2e
    70c8:	69645f6d 	stmdbvs	r4!, {r0, r2, r3, r5, r6, r8, r9, sl, fp, ip, lr}^
    70cc:	62696c76 	rsbvs	r6, r9, #30208	; 0x7600
    70d0:	2f00532e 	svccs	0x0000532e
    70d4:	656d6f68 	strbvs	r6, [sp, #-3944]!	; 0xf68
    70d8:	6e61642f 	cdpvs	4, 6, cr6, cr1, cr15, {1}
    70dc:	2f756b67 	svccs	0x00756b67
    70e0:	7264796d 	rsbvc	r7, r4, #1785856	; 0x1b4000
    70e4:	2f64696f 	svccs	0x0064696f
    70e8:	616e6162 	cmnvs	lr, r2, ror #2
    70ec:	6950616e 	ldmdbvs	r0, {r1, r2, r3, r5, r6, r8, sp, lr}^
    70f0:	2f326d2f 	svccs	0x00326d2f
    70f4:	72756f73 	rsbsvc	r6, r5, #460	; 0x1cc
    70f8:	612f6563 	teqvs	pc, r3, ror #10
    70fc:	6f72646e 	svcvs	0x0072646e
    7100:	422f6469 	eormi	r6, pc, #1761607680	; 0x69000000
    7104:	4d2d4950 	stcmi	9, cr4, [sp, #-320]!	; 0xfffffec0
    7108:	6e412d32 	mcrvs	13, 2, r2, cr1, cr2, {1}
    710c:	696f7264 	stmdbvs	pc!, {r2, r5, r6, r9, ip, sp, lr}^	; <UNPREDICTABLE>
    7110:	342e3464 	strtcc	r3, [lr], #-1124	; 0x464
    7114:	63696c2f 	cmnvs	r9, #12032	; 0x2f00
    7118:	2f656568 	svccs	0x00656568
    711c:	756e696c 	strbvc	r6, [lr, #-2412]!	; 0x96c
    7120:	2e332d78 	mrccs	13, 1, r2, cr3, cr8, {3}
    7124:	72612f33 	rsbvc	r2, r1, #204	; 0xcc
    7128:	612f6863 	teqvs	pc, r3, ror #16
    712c:	6d2f6d72 	stcvs	13, cr6, [pc, #-456]!	; 6f6c <__bss_end+0x40e4>
    7130:	2d686361 	stclcs	3, cr6, [r8, #-388]!	; 0xfffffe7c
    7134:	366e7573 			; <UNDEFINED> instruction: 0x366e7573
    7138:	6d702f69 	ldclvs	15, cr2, [r0, #-420]!	; 0xfffffe5c
    713c:	6174732f 	cmnvs	r4, pc, lsr #6
    7140:	7962646e 	stmdbvc	r2!, {r1, r2, r3, r5, r6, sl, sp, lr}^
    7144:	554e4700 	strbpl	r4, [lr, #-1792]	; 0x700
    7148:	20534120 	subscs	r4, r3, r0, lsr #2
    714c:	32322e32 	eorscc	r2, r2, #800	; 0x320
    7150:	e8800100 	stm	r0, {r8}
    7154:	02000000 	andeq	r0, r0, #0
    7158:	000ea100 	andeq	sl, lr, r0, lsl #2
    715c:	9a010400 	bls	48164 <__bss_end+0x452dc>
    7160:	01000000 	mrseq	r0, (UNDEF: 0)
    7164:	000018de 	ldrdeq	r1, [r0], -lr
    7168:	000000bc 	strheq	r0, [r0], -ip
    716c:	000021dc 	ldrdeq	r2, [r0], -ip
    7170:	00002234 	andeq	r2, r0, r4, lsr r2
    7174:	00000ebe 			; <UNDEFINED> instruction: 0x00000ebe
    7178:	7a060102 	bvc	187588 <__bss_end+0x184700>
    717c:	02000000 	andeq	r0, r0, #0
    7180:	00780801 	rsbseq	r0, r8, r1, lsl #16
    7184:	02020000 	andeq	r0, r2, #0
    7188:	00009005 	andeq	r9, r0, r5
    718c:	07020200 	streq	r0, [r2, -r0, lsl #4]
    7190:	0000012e 	andeq	r0, r0, lr, lsr #2
    7194:	00023903 	andeq	r3, r2, r3, lsl #18
    7198:	4c120200 	lfmmi	f0, 4, [r2], {-0}
    719c:	04000000 	streq	r0, [r0], #-0
    71a0:	6e690504 	cdpvs	5, 6, cr0, cr9, cr4, {0}
    71a4:	00030074 	andeq	r0, r3, r4, ror r0
    71a8:	02000000 	andeq	r0, r0, #0
    71ac:	00005e13 	andeq	r5, r0, r3, lsl lr
    71b0:	07040200 	streq	r0, [r4, -r0, lsl #4]
    71b4:	000001a6 	andeq	r0, r0, r6, lsr #3
    71b8:	86050802 	strhi	r0, [r5], -r2, lsl #16
    71bc:	02000001 	andeq	r0, r0, #1
    71c0:	019c0708 	orrseq	r0, ip, r8, lsl #14
    71c4:	01050000 	mrseq	r0, (UNDEF: 5)
    71c8:	000018c6 	andeq	r1, r0, r6, asr #17
    71cc:	dc010501 	cfstr32le	mvfx0, [r1], {1}
    71d0:	e8000021 	stmda	r0, {r0, r5}
    71d4:	02000021 	andeq	r0, r0, #33	; 0x21
    71d8:	0106007d 	tsteq	r6, sp, ror r0
    71dc:	000018b9 			; <UNDEFINED> instruction: 0x000018b9
    71e0:	53010f01 	movwpl	r0, #7937	; 0x1f01
    71e4:	e8000000 	stmda	r0, {}	; <UNPREDICTABLE>
    71e8:	34000021 	strcc	r0, [r0], #-33	; 0x21
    71ec:	02000022 	andeq	r0, r0, #34	; 0x22
    71f0:	f107007d 			; <UNDEFINED> instruction: 0xf107007d
    71f4:	01000018 	tsteq	r0, r8, lsl r0
    71f8:	0000530f 	andeq	r5, r0, pc, lsl #6
    71fc:	0016b400 	andseq	fp, r6, r0, lsl #8
    7200:	18d50700 	ldmne	r5, {r8, r9, sl}^
    7204:	0f010000 	svceq	0x00010000
    7208:	00000053 	andeq	r0, r0, r3, asr r0
    720c:	000016c7 	andeq	r1, r0, r7, asr #13
    7210:	0018fa08 	andseq	pc, r8, r8, lsl #20
    7214:	53110100 	tstpl	r1, #0
    7218:	da000000 	ble	7220 <__bss_end+0x4398>
    721c:	08000016 	stmdaeq	r0, {r1, r2, r4}
    7220:	000018cd 	andeq	r1, r0, sp, asr #17
    7224:	00531201 	subseq	r1, r3, r1, lsl #4
    7228:	17120000 	ldrne	r0, [r2, -r0]
    722c:	01080000 	mrseq	r0, (UNDEF: 8)
    7230:	01000019 	tsteq	r0, r9, lsl r0
    7234:	00004113 	andeq	r4, r0, r3, lsl r1
    7238:	00173c00 	andseq	r3, r7, r0, lsl #24
    723c:	d5000000 	strle	r0, [r0, #-0]
    7240:	02000001 	andeq	r0, r0, #1
    7244:	000f2200 	andeq	r2, pc, r0, lsl #4
    7248:	9a010400 	bls	48250 <__bss_end+0x453c8>
    724c:	01000000 	mrseq	r0, (UNDEF: 0)
    7250:	000019e8 	andeq	r1, r0, r8, ror #19
    7254:	000000bc 	strheq	r0, [r0], -ip
    7258:	00002234 	andeq	r2, r0, r4, lsr r2
    725c:	000023c0 	andeq	r2, r0, r0, asr #7
    7260:	00000f29 	andeq	r0, r0, r9, lsr #30
    7264:	7a060102 	bvc	187674 <__bss_end+0x1847ec>
    7268:	02000000 	andeq	r0, r0, #0
    726c:	00780801 	rsbseq	r0, r8, r1, lsl #16
    7270:	02020000 	andeq	r0, r2, #0
    7274:	00009005 	andeq	r9, r0, r5
    7278:	07020200 	streq	r0, [r2, -r0, lsl #4]
    727c:	0000012e 	andeq	r0, r0, lr, lsr #2
    7280:	00023903 	andeq	r3, r2, r3, lsl #18
    7284:	4c120200 	lfmmi	f0, 4, [r2], {-0}
    7288:	04000000 	streq	r0, [r0], #-0
    728c:	6e690504 	cdpvs	5, 6, cr0, cr9, cr4, {0}
    7290:	00030074 	andeq	r0, r3, r4, ror r0
    7294:	02000000 	andeq	r0, r0, #0
    7298:	00005e13 	andeq	r5, r0, r3, lsl lr
    729c:	07040200 	streq	r0, [r4, -r0, lsl #4]
    72a0:	000001a6 	andeq	r0, r0, r6, lsr #3
    72a4:	86050802 	strhi	r0, [r5], -r2, lsl #16
    72a8:	02000001 	andeq	r0, r0, #1
    72ac:	019c0708 	orrseq	r0, ip, r8, lsl #14
    72b0:	14050000 	strne	r0, [r5], #-0
    72b4:	04000019 	streq	r0, [r0], #-25
    72b8:	00a61803 	adceq	r1, r6, r3, lsl #16
    72bc:	72060000 	andvc	r0, r6, #0
    72c0:	32000019 	andcc	r0, r0, #25
    72c4:	00198406 	andseq	r8, r9, r6, lsl #8
    72c8:	35063300 	strcc	r3, [r6, #-768]	; 0x300
    72cc:	3c000019 	stccc	0, cr0, [r0], {25}
    72d0:	0019ba06 	andseq	fp, r9, r6, lsl #20
    72d4:	96063e00 	strls	r3, [r6], -r0, lsl #28
    72d8:	c0000019 	andgt	r0, r0, r9, lsl r0
    72dc:	19520600 	ldmdbne	r2, {r9, sl}^
    72e0:	00d10000 	sbcseq	r0, r1, r0
    72e4:	00530700 	subseq	r0, r3, r0, lsl #14
    72e8:	04080000 	streq	r0, [r8], #-0
    72ec:	19650109 	stmdbne	r5!, {r0, r3, r8}^
    72f0:	28010000 	stmdacs	r1, {}	; <UNPREDICTABLE>
    72f4:	00004101 	andeq	r4, r0, r1, lsl #2
    72f8:	00223400 	eoreq	r3, r2, r0, lsl #8
    72fc:	0022c400 	eoreq	ip, r2, r0, lsl #8
    7300:	00176600 	andseq	r6, r7, r0, lsl #12
    7304:	0000d800 	andeq	sp, r0, r0, lsl #16
    7308:	00690a00 	rsbeq	r0, r9, r0, lsl #20
    730c:	00532a01 	subseq	r2, r3, r1, lsl #20
    7310:	17860000 	strne	r0, [r6, r0]
    7314:	09000000 	stmdbeq	r0, {}	; <UNPREDICTABLE>
    7318:	00190701 	andseq	r0, r9, r1, lsl #14
    731c:	015d0100 	cmpeq	sp, r0, lsl #2
    7320:	00000041 	andeq	r0, r0, r1, asr #32
    7324:	000022c4 	andeq	r2, r0, r4, asr #5
    7328:	00002318 	andeq	r2, r0, r8, lsl r3
    732c:	000017a5 	andeq	r1, r0, r5, lsr #15
    7330:	00000112 	andeq	r0, r0, r2, lsl r1
    7334:	0100690a 	tsteq	r0, sl, lsl #18
    7338:	00004c5f 	andeq	r4, r0, pc, asr ip
    733c:	0017c500 	andseq	ip, r7, r0, lsl #10
    7340:	19a80b00 	stmibne	r8!, {r8, r9, fp}
    7344:	60010000 	andvs	r0, r1, r0
    7348:	000000a6 	andeq	r0, r0, r6, lsr #1
    734c:	000017e4 	andeq	r1, r0, r4, ror #15
    7350:	d9010900 	stmdble	r1, {r8, fp}
    7354:	01000019 	tsteq	r0, r9, lsl r0
    7358:	00410177 	subeq	r0, r1, r7, ror r1
    735c:	23180000 	tstcs	r8, #0
    7360:	23700000 	cmncs	r0, #0
    7364:	180f0000 	stmdane	pc, {}	; <UNPREDICTABLE>
    7368:	015d0000 	cmpeq	sp, r0
    736c:	730c0000 	movwvc	r0, #49152	; 0xc000
    7370:	01006372 	tsteq	r0, r2, ror r3
    7374:	00007377 	andeq	r7, r0, r7, ror r3
    7378:	00182f00 	andseq	r2, r8, r0, lsl #30
    737c:	19cb0b00 	stmibne	fp, {r8, r9, fp}^
    7380:	79010000 	stmdbvc	r1, {}	; <UNPREDICTABLE>
    7384:	00000053 	andeq	r0, r0, r3, asr r0
    7388:	00001842 	andeq	r1, r0, r2, asr #16
    738c:	0019d20b 	andseq	sp, r9, fp, lsl #4
    7390:	537a0100 	cmnpl	sl, #0
    7394:	59000000 	stmdbpl	r0, {}	; <UNPREDICTABLE>
    7398:	00000018 	andeq	r0, r0, r8, lsl r0
    739c:	1927010d 	stmdbne	r7!, {r0, r2, r3, r8}
    73a0:	95010000 	strls	r0, [r1, #-0]
    73a4:	00004101 	andeq	r4, r0, r1, lsl #2
    73a8:	00237000 	eoreq	r7, r3, r0
    73ac:	0023c000 	eoreq	ip, r3, r0
    73b0:	007d0200 	rsbseq	r0, sp, r0, lsl #4
    73b4:	000001b6 			; <UNDEFINED> instruction: 0x000001b6
    73b8:	6372730c 	cmnvs	r2, #805306368	; 0x30000000
    73bc:	73950100 	orrsvc	r0, r5, #0
    73c0:	7b000000 	blvc	73c8 <__bss_end+0x4540>
    73c4:	0b000018 	bleq	742c <__bss_end+0x45a4>
    73c8:	000019b3 			; <UNDEFINED> instruction: 0x000019b3
    73cc:	00419701 	subeq	r9, r1, r1, lsl #14
    73d0:	188e0000 	stmne	lr, {}	; <UNPREDICTABLE>
    73d4:	cb0b0000 	blgt	2c73dc <__bss_end+0x2c4554>
    73d8:	01000019 	tsteq	r0, r9, lsl r0
    73dc:	00005398 	muleq	r0, r8, r3
    73e0:	0018a200 	andseq	sl, r8, r0, lsl #4
    73e4:	19d20b00 	ldmibne	r2, {r8, r9, fp}^
    73e8:	99010000 	stmdbls	r1, {}	; <UNPREDICTABLE>
    73ec:	00000053 	andeq	r0, r0, r3, asr r0
    73f0:	000018b9 			; <UNDEFINED> instruction: 0x000018b9
    73f4:	19f70e00 	ldmibne	r7!, {r9, sl, fp}^
    73f8:	1a010000 	bne	47400 <__bss_end+0x44578>
    73fc:	000000ab 	andeq	r0, r0, fp, lsr #1
    7400:	2bb40305 	blcs	fed0801c <__bss_end+0xfed05194>
    7404:	490e0000 	stmdbmi	lr, {}	; <UNPREDICTABLE>
    7408:	01000019 	tsteq	r0, r9, lsl r0
    740c:	0000ab1b 	andeq	sl, r0, fp, lsl fp
    7410:	b8030500 	stmdalt	r3, {r8, sl}
    7414:	0000002b 	andeq	r0, r0, fp, lsr #32
    7418:	000003e1 	andeq	r0, r0, r1, ror #7
    741c:	0fed0002 	svceq	0x00ed0002
    7420:	01040000 	mrseq	r0, (UNDEF: 4)
    7424:	0000009a 	muleq	r0, sl, r0
    7428:	001b9801 	andseq	r9, fp, r1, lsl #16
    742c:	0000bc00 	andeq	fp, r0, r0, lsl #24
    7430:	0023c000 	eoreq	ip, r3, r0
    7434:	00255800 	eoreq	r5, r5, r0, lsl #16
    7438:	00100400 	andseq	r0, r0, r0, lsl #8
    743c:	06010200 	streq	r0, [r1], -r0, lsl #4
    7440:	0000007a 	andeq	r0, r0, sl, ror r0
    7444:	78080102 	stmdavc	r8, {r1, r8}
    7448:	02000000 	andeq	r0, r0, #0
    744c:	00900502 	addseq	r0, r0, r2, lsl #10
    7450:	02020000 	andeq	r0, r2, #0
    7454:	00012e07 	andeq	r2, r1, r7, lsl #28
    7458:	02390300 	eorseq	r0, r9, #0
    745c:	12020000 	andne	r0, r2, #0
    7460:	0000004c 	andeq	r0, r0, ip, asr #32
    7464:	69050404 	stmdbvs	r5, {r2, sl}
    7468:	0300746e 	movweq	r7, #1134	; 0x46e
    746c:	00000000 	andeq	r0, r0, r0
    7470:	005e1302 	subseq	r1, lr, r2, lsl #6
    7474:	04020000 	streq	r0, [r2], #-0
    7478:	0001a607 	andeq	sl, r1, r7, lsl #12
    747c:	05080200 	streq	r0, [r8, #-512]	; 0x200
    7480:	00000186 	andeq	r0, r0, r6, lsl #3
    7484:	9c070802 	stcls	8, cr0, [r7], {2}
    7488:	05000001 	streq	r0, [r0, #-1]
    748c:	00001a00 	andeq	r1, r0, r0, lsl #20
    7490:	911503bc 			; <UNDEFINED> instruction: 0x911503bc
    7494:	06000002 	streq	r0, [r0], -r2
    7498:	00001c00 	andeq	r1, r0, r0, lsl #24
    749c:	02911803 	addseq	r1, r1, #196608	; 0x30000
    74a0:	23020000 	movwcs	r0, #8192	; 0x2000
    74a4:	1b110600 	blne	448cac <__bss_end+0x445e24>
    74a8:	19030000 	stmdbne	r3, {}	; <UNPREDICTABLE>
    74ac:	00000291 	muleq	r0, r1, r2
    74b0:	06042302 	streq	r2, [r4], -r2, lsl #6
    74b4:	00000e28 	andeq	r0, r0, r8, lsr #28
    74b8:	02a61a03 	adceq	r1, r6, #12288	; 0x3000
    74bc:	23020000 	movwcs	r0, #8192	; 0x2000
    74c0:	1af10608 	bne	ffc48ce8 <__bss_end+0xffc45e60>
    74c4:	1c030000 	stcne	0, cr0, [r3], {-0}
    74c8:	00000291 	muleq	r0, r1, r2
    74cc:	06102302 	ldreq	r2, [r0], -r2, lsl #6
    74d0:	00001a49 	andeq	r1, r0, r9, asr #20
    74d4:	02911d03 	addseq	r1, r1, #192	; 0xc0
    74d8:	23020000 	movwcs	r0, #8192	; 0x2000
    74dc:	1a9b0614 	bne	fe6c8d34 <__bss_end+0xfe6c5eac>
    74e0:	1e030000 	cdpne	0, 0, cr0, cr3, cr0, {0}
    74e4:	00000291 	muleq	r0, r1, r2
    74e8:	06182302 	ldreq	r2, [r8], -r2, lsl #6
    74ec:	00000e32 	andeq	r0, r0, r2, lsr lr
    74f0:	02911f03 	addseq	r1, r1, #12
    74f4:	23020000 	movwcs	r0, #8192	; 0x2000
    74f8:	1b51061c 	blne	1448d70 <__bss_end+0x1445ee8>
    74fc:	21030000 	mrscs	r0, (UNDEF: 3)
    7500:	00000291 	muleq	r0, r1, r2
    7504:	06202302 	strteq	r2, [r0], -r2, lsl #6
    7508:	00001a6c 	andeq	r1, r0, ip, ror #20
    750c:	02912203 	addseq	r2, r1, #805306368	; 0x30000000
    7510:	23020000 	movwcs	r0, #8192	; 0x2000
    7514:	1ae60624 	bne	ff988dac <__bss_end+0xff985f24>
    7518:	23030000 	movwcs	r0, #12288	; 0x3000
    751c:	00000291 	muleq	r0, r1, r2
    7520:	06282302 	strteq	r2, [r8], -r2, lsl #6
    7524:	00000e3c 	andeq	r0, r0, ip, lsr lr
    7528:	02912403 	addseq	r2, r1, #50331648	; 0x3000000
    752c:	23020000 	movwcs	r0, #8192	; 0x2000
    7530:	1bdc062c 	blne	ff708de8 <__bss_end+0xff705f60>
    7534:	26030000 	strcs	r0, [r3], -r0
    7538:	00000291 	muleq	r0, r1, r2
    753c:	06302302 	ldrteq	r2, [r0], -r2, lsl #6
    7540:	00001adb 	ldrdeq	r1, [r0], -fp
    7544:	02912703 	addseq	r2, r1, #786432	; 0xc0000
    7548:	23020000 	movwcs	r0, #8192	; 0x2000
    754c:	1b200634 	blne	808e24 <__bss_end+0x805f9c>
    7550:	28030000 	stmdacs	r3, {}	; <UNPREDICTABLE>
    7554:	00000291 	muleq	r0, r1, r2
    7558:	06382302 	ldrteq	r2, [r8], -r2, lsl #6
    755c:	00000e46 	andeq	r0, r0, r6, asr #28
    7560:	02912903 	addseq	r2, r1, #49152	; 0xc000
    7564:	23020000 	movwcs	r0, #8192	; 0x2000
    7568:	1a0e063c 	bne	388e60 <__bss_end+0x385fd8>
    756c:	2b030000 	blcs	c7574 <__bss_end+0xc46ec>
    7570:	00000291 	muleq	r0, r1, r2
    7574:	06402302 	strbeq	r2, [r0], -r2, lsl #6
    7578:	00001b06 	andeq	r1, r0, r6, lsl #22
    757c:	02912c03 	addseq	r2, r1, #768	; 0x300
    7580:	23020000 	movwcs	r0, #8192	; 0x2000
    7584:	0e500644 	cdpeq	6, 5, cr0, cr0, cr4, {2}
    7588:	2d030000 	stccs	0, cr0, [r3, #-0]
    758c:	000002ab 	andeq	r0, r0, fp, lsr #5
    7590:	06482302 	strbeq	r2, [r8], -r2, lsl #6
    7594:	00001b7d 	andeq	r1, r0, sp, ror fp
    7598:	02912f03 	addseq	r2, r1, #12
    759c:	23020000 	movwcs	r0, #8192	; 0x2000
    75a0:	1b3b0650 	blne	ec8ee8 <__bss_end+0xec6060>
    75a4:	30030000 	andcc	r0, r3, r0
    75a8:	00000291 	muleq	r0, r1, r2
    75ac:	06542302 	ldrbeq	r2, [r4], -r2, lsl #6
    75b0:	00001b85 	andeq	r1, r0, r5, lsl #23
    75b4:	02913103 	addseq	r3, r1, #-1073741824	; 0xc0000000
    75b8:	23020000 	movwcs	r0, #8192	; 0x2000
    75bc:	0e5a0658 	mrceq	6, 2, r0, cr10, cr8, {2}
    75c0:	32030000 	andcc	r0, r3, #0
    75c4:	00000291 	muleq	r0, r1, r2
    75c8:	065c2302 	ldrbeq	r2, [ip], -r2, lsl #6
    75cc:	00001b18 	andeq	r1, r0, r8, lsl fp
    75d0:	02913403 	addseq	r3, r1, #50331648	; 0x3000000
    75d4:	23020000 	movwcs	r0, #8192	; 0x2000
    75d8:	1b720660 	blne	1c88f60 <__bss_end+0x1c860d8>
    75dc:	35030000 	strcc	r0, [r3, #-0]
    75e0:	00000291 	muleq	r0, r1, r2
    75e4:	06642302 	strbteq	r2, [r4], -r2, lsl #6
    75e8:	00001bd1 	ldrdeq	r1, [r0], -r1	; <UNPREDICTABLE>
    75ec:	02913603 	addseq	r3, r1, #3145728	; 0x300000
    75f0:	23020000 	movwcs	r0, #8192	; 0x2000
    75f4:	0e640668 	cdpeq	6, 6, cr0, cr4, cr8, {3}
    75f8:	37030000 	strcc	r0, [r3, -r0]
    75fc:	000002c0 	andeq	r0, r0, r0, asr #5
    7600:	066c2302 	strbteq	r2, [ip], -r2, lsl #6
    7604:	00001bb4 			; <UNDEFINED> instruction: 0x00001bb4
    7608:	02913903 	addseq	r3, r1, #49152	; 0xc000
    760c:	23030000 	movwcs	r0, #12288	; 0x3000
    7610:	90060180 	andls	r0, r6, r0, lsl #3
    7614:	0300001b 	movweq	r0, #27
    7618:	0002913a 	andeq	r9, r2, sl, lsr r1
    761c:	84230300 	strthi	r0, [r3], #-768	; 0x300
    7620:	1be40601 	blne	ff908e2c <__bss_end+0xff905fa4>
    7624:	3b030000 	blcc	c762c <__bss_end+0xc47a4>
    7628:	00000291 	muleq	r0, r1, r2
    762c:	01882303 	orreq	r2, r8, r3, lsl #6
    7630:	001bec06 	andseq	lr, fp, r6, lsl #24
    7634:	913c0300 	teqls	ip, r0, lsl #6
    7638:	03000002 	movweq	r0, #2
    763c:	06018c23 	streq	r8, [r1], -r3, lsr #24
    7640:	00000e6e 	andeq	r0, r0, lr, ror #28
    7644:	02d53f03 	sbcseq	r3, r5, #12
    7648:	23030000 	movwcs	r0, #12288	; 0x3000
    764c:	f9060190 			; <UNDEFINED> instruction: 0xf9060190
    7650:	0300001a 	movweq	r0, #26
    7654:	00029142 	andeq	r9, r2, r2, asr #2
    7658:	a0230300 	eorge	r0, r3, r0, lsl #6
    765c:	1aa60601 	bne	fe988e68 <__bss_end+0xfe985fe0>
    7660:	43030000 	movwmi	r0, #12288	; 0x3000
    7664:	00000291 	muleq	r0, r1, r2
    7668:	01a42303 			; <UNDEFINED> instruction: 0x01a42303
    766c:	000e7806 	andeq	r7, lr, r6, lsl #16
    7670:	da440300 	ble	1108278 <__bss_end+0x11053f0>
    7674:	03000002 	movweq	r0, #2
    7678:	0601a823 	streq	sl, [r1], -r3, lsr #16
    767c:	00001a16 	andeq	r1, r0, r6, lsl sl
    7680:	02914703 	addseq	r4, r1, #786432	; 0xc0000
    7684:	23030000 	movwcs	r0, #12288	; 0x3000
    7688:	cd0601b0 	stfgts	f0, [r6, #-704]	; 0xfffffd40
    768c:	0300001a 	movweq	r0, #26
    7690:	00029148 	andeq	r9, r2, r8, asr #2
    7694:	b4230300 	strtlt	r0, [r3], #-768	; 0x300
    7698:	1a770601 	bne	1dc8ea4 <__bss_end+0x1dc601c>
    769c:	49030000 	stmdbmi	r3, {}	; <UNPREDICTABLE>
    76a0:	00000291 	muleq	r0, r1, r2
    76a4:	01b82303 			; <UNDEFINED> instruction: 0x01b82303
    76a8:	00530700 	subseq	r0, r3, r0, lsl #14
    76ac:	53080000 	movwpl	r0, #32768	; 0x8000
    76b0:	a6000000 	strge	r0, [r0], -r0
    76b4:	09000002 	stmdbeq	r0, {r1}
    76b8:	0000005e 	andeq	r0, r0, lr, asr r0
    76bc:	96070001 	strls	r0, [r7], -r1
    76c0:	07000002 	streq	r0, [r0, -r2]
    76c4:	00000296 	muleq	r0, r6, r2
    76c8:	00005308 	andeq	r5, r0, r8, lsl #6
    76cc:	0002c000 	andeq	ip, r2, r0
    76d0:	005e0900 	subseq	r0, lr, r0, lsl #18
    76d4:	00040000 	andeq	r0, r4, r0
    76d8:	0002b007 	andeq	fp, r2, r7
    76dc:	00530800 	subseq	r0, r3, r0, lsl #16
    76e0:	02d50000 	sbcseq	r0, r5, #0
    76e4:	5e090000 	cdppl	0, 0, cr0, cr9, cr0, {0}
    76e8:	03000000 	movweq	r0, #0
    76ec:	02c50700 	sbceq	r0, r5, #0
    76f0:	96070000 	strls	r0, [r7], -r0
    76f4:	03000002 	movweq	r0, #2
    76f8:	00001a39 	andeq	r1, r0, r9, lsr sl
    76fc:	00734b03 	rsbseq	r4, r3, r3, lsl #22
    7700:	010a0000 	mrseq	r0, (UNDEF: 10)
    7704:	00001a25 	andeq	r1, r0, r5, lsr #20
    7708:	41011201 	tstmi	r1, r1, lsl #4
    770c:	c0000000 	andgt	r0, r0, r0
    7710:	20000023 	andcs	r0, r0, r3, lsr #32
    7714:	02000024 	andeq	r0, r0, #36	; 0x24
    7718:	0316007d 	tsteq	r6, #125	; 0x7d
    771c:	460b0000 	strmi	r0, [fp], -r0
    7720:	0100001b 	tsteq	r0, fp, lsl r0
    7724:	00031612 	andeq	r1, r3, r2, lsl r6
    7728:	0018db00 	andseq	sp, r8, r0, lsl #22
    772c:	040c0000 	streq	r0, [ip], #-0
    7730:	000002df 	ldrdeq	r0, [r0], -pc	; <UNPREDICTABLE>
    7734:	1b2b010a 	blne	ac7b64 <__bss_end+0xac4cdc>
    7738:	30010000 	andcc	r0, r1, r0
    773c:	00004101 	andeq	r4, r0, r1, lsl #2
    7740:	00242000 	eoreq	r2, r4, r0
    7744:	00247000 	eoreq	r7, r4, r0
    7748:	007d0200 	rsbseq	r0, sp, r0, lsl #4
    774c:	00000348 	andeq	r0, r0, r8, asr #6
    7750:	001b460b 	andseq	r4, fp, fp, lsl #12
    7754:	16300100 	ldrtne	r0, [r0], -r0, lsl #2
    7758:	f9000003 			; <UNDEFINED> instruction: 0xf9000003
    775c:	00000018 	andeq	r0, r0, r8, lsl r0
    7760:	1ba7010d 	blne	fe9c7b9c <__bss_end+0xfe9c4d14>
    7764:	4a010000 	bmi	4776c <__bss_end+0x448e4>
    7768:	00004101 	andeq	r4, r0, r1, lsl #2
    776c:	00247000 	eoreq	r7, r4, r0
    7770:	0024a800 	eoreq	sl, r4, r0, lsl #16
    7774:	007d0200 	rsbseq	r0, sp, r0, lsl #4
    7778:	1bf3010d 	blne	ffcc7bb4 <__bss_end+0xffcc4d2c>
    777c:	62010000 	andvs	r0, r1, #0
    7780:	00004101 	andeq	r4, r0, r1, lsl #2
    7784:	0024a800 	eoreq	sl, r4, r0, lsl #16
    7788:	0024d000 	eoreq	sp, r4, r0
    778c:	007d0200 	rsbseq	r0, sp, r0, lsl #4
    7790:	1a54010e 	bne	1507bd0 <__bss_end+0x1504d48>
    7794:	7a010000 	bvc	4779c <__bss_end+0x44914>
    7798:	0024d001 	eoreq	sp, r4, r1
    779c:	00251800 	eoreq	r1, r5, r0, lsl #16
    77a0:	007d0200 	rsbseq	r0, sp, r0, lsl #4
    77a4:	1b59010e 	blne	1647be4 <__bss_end+0x1644d5c>
    77a8:	9b010000 	blls	477b0 <__bss_end+0x44928>
    77ac:	00251801 	eoreq	r1, r5, r1, lsl #16
    77b0:	00255800 	eoreq	r5, r5, r0, lsl #16
    77b4:	007d0200 	rsbseq	r0, sp, r0, lsl #4
    77b8:	001a320f 	andseq	r3, sl, pc, lsl #4
    77bc:	16040100 	strne	r0, [r4], -r0, lsl #2
    77c0:	05000003 	streq	r0, [r0, #-3]
    77c4:	002bbc03 	eoreq	fp, fp, r3, lsl #24
    77c8:	1ab40f00 	bne	fed0b3d0 <__bss_end+0xfed08548>
    77cc:	05010000 	streq	r0, [r1, #-0]
    77d0:	00000053 	andeq	r0, r0, r3, asr r0
    77d4:	2bc00305 	blcs	ff0083f0 <__bss_end+0xff005568>
    77d8:	bb0f0000 	bllt	3c77e0 <__bss_end+0x3c4958>
    77dc:	0100001b 	tsteq	r0, fp, lsl r0
    77e0:	00005305 	andeq	r5, r0, r5, lsl #6
    77e4:	c4030500 	strgt	r0, [r3], #-1280	; 0x500
    77e8:	0f00002b 	svceq	0x0000002b
    77ec:	00001a86 	andeq	r1, r0, r6, lsl #21
    77f0:	00530501 	subseq	r0, r3, r1, lsl #10
    77f4:	03050000 	movweq	r0, #20480	; 0x5000
    77f8:	00002bc8 	andeq	r2, r0, r8, asr #23
    77fc:	00277700 	eoreq	r7, r7, r0, lsl #14
    7800:	c7000200 	strgt	r0, [r0, -r0, lsl #4]
    7804:	04000010 	streq	r0, [r0], #-16
    7808:	00009a01 	andeq	r9, r0, r1, lsl #20
    780c:	1ca70100 	stfnes	f0, [r7]
    7810:	00bc0000 	adcseq	r0, ip, r0
    7814:	25580000 	ldrbcs	r0, [r8, #-0]
    7818:	28740000 	ldmdacs	r4!, {}^	; <UNPREDICTABLE>
    781c:	10b00000 	adcsne	r0, r0, r0
    7820:	01020000 	mrseq	r0, (UNDEF: 2)
    7824:	00007a06 	andeq	r7, r0, r6, lsl #20
    7828:	00060300 	andeq	r0, r6, r0, lsl #6
    782c:	0f020000 	svceq	0x00020000
    7830:	00000037 	andeq	r0, r0, r7, lsr r0
    7834:	78080102 	stmdavc	r8, {r1, r8}
    7838:	02000000 	andeq	r0, r0, #0
    783c:	00900502 	addseq	r0, r0, r2, lsl #10
    7840:	02020000 	andeq	r0, r2, #0
    7844:	00012e07 	andeq	r2, r1, r7, lsl #28
    7848:	02390300 	eorseq	r0, r9, #0
    784c:	12020000 	andne	r0, r2, #0
    7850:	00000057 	andeq	r0, r0, r7, asr r0
    7854:	69050404 	stmdbvs	r5, {r2, sl}
    7858:	0300746e 	movweq	r7, #1134	; 0x46e
    785c:	00000000 	andeq	r0, r0, r0
    7860:	00691302 	rsbeq	r1, r9, r2, lsl #6
    7864:	04020000 	streq	r0, [r2], #-0
    7868:	0001a607 	andeq	sl, r1, r7, lsl #12
    786c:	05080200 	streq	r0, [r8, #-512]	; 0x200
    7870:	00000186 	andeq	r0, r0, r6, lsl #3
    7874:	9c070802 	stcls	8, cr0, [r7], {2}
    7878:	05000001 	streq	r0, [r0, #-1]
    787c:	0000005e 	andeq	r0, r0, lr, asr r0
    7880:	00005e06 	andeq	r5, r0, r6, lsl #28
    7884:	00009300 	andeq	r9, r0, r0, lsl #6
    7888:	00690700 	rsbeq	r0, r9, r0, lsl #14
    788c:	00010000 	andeq	r0, r1, r0
    7890:	00005e06 	andeq	r5, r0, r6, lsl #28
    7894:	0000a300 	andeq	sl, r0, r0, lsl #6
    7898:	00690700 	rsbeq	r0, r9, r0, lsl #14
    789c:	00030000 	andeq	r0, r3, r0
    78a0:	00044608 	andeq	r4, r4, r8, lsl #12
    78a4:	19030400 	stmdbne	r3, {sl}
    78a8:	0000016b 	andeq	r0, r0, fp, ror #2
    78ac:	00069309 	andeq	r9, r6, r9, lsl #6
    78b0:	5e1b0300 	cdppl	3, 1, cr0, cr11, cr0, {0}
    78b4:	04000000 	streq	r0, [r0], #-0
    78b8:	23021e02 	movwcs	r1, #11778	; 0x2e02
    78bc:	0e280900 	cdpeq	9, 2, cr0, cr8, cr0, {0}
    78c0:	1c030000 	stcne	0, cr0, [r3], {-0}
    78c4:	0000005e 	andeq	r0, r0, lr, asr r0
    78c8:	021c0204 	andseq	r0, ip, #1073741824	; 0x40000000
    78cc:	8b090023 	blhi	247960 <__bss_end+0x244ad8>
    78d0:	03000006 	movweq	r0, #6
    78d4:	00005e1d 	andeq	r5, r0, sp, lsl lr
    78d8:	1a020400 	bne	888e0 <__bss_end+0x85a58>
    78dc:	09002302 	stmdbeq	r0, {r1, r8, r9, sp}
    78e0:	00000e32 	andeq	r0, r0, r2, lsr lr
    78e4:	005e1e03 	subseq	r1, lr, r3, lsl #28
    78e8:	02040000 	andeq	r0, r4, #0
    78ec:	00230218 	eoreq	r0, r3, r8, lsl r2
    78f0:	00069b09 	andeq	r9, r6, r9, lsl #22
    78f4:	5e1f0300 	cdppl	3, 1, cr0, cr15, cr0, {0}
    78f8:	04000000 	streq	r0, [r0], #-0
    78fc:	23021305 	movwcs	r1, #8965	; 0x2305
    7900:	0e3c0900 	cdpeq	9, 3, cr0, cr12, cr0, {0}
    7904:	20030000 	andcs	r0, r3, r0
    7908:	0000005e 	andeq	r0, r0, lr, asr r0
    790c:	02080b04 	andeq	r0, r8, #4096	; 0x1000
    7910:	32090023 	andcc	r0, r9, #35	; 0x23
    7914:	0300000a 	movweq	r0, #10
    7918:	00005e21 	andeq	r5, r0, r1, lsr #28
    791c:	07010400 	streq	r0, [r1, -r0, lsl #8]
    7920:	09002302 	stmdbeq	r0, {r1, r8, r9, sp}
    7924:	00000e46 	andeq	r0, r0, r6, asr #28
    7928:	005e2203 	subseq	r2, lr, r3, lsl #4
    792c:	03040000 	movweq	r0, #16384	; 0x4000
    7930:	00230204 	eoreq	r0, r3, r4, lsl #4
    7934:	000c6209 	andeq	r6, ip, r9, lsl #4
    7938:	5e230300 	cdppl	3, 2, cr0, cr3, cr0, {0}
    793c:	04000000 	streq	r0, [r0], #-0
    7940:	23020301 	movwcs	r0, #8961	; 0x2301
    7944:	0e500900 	cdpeq	9, 5, cr0, cr0, cr0, {0}
    7948:	24030000 	strcs	r0, [r3], #-0
    794c:	0000005e 	andeq	r0, r0, lr, asr r0
    7950:	02010204 	andeq	r0, r1, #1073741824	; 0x40000000
    7954:	bd090023 	stclt	0, cr0, [r9, #-140]	; 0xffffff74
    7958:	0300000d 	movweq	r0, #13
    795c:	00005e25 	andeq	r5, r0, r5, lsr #28
    7960:	00010400 	andeq	r0, r1, r0, lsl #8
    7964:	00002302 	andeq	r2, r0, r2, lsl #6
    7968:	000dc303 	andeq	ip, sp, r3, lsl #6
    796c:	a3270300 	teqge	r7, #0
    7970:	08000000 	stmdaeq	r0, {}	; <UNPREDICTABLE>
    7974:	00000dd9 	ldrdeq	r0, [r0], -r9
    7978:	3e2a0304 	cdpcc	3, 2, cr0, cr10, cr4, {0}
    797c:	09000002 	stmdbeq	r0, {r1}
    7980:	00000693 	muleq	r0, r3, r6
    7984:	005e2c03 	subseq	r2, lr, r3, lsl #24
    7988:	05040000 	streq	r0, [r4, #-0]
    798c:	0023021b 	eoreq	r0, r3, fp, lsl r2
    7990:	000e2809 	andeq	r2, lr, r9, lsl #16
    7994:	5e2d0300 	cdppl	3, 2, cr0, cr13, cr0, {0}
    7998:	04000000 	streq	r0, [r0], #-0
    799c:	23021803 	movwcs	r1, #10243	; 0x2803
    79a0:	069b0900 	ldreq	r0, [fp], r0, lsl #18
    79a4:	2e030000 	cdpcs	0, 0, cr0, cr3, cr0, {0}
    79a8:	0000005e 	andeq	r0, r0, lr, asr r0
    79ac:	02110704 	andseq	r0, r1, #1048576	; 0x100000
    79b0:	32090023 	andcc	r0, r9, #35	; 0x23
    79b4:	0300000e 	movweq	r0, #14
    79b8:	00005e2f 	andeq	r5, r0, pc, lsr #28
    79bc:	10010400 	andne	r0, r1, r0, lsl #8
    79c0:	09002302 	stmdbeq	r0, {r1, r8, r9, sp}
    79c4:	000006ab 	andeq	r0, r0, fp, lsr #13
    79c8:	005e3003 	subseq	r3, lr, r3
    79cc:	04040000 	streq	r0, [r4], #-0
    79d0:	0023020c 	eoreq	r0, r3, ip, lsl #4
    79d4:	000e3c09 	andeq	r3, lr, r9, lsl #24
    79d8:	5e310300 	cdppl	3, 3, cr0, cr1, cr0, {0}
    79dc:	04000000 	streq	r0, [r0], #-0
    79e0:	23020804 	movwcs	r0, #10244	; 0x2804
    79e4:	0c270900 	stceq	9, cr0, [r7], #-0
    79e8:	32030000 	andcc	r0, r3, #0
    79ec:	0000005e 	andeq	r0, r0, lr, asr r0
    79f0:	02070104 	andeq	r0, r7, #1
    79f4:	46090023 	strmi	r0, [r9], -r3, lsr #32
    79f8:	0300000e 	movweq	r0, #14
    79fc:	00005e33 	andeq	r5, r0, r3, lsr lr
    7a00:	04030400 	streq	r0, [r3], #-1024	; 0x400
    7a04:	09002302 	stmdbeq	r0, {r1, r8, r9, sp}
    7a08:	00000c62 	andeq	r0, r0, r2, ror #24
    7a0c:	005e3403 	subseq	r3, lr, r3, lsl #8
    7a10:	01040000 	mrseq	r0, (UNDEF: 4)
    7a14:	00230203 	eoreq	r0, r3, r3, lsl #4
    7a18:	000e5009 	andeq	r5, lr, r9
    7a1c:	5e350300 	cdppl	3, 3, cr0, cr5, cr0, {0}
    7a20:	04000000 	streq	r0, [r0], #-0
    7a24:	23020102 	movwcs	r0, #8450	; 0x2102
    7a28:	0dbd0900 	ldceq	9, cr0, [sp]
    7a2c:	36030000 	strcc	r0, [r3], -r0
    7a30:	0000005e 	andeq	r0, r0, lr, asr r0
    7a34:	02000104 	andeq	r0, r0, #1
    7a38:	03000023 	movweq	r0, #35	; 0x23
    7a3c:	00000cb5 			; <UNDEFINED> instruction: 0x00000cb5
    7a40:	01763703 	cmneq	r6, r3, lsl #14
    7a44:	48080000 	stmdami	r8, {}	; <UNPREDICTABLE>
    7a48:	04000003 	streq	r0, [r0], #-3
    7a4c:	03333a03 	teqeq	r3, #12288	; 0x3000
    7a50:	93090000 	movwls	r0, #36864	; 0x9000
    7a54:	03000006 	movweq	r0, #6
    7a58:	00005e3c 	andeq	r5, r0, ip, lsr lr
    7a5c:	1c040400 	cfstrsne	mvf0, [r4], {-0}
    7a60:	09002302 	stmdbeq	r0, {r1, r8, r9, sp}
    7a64:	00000e28 	andeq	r0, r0, r8, lsr #28
    7a68:	005e3d03 	subseq	r3, lr, r3, lsl #26
    7a6c:	04040000 	streq	r0, [r4], #-0
    7a70:	00230218 	eoreq	r0, r3, r8, lsl r2
    7a74:	00069b09 	andeq	r9, r6, r9, lsl #22
    7a78:	5e3e0300 	cdppl	3, 3, cr0, cr14, cr0, {0}
    7a7c:	04000000 	streq	r0, [r0], #-0
    7a80:	23021107 	movwcs	r1, #8455	; 0x2107
    7a84:	0e320900 	cdpeq	9, 3, cr0, cr2, cr0, {0}
    7a88:	3f030000 	svccc	0x00030000
    7a8c:	0000005e 	andeq	r0, r0, lr, asr r0
    7a90:	020c0504 	andeq	r0, ip, #16777216	; 0x1000000
    7a94:	27090023 	strcs	r0, [r9, -r3, lsr #32]
    7a98:	0300000c 	movweq	r0, #12
    7a9c:	00005e40 	andeq	r5, r0, r0, asr #28
    7aa0:	0b010400 	bleq	48aa8 <__bss_end+0x45c20>
    7aa4:	09002302 	stmdbeq	r0, {r1, r8, r9, sp}
    7aa8:	00000e3c 	andeq	r0, r0, ip, lsr lr
    7aac:	005e4103 	subseq	r4, lr, r3, lsl #2
    7ab0:	03040000 	movweq	r0, #16384	; 0x4000
    7ab4:	00230208 	eoreq	r0, r3, r8, lsl #4
    7ab8:	000d0609 	andeq	r0, sp, r9, lsl #12
    7abc:	5e420300 	cdppl	3, 4, cr0, cr2, cr0, {0}
    7ac0:	04000000 	streq	r0, [r0], #-0
    7ac4:	23020701 	movwcs	r0, #9985	; 0x2701
    7ac8:	0ead0900 	cdpeq	9, 10, cr0, cr13, cr0, {0}
    7acc:	43030000 	movwmi	r0, #12288	; 0x3000
    7ad0:	0000005e 	andeq	r0, r0, lr, asr r0
    7ad4:	02060104 	andeq	r0, r6, #1
    7ad8:	46090023 	strmi	r0, [r9], -r3, lsr #32
    7adc:	0300000e 	movweq	r0, #14
    7ae0:	00005e44 	andeq	r5, r0, r4, asr #28
    7ae4:	04020400 	streq	r0, [r2], #-1024	; 0x400
    7ae8:	09002302 	stmdbeq	r0, {r1, r8, r9, sp}
    7aec:	00000c62 	andeq	r0, r0, r2, ror #24
    7af0:	005e4503 	subseq	r4, lr, r3, lsl #10
    7af4:	01040000 	mrseq	r0, (UNDEF: 4)
    7af8:	00230203 	eoreq	r0, r3, r3, lsl #4
    7afc:	000e5009 	andeq	r5, lr, r9
    7b00:	5e460300 	cdppl	3, 4, cr0, cr6, cr0, {0}
    7b04:	04000000 	streq	r0, [r0], #-0
    7b08:	23020201 	movwcs	r0, #8705	; 0x2201
    7b0c:	0a660900 	beq	1989f14 <__bss_end+0x198708c>
    7b10:	47030000 	strmi	r0, [r3, -r0]
    7b14:	0000005e 	andeq	r0, r0, lr, asr r0
    7b18:	02010104 	andeq	r0, r1, #1
    7b1c:	bd090023 	stclt	0, cr0, [r9, #-140]	; 0xffffff74
    7b20:	0300000d 	movweq	r0, #13
    7b24:	00005e48 	andeq	r5, r0, r8, asr #28
    7b28:	00010400 	andeq	r0, r1, r0, lsl #8
    7b2c:	00002302 	andeq	r2, r0, r2, lsl #6
    7b30:	000fe803 	andeq	lr, pc, r3, lsl #16
    7b34:	49490300 	stmdbmi	r9, {r8, r9}^
    7b38:	08000002 	stmdaeq	r0, {r1}
    7b3c:	00000da3 	andeq	r0, r0, r3, lsr #27
    7b40:	284c0304 	stmdacs	ip, {r2, r8, r9}^
    7b44:	09000004 	stmdbeq	r0, {r2}
    7b48:	00000693 	muleq	r0, r3, r6
    7b4c:	005e4e03 	subseq	r4, lr, r3, lsl #28
    7b50:	02040000 	andeq	r0, r4, #0
    7b54:	0023021e 	eoreq	r0, r3, lr, lsl r2
    7b58:	000e2809 	andeq	r2, lr, r9, lsl #16
    7b5c:	5e4f0300 	cdppl	3, 4, cr0, cr15, cr0, {0}
    7b60:	04000000 	streq	r0, [r0], #-0
    7b64:	23021c02 	movwcs	r1, #11266	; 0x2c02
    7b68:	068b0900 	streq	r0, [fp], r0, lsl #18
    7b6c:	50030000 	andpl	r0, r3, r0
    7b70:	0000005e 	andeq	r0, r0, lr, asr r0
    7b74:	021a0204 	andseq	r0, sl, #1073741824	; 0x40000000
    7b78:	32090023 	andcc	r0, r9, #35	; 0x23
    7b7c:	0300000e 	movweq	r0, #14
    7b80:	00005e51 	andeq	r5, r0, r1, asr lr
    7b84:	18020400 	stmdane	r2, {sl}
    7b88:	09002302 	stmdbeq	r0, {r1, r8, r9, sp}
    7b8c:	0000069b 	muleq	r0, fp, r6
    7b90:	005e5203 	subseq	r5, lr, r3, lsl #4
    7b94:	05040000 	streq	r0, [r4, #-0]
    7b98:	00230213 	eoreq	r0, r3, r3, lsl r2
    7b9c:	000e3c09 	andeq	r3, lr, r9, lsl #24
    7ba0:	5e530300 	cdppl	3, 5, cr0, cr3, cr0, {0}
    7ba4:	04000000 	streq	r0, [r0], #-0
    7ba8:	23020c07 	movwcs	r0, #11271	; 0x2c07
    7bac:	05660900 	strbeq	r0, [r6, #-2304]!	; 0x900
    7bb0:	54030000 	strpl	r0, [r3], #-0
    7bb4:	0000005e 	andeq	r0, r0, lr, asr r0
    7bb8:	020b0104 	andeq	r0, fp, #1
    7bbc:	46090023 	strmi	r0, [r9], -r3, lsr #32
    7bc0:	0300000e 	movweq	r0, #14
    7bc4:	00005e55 	andeq	r5, r0, r5, asr lr
    7bc8:	08030400 	stmdaeq	r3, {sl}
    7bcc:	09002302 	stmdbeq	r0, {r1, r8, r9, sp}
    7bd0:	00000a53 	andeq	r0, r0, r3, asr sl
    7bd4:	005e5603 	subseq	r5, lr, r3, lsl #12
    7bd8:	01040000 	mrseq	r0, (UNDEF: 4)
    7bdc:	00230207 	eoreq	r0, r3, r7, lsl #4
    7be0:	000e5009 	andeq	r5, lr, r9
    7be4:	5e570300 	cdppl	3, 5, cr0, cr7, cr0, {0}
    7be8:	04000000 	streq	r0, [r0], #-0
    7bec:	23020403 	movwcs	r0, #9219	; 0x2403
    7bf0:	0c620900 	stcleq	9, cr0, [r2], #-0
    7bf4:	58030000 	stmdapl	r3, {}	; <UNPREDICTABLE>
    7bf8:	0000005e 	andeq	r0, r0, lr, asr r0
    7bfc:	02030104 	andeq	r0, r3, #1
    7c00:	5a090023 	bpl	247c94 <__bss_end+0x244e0c>
    7c04:	0300000e 	movweq	r0, #14
    7c08:	00005e59 	andeq	r5, r0, r9, asr lr
    7c0c:	01020400 	tsteq	r2, r0, lsl #8
    7c10:	09002302 	stmdbeq	r0, {r1, r8, r9, sp}
    7c14:	00000dbd 			; <UNDEFINED> instruction: 0x00000dbd
    7c18:	005e5a03 	subseq	r5, lr, r3, lsl #20
    7c1c:	01040000 	mrseq	r0, (UNDEF: 4)
    7c20:	00230200 	eoreq	r0, r3, r0, lsl #4
    7c24:	05ba0300 	ldreq	r0, [sl, #768]!	; 0x300
    7c28:	5b030000 	blpl	c7c30 <__bss_end+0xc4da8>
    7c2c:	0000033e 	andeq	r0, r0, lr, lsr r3
    7c30:	00111c08 	andseq	r1, r1, r8, lsl #24
    7c34:	5e030400 	cfcpyspl	mvf0, mvf3
    7c38:	0000053f 	andeq	r0, r0, pc, lsr r5
    7c3c:	00069309 	andeq	r9, r6, r9, lsl #6
    7c40:	5e600300 	cdppl	3, 6, cr0, cr0, cr0, {0}
    7c44:	04000000 	streq	r0, [r0], #-0
    7c48:	23021e02 	movwcs	r1, #11778	; 0x2e02
    7c4c:	0e280900 	cdpeq	9, 2, cr0, cr8, cr0, {0}
    7c50:	61030000 	mrsvs	r0, (UNDEF: 3)
    7c54:	0000005e 	andeq	r0, r0, lr, asr r0
    7c58:	021c0204 	andseq	r0, ip, #1073741824	; 0x40000000
    7c5c:	8b090023 	blhi	247cf0 <__bss_end+0x244e68>
    7c60:	03000006 	movweq	r0, #6
    7c64:	00005e62 	andeq	r5, r0, r2, ror #28
    7c68:	1a020400 	bne	88c70 <__bss_end+0x85de8>
    7c6c:	09002302 	stmdbeq	r0, {r1, r8, r9, sp}
    7c70:	00000e32 	andeq	r0, r0, r2, lsr lr
    7c74:	005e6303 	subseq	r6, lr, r3, lsl #6
    7c78:	02040000 	andeq	r0, r4, #0
    7c7c:	00230218 	eoreq	r0, r3, r8, lsl r2
    7c80:	00069b09 	andeq	r9, r6, r9, lsl #22
    7c84:	5e640300 	cdppl	3, 6, cr0, cr4, cr0, {0}
    7c88:	04000000 	streq	r0, [r0], #-0
    7c8c:	23021305 	movwcs	r1, #8965	; 0x2305
    7c90:	0e3c0900 	cdpeq	9, 3, cr0, cr12, cr0, {0}
    7c94:	65030000 	strvs	r0, [r3, #-0]
    7c98:	0000005e 	andeq	r0, r0, lr, asr r0
    7c9c:	02100304 	andseq	r0, r0, #268435456	; 0x10000000
    7ca0:	88090023 	stmdahi	r9, {r0, r1, r5}
    7ca4:	0300000f 	movweq	r0, #15
    7ca8:	00005e66 	andeq	r5, r0, r6, ror #28
    7cac:	0e020400 	cfcpyseq	mvf0, mvf2
    7cb0:	09002302 	stmdbeq	r0, {r1, r8, r9, sp}
    7cb4:	00000277 	andeq	r0, r0, r7, ror r2
    7cb8:	005e6703 	subseq	r6, lr, r3, lsl #14
    7cbc:	01040000 	mrseq	r0, (UNDEF: 4)
    7cc0:	0023020d 	eoreq	r0, r3, sp, lsl #4
    7cc4:	000e4609 	andeq	r4, lr, r9, lsl #12
    7cc8:	5e680300 	cdppl	3, 6, cr0, cr8, cr0, {0}
    7ccc:	04000000 	streq	r0, [r0], #-0
    7cd0:	23020805 	movwcs	r0, #10245	; 0x2805
    7cd4:	0ba00900 	bleq	fe80a0dc <__bss_end+0xfe807254>
    7cd8:	69030000 	stmdbvs	r3, {}	; <UNPREDICTABLE>
    7cdc:	0000005e 	andeq	r0, r0, lr, asr r0
    7ce0:	02070104 	andeq	r0, r7, #1
    7ce4:	38090023 	stmdacc	r9, {r0, r1, r5}
    7ce8:	0300000b 	movweq	r0, #11
    7cec:	00005e6a 	andeq	r5, r0, sl, ror #28
    7cf0:	06010400 	streq	r0, [r1], -r0, lsl #8
    7cf4:	09002302 	stmdbeq	r0, {r1, r8, r9, sp}
    7cf8:	00000e50 	andeq	r0, r0, r0, asr lr
    7cfc:	005e6b03 	subseq	r6, lr, r3, lsl #22
    7d00:	02040000 	andeq	r0, r4, #0
    7d04:	00230204 	eoreq	r0, r3, r4, lsl #4
    7d08:	000c6209 	andeq	r6, ip, r9, lsl #4
    7d0c:	5e6c0300 	cdppl	3, 6, cr0, cr12, cr0, {0}
    7d10:	04000000 	streq	r0, [r0], #-0
    7d14:	23020301 	movwcs	r0, #8961	; 0x2301
    7d18:	0e5a0900 	cdpeq	9, 5, cr0, cr10, cr0, {0}
    7d1c:	6d030000 	stcvs	0, cr0, [r3, #-0]
    7d20:	0000005e 	andeq	r0, r0, lr, asr r0
    7d24:	02010204 	andeq	r0, r1, #1073741824	; 0x40000000
    7d28:	bd090023 	stclt	0, cr0, [r9, #-140]	; 0xffffff74
    7d2c:	0300000d 	movweq	r0, #13
    7d30:	00005e6e 	andeq	r5, r0, lr, ror #28
    7d34:	00010400 	andeq	r0, r1, r0, lsl #8
    7d38:	00002302 	andeq	r2, r0, r2, lsl #6
    7d3c:	0004d103 	andeq	sp, r4, r3, lsl #2
    7d40:	336f0300 	cmncc	pc, #0
    7d44:	08000004 	stmdaeq	r0, {r2}
    7d48:	00000c3e 	andeq	r0, r0, lr, lsr ip
    7d4c:	9a720304 	bls	1c88964 <__bss_end+0x1c85adc>
    7d50:	09000006 	stmdbeq	r0, {r1, r2}
    7d54:	00000693 	muleq	r0, r3, r6
    7d58:	005e7403 	subseq	r7, lr, r3, lsl #8
    7d5c:	04040000 	streq	r0, [r4], #-0
    7d60:	0023021c 	eoreq	r0, r3, ip, lsl r2
    7d64:	00068b09 	andeq	r8, r6, r9, lsl #22
    7d68:	5e750300 	cdppl	3, 7, cr0, cr5, cr0, {0}
    7d6c:	04000000 	streq	r0, [r0], #-0
    7d70:	23021a02 	movwcs	r1, #10754	; 0x2a02
    7d74:	0e280900 	cdpeq	9, 2, cr0, cr8, cr0, {0}
    7d78:	76030000 	strvc	r0, [r3], -r0
    7d7c:	0000005e 	andeq	r0, r0, lr, asr r0
    7d80:	02180204 	andseq	r0, r8, #1073741824	; 0x40000000
    7d84:	9b090023 	blls	247e18 <__bss_end+0x244f90>
    7d88:	03000006 	movweq	r0, #6
    7d8c:	00005e77 	andeq	r5, r0, r7, ror lr
    7d90:	14040400 	strne	r0, [r4], #-1024	; 0x400
    7d94:	09002302 	stmdbeq	r0, {r1, r8, r9, sp}
    7d98:	00000e32 	andeq	r0, r0, r2, lsr lr
    7d9c:	005e7803 	subseq	r7, lr, r3, lsl #16
    7da0:	04040000 	streq	r0, [r4], #-0
    7da4:	00230210 	eoreq	r0, r3, r0, lsl r2
    7da8:	00060909 	andeq	r0, r6, r9, lsl #18
    7dac:	5e790300 	cdppl	3, 7, cr0, cr9, cr0, {0}
    7db0:	04000000 	streq	r0, [r0], #-0
    7db4:	23020f01 	movwcs	r0, #12033	; 0x2f01
    7db8:	0d480900 	stcleq	9, cr0, [r8, #-0]
    7dbc:	7b030000 	blvc	c7dc4 <__bss_end+0xc4f3c>
    7dc0:	0000005e 	andeq	r0, r0, lr, asr r0
    7dc4:	020e0104 	andeq	r0, lr, #1
    7dc8:	3c090023 	stccc	0, cr0, [r9], {35}	; 0x23
    7dcc:	0300000e 	movweq	r0, #14
    7dd0:	00005e7c 	andeq	r5, r0, ip, ror lr
    7dd4:	0c020400 	cfstrseq	mvf0, [r2], {-0}
    7dd8:	09002302 	stmdbeq	r0, {r1, r8, r9, sp}
    7ddc:	00000c27 	andeq	r0, r0, r7, lsr #24
    7de0:	005e7d03 	subseq	r7, lr, r3, lsl #26
    7de4:	01040000 	mrseq	r0, (UNDEF: 4)
    7de8:	0023020b 	eoreq	r0, r3, fp, lsl #4
    7dec:	00047709 	andeq	r7, r4, r9, lsl #14
    7df0:	5e7e0300 	cdppl	3, 7, cr0, cr14, cr0, {0}
    7df4:	04000000 	streq	r0, [r0], #-0
    7df8:	23020a01 	movwcs	r0, #10753	; 0x2a01
    7dfc:	05290900 	streq	r0, [r9, #-2304]!	; 0x900
    7e00:	7f030000 	svcvc	0x00030000
    7e04:	0000005e 	andeq	r0, r0, lr, asr r0
    7e08:	02090104 	andeq	r0, r9, #1
    7e0c:	21090023 	tstcs	r9, r3, lsr #32
    7e10:	0300000e 	movweq	r0, #14
    7e14:	00005e80 	andeq	r5, r0, r0, lsl #29
    7e18:	08010400 	stmdaeq	r1, {sl}
    7e1c:	09002302 	stmdbeq	r0, {r1, r8, r9, sp}
    7e20:	00000e46 	andeq	r0, r0, r6, asr #28
    7e24:	005e8103 	subseq	r8, lr, r3, lsl #2
    7e28:	01040000 	mrseq	r0, (UNDEF: 4)
    7e2c:	00230207 	eoreq	r0, r3, r7, lsl #4
    7e30:	000ca909 	andeq	sl, ip, r9, lsl #18
    7e34:	5e820300 	cdppl	3, 8, cr0, cr2, cr0, {0}
    7e38:	04000000 	streq	r0, [r0], #-0
    7e3c:	23020601 	movwcs	r0, #9729	; 0x2601
    7e40:	0db70900 	ldceq	9, cr0, [r7]
    7e44:	83030000 	movwhi	r0, #12288	; 0x3000
    7e48:	0000005e 	andeq	r0, r0, lr, asr r0
    7e4c:	02050104 	andeq	r0, r5, #1
    7e50:	29090023 	stmdbcs	r9, {r0, r1, r5}
    7e54:	0300000f 	movweq	r0, #15
    7e58:	00005e84 	andeq	r5, r0, r4, lsl #29
    7e5c:	04010400 	streq	r0, [r1], #-1024	; 0x400
    7e60:	09002302 	stmdbeq	r0, {r1, r8, r9, sp}
    7e64:	00000c62 	andeq	r0, r0, r2, ror #24
    7e68:	005e8503 	subseq	r8, lr, r3, lsl #10
    7e6c:	01040000 	mrseq	r0, (UNDEF: 4)
    7e70:	00230203 	eoreq	r0, r3, r3, lsl #4
    7e74:	000e5009 	andeq	r5, lr, r9
    7e78:	5e860300 	cdppl	3, 8, cr0, cr6, cr0, {0}
    7e7c:	04000000 	streq	r0, [r0], #-0
    7e80:	23020102 	movwcs	r0, #8450	; 0x2102
    7e84:	0dbd0900 	ldceq	9, cr0, [sp]
    7e88:	87030000 	strhi	r0, [r3, -r0]
    7e8c:	0000005e 	andeq	r0, r0, lr, asr r0
    7e90:	02000104 	andeq	r0, r0, #1
    7e94:	03000023 	movweq	r0, #35	; 0x23
    7e98:	00000304 	andeq	r0, r0, r4, lsl #6
    7e9c:	054a8803 	strbeq	r8, [sl, #-2051]	; 0x803
    7ea0:	b5080000 	strlt	r0, [r8, #-0]
    7ea4:	0400000e 	streq	r0, [r0], #-14
    7ea8:	07188e03 	ldreq	r8, [r8, -r3, lsl #28]
    7eac:	df090000 	svcle	0x00090000
    7eb0:	03000010 	movweq	r0, #16
    7eb4:	00005e90 	muleq	r0, r0, lr
    7eb8:	1d030400 	cfstrsne	mvf0, [r3, #-0]
    7ebc:	09002302 	stmdbeq	r0, {r1, r8, r9, sp}
    7ec0:	00000e28 	andeq	r0, r0, r8, lsr #28
    7ec4:	005e9103 	subseq	r9, lr, r3, lsl #2
    7ec8:	05040000 	streq	r0, [r4, #-0]
    7ecc:	00230218 	eoreq	r0, r3, r8, lsl r2
    7ed0:	000df509 	andeq	pc, sp, r9, lsl #10
    7ed4:	5e920300 	cdppl	3, 9, cr0, cr2, cr0, {0}
    7ed8:	04000000 	streq	r0, [r0], #-0
    7edc:	23021602 	movwcs	r1, #9730	; 0x2602
    7ee0:	0e320900 	cdpeq	9, 3, cr0, cr2, cr0, {0}
    7ee4:	93030000 	movwls	r0, #12288	; 0x3000
    7ee8:	0000005e 	andeq	r0, r0, lr, asr r0
    7eec:	02100604 	andseq	r0, r0, #4194304	; 0x400000
    7ef0:	de090023 	cdple	0, 0, cr0, cr9, cr3, {1}
    7ef4:	0300000f 	movweq	r0, #15
    7ef8:	00005e94 	muleq	r0, r4, lr
    7efc:	0e020400 	cfcpyseq	mvf0, mvf2
    7f00:	09002302 	stmdbeq	r0, {r1, r8, r9, sp}
    7f04:	00000e3c 	andeq	r0, r0, ip, lsr lr
    7f08:	005e9503 	subseq	r9, lr, r3, lsl #10
    7f0c:	0e040000 	cdpeq	0, 0, cr0, cr4, cr0, {0}
    7f10:	00230200 	eoreq	r0, r3, r0, lsl #4
    7f14:	050b0300 	streq	r0, [fp, #-768]	; 0x300
    7f18:	96030000 	strls	r0, [r3], -r0
    7f1c:	000006a5 	andeq	r0, r0, r5, lsr #13
    7f20:	00028308 	andeq	r8, r2, r8, lsl #6
    7f24:	9d030400 	cfstrsls	mvf0, [r3, #-0]
    7f28:	000007a7 	andeq	r0, r0, r7, lsr #15
    7f2c:	000e2809 	andeq	r2, lr, r9, lsl #16
    7f30:	5e9f0300 	cdppl	3, 9, cr0, cr15, cr0, {0}
    7f34:	04000000 	streq	r0, [r0], #-0
    7f38:	23021c04 	movwcs	r1, #11268	; 0x2c04
    7f3c:	0b650900 	bleq	194a344 <__bss_end+0x19474bc>
    7f40:	a0030000 	andge	r0, r3, r0
    7f44:	0000005e 	andeq	r0, r0, lr, asr r0
    7f48:	021a0204 	andseq	r0, sl, #1073741824	; 0x40000000
    7f4c:	a4090023 	strge	r0, [r9], #-35	; 0x23
    7f50:	03000010 	movweq	r0, #16
    7f54:	00005ea1 	andeq	r5, r0, r1, lsr #29
    7f58:	18020400 	stmdane	r2, {sl}
    7f5c:	09002302 	stmdbeq	r0, {r1, r8, r9, sp}
    7f60:	00000cfe 	strdeq	r0, [r0], -lr
    7f64:	005ea203 	subseq	sl, lr, r3, lsl #4
    7f68:	02040000 	andeq	r0, r4, #0
    7f6c:	00230216 	eoreq	r0, r3, r6, lsl r2
    7f70:	000e3209 	andeq	r3, lr, r9, lsl #4
    7f74:	5ea30300 	cdppl	3, 10, cr0, cr3, cr0, {0}
    7f78:	04000000 	streq	r0, [r0], #-0
    7f7c:	23021402 	movwcs	r1, #9218	; 0x2402
    7f80:	0f690900 	svceq	0x00690900
    7f84:	a4030000 	strge	r0, [r3], #-0
    7f88:	0000005e 	andeq	r0, r0, lr, asr r0
    7f8c:	02120204 	andseq	r0, r2, #1073741824	; 0x40000000
    7f90:	3c090023 	stccc	0, cr0, [r9], {35}	; 0x23
    7f94:	0300000e 	movweq	r0, #14
    7f98:	00005ea5 	andeq	r5, r0, r5, lsr #29
    7f9c:	00120400 	andseq	r0, r2, r0, lsl #8
    7fa0:	00002302 	andeq	r2, r0, r2, lsl #6
    7fa4:	000fa603 	andeq	sl, pc, r3, lsl #12
    7fa8:	23a60300 			; <UNDEFINED> instruction: 0x23a60300
    7fac:	08000007 	stmdaeq	r0, {r0, r1, r2}
    7fb0:	0000102d 	andeq	r1, r0, sp, lsr #32
    7fb4:	25ac0304 	strcs	r0, [ip, #772]!	; 0x304
    7fb8:	09000008 	stmdbeq	r0, {r3}
    7fbc:	00000780 	andeq	r0, r0, r0, lsl #15
    7fc0:	005eae03 	subseq	sl, lr, r3, lsl #28
    7fc4:	05040000 	streq	r0, [r4, #-0]
    7fc8:	0023021b 	eoreq	r0, r3, fp, lsl r2
    7fcc:	0010d609 	andseq	sp, r0, r9, lsl #12
    7fd0:	5eaf0300 	cdppl	3, 10, cr0, cr15, cr0, {0}
    7fd4:	04000000 	streq	r0, [r0], #-0
    7fd8:	2302100b 	movwcs	r1, #8203	; 0x200b
    7fdc:	07850900 	streq	r0, [r5, r0, lsl #18]
    7fe0:	b0030000 	andlt	r0, r3, r0
    7fe4:	0000005e 	andeq	r0, r0, lr, asr r0
    7fe8:	020e0204 	andeq	r0, lr, #1073741824	; 0x40000000
    7fec:	32090023 	andcc	r0, r9, #35	; 0x23
    7ff0:	0300000e 	movweq	r0, #14
    7ff4:	00005eb1 			; <UNDEFINED> instruction: 0x00005eb1
    7ff8:	08060400 	stmdaeq	r6, {sl}
    7ffc:	09002302 	stmdbeq	r0, {r1, r8, r9, sp}
    8000:	00000f6d 	andeq	r0, r0, sp, ror #30
    8004:	005eb203 	subseq	fp, lr, r3, lsl #4
    8008:	02040000 	andeq	r0, r4, #0
    800c:	00230206 	eoreq	r0, r3, r6, lsl #4
    8010:	000e3c09 	andeq	r3, lr, r9, lsl #24
    8014:	5eb30300 	cdppl	3, 11, cr0, cr3, cr0, {0}
    8018:	04000000 	streq	r0, [r0], #-0
    801c:	23020006 	movwcs	r0, #8198	; 0x2006
    8020:	cd030000 	stcgt	0, cr0, [r3, #-0]
    8024:	0300000b 	movweq	r0, #11
    8028:	0007b2b4 			; <UNDEFINED> instruction: 0x0007b2b4
    802c:	10830800 	addne	r0, r3, r0, lsl #16
    8030:	03040000 	movweq	r0, #16384	; 0x4000
    8034:	00085fb7 			; <UNDEFINED> instruction: 0x00085fb7
    8038:	09900900 	ldmibeq	r0, {r8, fp}
    803c:	b9030000 	stmdblt	r3, {}	; <UNPREDICTABLE>
    8040:	0000005e 	andeq	r0, r0, lr, asr r0
    8044:	021f0104 	andseq	r0, pc, #1
    8048:	28090023 	stmdacs	r9, {r0, r1, r5}
    804c:	0300000e 	movweq	r0, #14
    8050:	00005eba 			; <UNDEFINED> instruction: 0x00005eba
    8054:	001f0400 	andseq	r0, pc, r0, lsl #8
    8058:	00002302 	andeq	r2, r0, r2, lsl #6
    805c:	00081803 	andeq	r1, r8, r3, lsl #16
    8060:	30bb0300 	adcscc	r0, fp, r0, lsl #6
    8064:	08000008 	stmdaeq	r0, {r3}
    8068:	0000087b 	andeq	r0, r0, fp, ror r8
    806c:	62be0304 	adcsvs	r0, lr, #268435456	; 0x10000000
    8070:	0900000a 	stmdbeq	r0, {r1, r3}
    8074:	00000e0f 	andeq	r0, r0, pc, lsl #28
    8078:	005ec003 	subseq	ip, lr, r3
    807c:	01040000 	mrseq	r0, (UNDEF: 4)
    8080:	0023021f 	eoreq	r0, r3, pc, lsl r2
    8084:	0004e709 	andeq	lr, r4, r9, lsl #14
    8088:	5ec10300 	cdppl	3, 12, cr0, cr1, cr0, {0}
    808c:	04000000 	streq	r0, [r0], #-0
    8090:	23021e01 	movwcs	r1, #11777	; 0x2e01
    8094:	0e280900 	cdpeq	9, 2, cr0, cr8, cr0, {0}
    8098:	c2030000 	andgt	r0, r3, #0
    809c:	0000005e 	andeq	r0, r0, lr, asr r0
    80a0:	021b0304 	andseq	r0, fp, #268435456	; 0x10000000
    80a4:	530a0023 	movwpl	r0, #40995	; 0xa023
    80a8:	c3030073 	movwgt	r0, #12403	; 0x3073
    80ac:	0000005e 	andeq	r0, r0, lr, asr r0
    80b0:	021a0104 	andseq	r0, sl, #1
    80b4:	440a0023 	strmi	r0, [sl], #-35	; 0x23
    80b8:	0300616d 	movweq	r6, #365	; 0x16d
    80bc:	00005ec4 	andeq	r5, r0, r4, asr #29
    80c0:	19010400 	stmdbne	r1, {sl}
    80c4:	09002302 	stmdbeq	r0, {r1, r8, r9, sp}
    80c8:	00000e32 	andeq	r0, r0, r2, lsr lr
    80cc:	005ec503 	subseq	ip, lr, r3, lsl #10
    80d0:	01040000 	mrseq	r0, (UNDEF: 4)
    80d4:	00230218 	eoreq	r0, r3, r8, lsl r2
    80d8:	3064530a 	rsbcc	r5, r4, sl, lsl #6
    80dc:	5ec60300 	cdppl	3, 12, cr0, cr6, cr0, {0}
    80e0:	04000000 	streq	r0, [r0], #-0
    80e4:	23021701 	movwcs	r1, #9985	; 0x2701
    80e8:	64530a00 	ldrbvs	r0, [r3], #-2560	; 0xa00
    80ec:	c7030031 	smladxgt	r3, r1, r0, r0
    80f0:	0000005e 	andeq	r0, r0, lr, asr r0
    80f4:	02160104 	andseq	r0, r6, #1
    80f8:	530a0023 	movwpl	r0, #40995	; 0xa023
    80fc:	03003264 	movweq	r3, #612	; 0x264
    8100:	00005ec8 	andeq	r5, r0, r8, asr #29
    8104:	15010400 	strne	r0, [r1, #-1024]	; 0x400
    8108:	0a002302 	beq	10d18 <__bss_end+0xde90>
    810c:	00336453 	eorseq	r6, r3, r3, asr r4
    8110:	005ec903 	subseq	ip, lr, r3, lsl #18
    8114:	01040000 	mrseq	r0, (UNDEF: 4)
    8118:	00230214 	eoreq	r0, r3, r4, lsl r2
    811c:	00118609 	andseq	r8, r1, r9, lsl #12
    8120:	5eca0300 	cdppl	3, 12, cr0, cr10, cr0, {0}
    8124:	04000000 	streq	r0, [r0], #-0
    8128:	23021301 	movwcs	r1, #8961	; 0x2301
    812c:	11800900 	orrne	r0, r0, r0, lsl #18
    8130:	cb030000 	blgt	c8138 <__bss_end+0xc52b0>
    8134:	0000005e 	andeq	r0, r0, lr, asr r0
    8138:	02120104 	andseq	r0, r2, #1
    813c:	fa090023 	blx	2481d0 <__bss_end+0x245348>
    8140:	0300000a 	movweq	r0, #10
    8144:	00005ecc 	andeq	r5, r0, ip, asr #29
    8148:	11010400 	tstne	r1, r0, lsl #8
    814c:	09002302 	stmdbeq	r0, {r1, r8, r9, sp}
    8150:	00000e3c 	andeq	r0, r0, ip, lsr lr
    8154:	005ecd03 	subseq	ip, lr, r3, lsl #26
    8158:	02040000 	andeq	r0, r4, #0
    815c:	0023020f 	eoreq	r0, r3, pc, lsl #4
    8160:	0006d709 	andeq	sp, r6, r9, lsl #14
    8164:	5ece0300 	cdppl	3, 12, cr0, cr14, cr0, {0}
    8168:	04000000 	streq	r0, [r0], #-0
    816c:	23020e01 	movwcs	r0, #11777	; 0x2e01
    8170:	73540a00 	cmpvc	r4, #0
    8174:	5ecf0300 	cdppl	3, 12, cr0, cr15, cr0, {0}
    8178:	04000000 	streq	r0, [r0], #-0
    817c:	23020d01 	movwcs	r0, #11521	; 0x2d01
    8180:	0ed10900 	cdpeq	9, 13, cr0, cr1, cr0, {0}
    8184:	d0030000 	andle	r0, r3, r0
    8188:	0000005e 	andeq	r0, r0, lr, asr r0
    818c:	020c0104 	andeq	r0, ip, #1
    8190:	ec090023 	stc	0, cr0, [r9], {35}	; 0x23
    8194:	0300000e 	movweq	r0, #14
    8198:	00005ed1 	ldrdeq	r5, [r0], -r1
    819c:	0b010400 	bleq	491a4 <__bss_end+0x4631c>
    81a0:	09002302 	stmdbeq	r0, {r1, r8, r9, sp}
    81a4:	00000ef1 	strdeq	r0, [r0], -r1
    81a8:	005ed203 	subseq	sp, lr, r3, lsl #4
    81ac:	01040000 	mrseq	r0, (UNDEF: 4)
    81b0:	0023020a 	eoreq	r0, r3, sl, lsl #4
    81b4:	000ef609 	andeq	pc, lr, r9, lsl #12
    81b8:	5ed30300 	cdppl	3, 13, cr0, cr3, cr0, {0}
    81bc:	04000000 	streq	r0, [r0], #-0
    81c0:	23020901 	movwcs	r0, #10497	; 0x2901
    81c4:	0d540900 	ldcleq	9, cr0, [r4, #-0]
    81c8:	d4030000 	strle	r0, [r3], #-0
    81cc:	0000005e 	andeq	r0, r0, lr, asr r0
    81d0:	02080104 	andeq	r0, r8, #1
    81d4:	4f0a0023 	svcmi	0x000a0023
    81d8:	03006774 	movweq	r6, #1908	; 0x774
    81dc:	00005ed5 	ldrdeq	r5, [r0], -r5	; <UNPREDICTABLE>
    81e0:	07010400 	streq	r0, [r1, -r0, lsl #8]
    81e4:	09002302 	stmdbeq	r0, {r1, r8, r9, sp}
    81e8:	00000e46 	andeq	r0, r0, r6, asr #28
    81ec:	005ed603 	subseq	sp, lr, r3, lsl #12
    81f0:	01040000 	mrseq	r0, (UNDEF: 4)
    81f4:	00230206 	eoreq	r0, r3, r6, lsl #4
    81f8:	0004c509 	andeq	ip, r4, r9, lsl #10
    81fc:	5ed70300 	cdppl	3, 13, cr0, cr7, cr0, {0}
    8200:	04000000 	streq	r0, [r0], #-0
    8204:	23020501 	movwcs	r0, #9473	; 0x2501
    8208:	04cb0900 	strbeq	r0, [fp], #2304	; 0x900
    820c:	d8030000 	stmdale	r3, {}	; <UNPREDICTABLE>
    8210:	0000005e 	andeq	r0, r0, lr, asr r0
    8214:	02040104 	andeq	r0, r4, #1
    8218:	50090023 	andpl	r0, r9, r3, lsr #32
    821c:	0300000e 	movweq	r0, #14
    8220:	00005ed9 	ldrdeq	r5, [r0], -r9
    8224:	03010400 	movweq	r0, #5120	; 0x1400
    8228:	09002302 	stmdbeq	r0, {r1, r8, r9, sp}
    822c:	00000c97 	muleq	r0, r7, ip
    8230:	005eda03 	subseq	sp, lr, r3, lsl #20
    8234:	01040000 	mrseq	r0, (UNDEF: 4)
    8238:	00230202 	eoreq	r0, r3, r2, lsl #4
    823c:	000c9d09 	andeq	r9, ip, r9, lsl #26
    8240:	5edb0300 	cdppl	3, 13, cr0, cr11, cr0, {0}
    8244:	04000000 	streq	r0, [r0], #-0
    8248:	23020101 	movwcs	r0, #8449	; 0x2101
    824c:	0ca30900 	stceq	9, cr0, [r3]
    8250:	dc030000 	stcle	0, cr0, [r3], {-0}
    8254:	0000005e 	andeq	r0, r0, lr, asr r0
    8258:	02000104 	andeq	r0, r0, #1
    825c:	03000023 	movweq	r0, #35	; 0x23
    8260:	0000029d 	muleq	r0, sp, r2
    8264:	086add03 	stmdaeq	sl!, {r0, r1, r8, sl, fp, ip, lr, pc}^
    8268:	8c080000 	stchi	0, cr0, [r8], {-0}
    826c:	04000003 	streq	r0, [r0], #-3
    8270:	0c21e003 	stceq	0, cr14, [r1], #-12
    8274:	560a0000 	strpl	r0, [sl], -r0
    8278:	e2030065 	and	r0, r3, #101	; 0x65
    827c:	0000005e 	andeq	r0, r0, lr, asr r0
    8280:	021f0104 	andseq	r0, pc, #1
    8284:	28090023 	stmdacs	r9, {r0, r1, r5}
    8288:	0300000e 	movweq	r0, #14
    828c:	00005ee3 	andeq	r5, r0, r3, ror #29
    8290:	1c030400 	cfstrsne	mvf0, [r3], {-0}
    8294:	09002302 	stmdbeq	r0, {r1, r8, r9, sp}
    8298:	00000a8a 	andeq	r0, r0, sl, lsl #21
    829c:	005ee403 	subseq	lr, lr, r3, lsl #8
    82a0:	01040000 	mrseq	r0, (UNDEF: 4)
    82a4:	0023021b 	eoreq	r0, r3, fp, lsl r2
    82a8:	000c8809 	andeq	r8, ip, r9, lsl #16
    82ac:	5ee50300 	cdppl	3, 14, cr0, cr5, cr0, {0}
    82b0:	04000000 	streq	r0, [r0], #-0
    82b4:	23021a01 	movwcs	r1, #10753	; 0x2a01
    82b8:	0e320900 	cdpeq	9, 3, cr0, cr2, cr0, {0}
    82bc:	e6030000 	str	r0, [r3], -r0
    82c0:	0000005e 	andeq	r0, r0, lr, asr r0
    82c4:	02180204 	andseq	r0, r8, #1073741824	; 0x40000000
    82c8:	a3090023 	movwge	r0, #36899	; 0x9023
    82cc:	0300000e 	movweq	r0, #14
    82d0:	00005ee7 	andeq	r5, r0, r7, ror #29
    82d4:	17010400 	strne	r0, [r1, -r0, lsl #8]
    82d8:	09002302 	stmdbeq	r0, {r1, r8, r9, sp}
    82dc:	00000ea8 	andeq	r0, r0, r8, lsr #29
    82e0:	005ee803 	subseq	lr, lr, r3, lsl #16
    82e4:	01040000 	mrseq	r0, (UNDEF: 4)
    82e8:	00230216 	eoreq	r0, r3, r6, lsl r2
    82ec:	000e3c09 	andeq	r3, lr, r9, lsl #24
    82f0:	5ee90300 	cdppl	3, 14, cr0, cr9, cr0, {0}
    82f4:	04000000 	streq	r0, [r0], #-0
    82f8:	23021501 	movwcs	r1, #9473	; 0x2501
    82fc:	03430900 	movteq	r0, #14592	; 0x3900
    8300:	ea030000 	b	c8308 <__bss_end+0xc5480>
    8304:	0000005e 	andeq	r0, r0, lr, asr r0
    8308:	02140104 	andseq	r0, r4, #1
    830c:	420a0023 	andmi	r0, sl, #35	; 0x23
    8310:	03003065 	movweq	r3, #101	; 0x65
    8314:	00005eeb 	andeq	r5, r0, fp, ror #29
    8318:	13010400 	movwne	r0, #5120	; 0x1400
    831c:	0a002302 	beq	10f2c <__bss_end+0xe0a4>
    8320:	00316542 	eorseq	r6, r1, r2, asr #10
    8324:	005eec03 	subseq	lr, lr, r3, lsl #24
    8328:	01040000 	mrseq	r0, (UNDEF: 4)
    832c:	00230212 	eoreq	r0, r3, r2, lsl r2
    8330:	3065460a 	rsbcc	r4, r5, sl, lsl #12
    8334:	5eed0300 	cdppl	3, 14, cr0, cr13, cr0, {0}
    8338:	04000000 	streq	r0, [r0], #-0
    833c:	23021101 	movwcs	r1, #8449	; 0x2101
    8340:	65460a00 	strbvs	r0, [r6, #-2560]	; 0xa00
    8344:	ee030031 	mcr	0, 0, r0, cr3, cr1, {1}
    8348:	0000005e 	andeq	r0, r0, lr, asr r0
    834c:	02100104 	andseq	r0, r0, #1
    8350:	46090023 	strmi	r0, [r9], -r3, lsr #32
    8354:	0300000e 	movweq	r0, #14
    8358:	00005eef 	andeq	r5, r0, pc, ror #29
    835c:	0e020400 	cfcpyseq	mvf0, mvf2
    8360:	0a002302 	beq	10f70 <__bss_end+0xe0e8>
    8364:	0300704d 	movweq	r7, #77	; 0x4d
    8368:	00005ef0 	strdeq	r5, [r0], -r0
    836c:	0d010400 	cfstrseq	mvf0, [r1, #-0]
    8370:	09002302 	stmdbeq	r0, {r1, r8, r9, sp}
    8374:	00000e50 	andeq	r0, r0, r0, asr lr
    8378:	005ef103 	subseq	pc, lr, r3, lsl #2
    837c:	01040000 	mrseq	r0, (UNDEF: 4)
    8380:	0023020c 	eoreq	r0, r3, ip, lsl #4
    8384:	7570470a 	ldrbvc	r4, [r0, #-1802]!	; 0x70a
    8388:	5ef20300 	cdppl	3, 15, cr0, cr2, cr0, {0}
    838c:	04000000 	streq	r0, [r0], #-0
    8390:	23020b01 	movwcs	r0, #11009	; 0x2b01
    8394:	03ad0900 			; <UNDEFINED> instruction: 0x03ad0900
    8398:	f3030000 	vhadd.u8	d0, d3, d0
    839c:	0000005e 	andeq	r0, r0, lr, asr r0
    83a0:	020a0104 	andeq	r0, sl, #1
    83a4:	d7090023 	strle	r0, [r9, -r3, lsr #32]
    83a8:	0300000e 	movweq	r0, #14
    83ac:	00005ef4 	strdeq	r5, [r0], -r4
    83b0:	09010400 	stmdbeq	r1, {sl}
    83b4:	09002302 	stmdbeq	r0, {r1, r8, r9, sp}
    83b8:	0000085d 	andeq	r0, r0, sp, asr r8
    83bc:	005ef503 	subseq	pc, lr, r3, lsl #10
    83c0:	01040000 	mrseq	r0, (UNDEF: 4)
    83c4:	00230208 	eoreq	r0, r3, r8, lsl #4
    83c8:	00086509 	andeq	r6, r8, r9, lsl #10
    83cc:	5ef60300 	cdppl	3, 15, cr0, cr6, cr0, {0}
    83d0:	04000000 	streq	r0, [r0], #-0
    83d4:	23020701 	movwcs	r0, #9985	; 0x2701
    83d8:	080b0900 	stmdaeq	fp, {r8, fp}
    83dc:	f7030000 			; <UNDEFINED> instruction: 0xf7030000
    83e0:	0000005e 	andeq	r0, r0, lr, asr r0
    83e4:	02060104 	andeq	r0, r6, #1
    83e8:	13090023 	movwne	r0, #36899	; 0x9023
    83ec:	03000008 	movweq	r0, #8
    83f0:	00005ef8 	strdeq	r5, [r0], -r8
    83f4:	05010400 	streq	r0, [r1, #-1024]	; 0x400
    83f8:	09002302 	stmdbeq	r0, {r1, r8, r9, sp}
    83fc:	000005b3 			; <UNDEFINED> instruction: 0x000005b3
    8400:	005ef903 	subseq	pc, lr, r3, lsl #18
    8404:	01040000 	mrseq	r0, (UNDEF: 4)
    8408:	00230204 	eoreq	r0, r3, r4, lsl #4
    840c:	000e5a09 	andeq	r5, lr, r9, lsl #20
    8410:	5efa0300 	cdppl	3, 15, cr0, cr10, cr0, {0}
    8414:	04000000 	streq	r0, [r0], #-0
    8418:	23020004 	movwcs	r0, #8196	; 0x2004
    841c:	6e030000 	cdpvs	0, 0, cr0, cr3, cr0, {0}
    8420:	0300000a 	movweq	r0, #10
    8424:	000a6dfb 	strdeq	r6, [sl], -fp
    8428:	07670800 	strbeq	r0, [r7, -r0, lsl #16]!
    842c:	03040000 	movweq	r0, #16384	; 0x4000
    8430:	000cdbfe 	strdeq	sp, [ip], -lr
    8434:	09720b00 	ldmdbeq	r2!, {r8, r9, fp}^
    8438:	00030000 	andeq	r0, r3, r0
    843c:	00005e01 	andeq	r5, r0, r1, lsl #28
    8440:	1f010400 	svcne	0x00010400
    8444:	0b002302 	bleq	11054 <__bss_end+0xe1cc>
    8448:	000007e4 	andeq	r0, r0, r4, ror #15
    844c:	5e010103 	adfpls	f0, f1, f3
    8450:	04000000 	streq	r0, [r0], #-0
    8454:	23021e01 	movwcs	r1, #11777	; 0x2e01
    8458:	0e280b00 	vmuleq.f64	d0, d8, d0
    845c:	02030000 	andeq	r0, r3, #0
    8460:	00005e01 	andeq	r5, r0, r1, lsl #28
    8464:	1c020400 	cfstrsne	mvf0, [r2], {-0}
    8468:	0b002302 	bleq	11078 <__bss_end+0xe1f0>
    846c:	000002ff 	strdeq	r0, [r0], -pc	; <UNPREDICTABLE>
    8470:	5e010303 	cdppl	3, 0, cr0, cr1, cr3, {0}
    8474:	04000000 	streq	r0, [r0], #-0
    8478:	23021b01 	movwcs	r1, #11009	; 0x2b01
    847c:	69500c00 	ldmdbvs	r0, {sl, fp}^
    8480:	0403006f 	streq	r0, [r3], #-111	; 0x6f
    8484:	00005e01 	andeq	r5, r0, r1, lsl #28
    8488:	1a010400 	bne	49490 <__bss_end+0x46608>
    848c:	0b002302 	bleq	1109c <__bss_end+0xe214>
    8490:	00000e32 	andeq	r0, r0, r2, lsr lr
    8494:	5e010503 	cfsh32pl	mvfx0, mvfx1, #3
    8498:	04000000 	streq	r0, [r0], #-0
    849c:	23021406 	movwcs	r1, #9222	; 0x2406
    84a0:	10c50b00 	sbcne	r0, r5, r0, lsl #22
    84a4:	06030000 	streq	r0, [r3], -r0
    84a8:	00005e01 	andeq	r5, r0, r1, lsl #28
    84ac:	13010400 	movwne	r0, #5120	; 0x1400
    84b0:	0b002302 	bleq	110c0 <__bss_end+0xe238>
    84b4:	000004a3 	andeq	r0, r0, r3, lsr #9
    84b8:	5e010703 	cdppl	7, 0, cr0, cr1, cr3, {0}
    84bc:	04000000 	streq	r0, [r0], #-0
    84c0:	23021201 	movwcs	r1, #8705	; 0x2201
    84c4:	0e3c0b00 	vaddeq.f64	d0, d12, d0
    84c8:	08030000 	stmdaeq	r3, {}	; <UNPREDICTABLE>
    84cc:	00005e01 	andeq	r5, r0, r1, lsl #28
    84d0:	00120400 	andseq	r0, r2, r0, lsl #8
    84d4:	00002302 	andeq	r2, r0, r2, lsl #6
    84d8:	0003b40d 	andeq	fp, r3, sp, lsl #8
    84dc:	01090300 	mrseq	r0, (UNDEF: 57)
    84e0:	00000c2c 	andeq	r0, r0, ip, lsr #24
    84e4:	0007140e 	andeq	r1, r7, lr, lsl #8
    84e8:	0c030400 	cfstrseq	mvf0, [r3], {-0}
    84ec:	000dcd01 	andeq	ip, sp, r1, lsl #26
    84f0:	05730b00 	ldrbeq	r0, [r3, #-2816]!	; 0xb00
    84f4:	0e030000 	cdpeq	0, 0, cr0, cr3, cr0, {0}
    84f8:	00005e01 	andeq	r5, r0, r1, lsl #28
    84fc:	1f010400 	svcne	0x00010400
    8500:	0b002302 	bleq	11110 <__bss_end+0xe288>
    8504:	00000578 	andeq	r0, r0, r8, ror r5
    8508:	5e010f03 	cdppl	15, 0, cr0, cr1, cr3, {0}
    850c:	04000000 	streq	r0, [r0], #-0
    8510:	23021e01 	movwcs	r1, #11777	; 0x2e01
    8514:	057d0b00 	ldrbeq	r0, [sp, #-2816]!	; 0xb00
    8518:	10030000 	andne	r0, r3, r0
    851c:	00005e01 	andeq	r5, r0, r1, lsl #28
    8520:	1d010400 	cfstrsne	mvf0, [r1, #-0]
    8524:	0b002302 	bleq	11134 <__bss_end+0xe2ac>
    8528:	00000582 	andeq	r0, r0, r2, lsl #11
    852c:	5e011103 	adfpls	f1, f1, f3
    8530:	04000000 	streq	r0, [r0], #-0
    8534:	23021c01 	movwcs	r1, #11265	; 0x2c01
    8538:	0e280b00 	vmuleq.f64	d0, d8, d0
    853c:	12030000 	andne	r0, r3, #0
    8540:	00005e01 	andeq	r5, r0, r1, lsl #28
    8544:	100c0400 	andne	r0, ip, r0, lsl #8
    8548:	0b002302 	bleq	11158 <__bss_end+0xe2d0>
    854c:	00000b27 	andeq	r0, r0, r7, lsr #22
    8550:	5e011303 	cdppl	3, 0, cr1, cr1, cr3, {0}
    8554:	04000000 	streq	r0, [r0], #-0
    8558:	23020f01 	movwcs	r0, #12033	; 0x2f01
    855c:	0f320b00 	svceq	0x00320b00
    8560:	14030000 	strne	r0, [r3], #-0
    8564:	00005e01 	andeq	r5, r0, r1, lsl #28
    8568:	0e010400 	cfcpyseq	mvf0, mvf1
    856c:	0b002302 	bleq	1117c <__bss_end+0xe2f4>
    8570:	00000f3d 	andeq	r0, r0, sp, lsr pc
    8574:	5e011503 	cfsh32pl	mvfx1, mvfx1, #3
    8578:	04000000 	streq	r0, [r0], #-0
    857c:	23020d01 	movwcs	r0, #11521	; 0x2d01
    8580:	05870b00 	streq	r0, [r7, #2816]	; 0xb00
    8584:	16030000 	strne	r0, [r3], -r0
    8588:	00005e01 	andeq	r5, r0, r1, lsl #28
    858c:	0c010400 	cfstrseq	mvf0, [r1], {-0}
    8590:	0b002302 	bleq	111a0 <__bss_end+0xe318>
    8594:	0000058d 	andeq	r0, r0, sp, lsl #11
    8598:	5e011703 	cdppl	7, 0, cr1, cr1, cr3, {0}
    859c:	04000000 	streq	r0, [r0], #-0
    85a0:	23020b01 	movwcs	r0, #11009	; 0x2b01
    85a4:	05930b00 	ldreq	r0, [r3, #2816]	; 0xb00
    85a8:	18030000 	stmdane	r3, {}	; <UNPREDICTABLE>
    85ac:	00005e01 	andeq	r5, r0, r1, lsl #28
    85b0:	0a010400 	beq	495b8 <__bss_end+0x46730>
    85b4:	0b002302 	bleq	111c4 <__bss_end+0xe33c>
    85b8:	00000e32 	andeq	r0, r0, r2, lsr lr
    85bc:	5e011903 	cdppl	9, 0, cr1, cr1, cr3, {0}
    85c0:	04000000 	streq	r0, [r0], #-0
    85c4:	2302000a 	movwcs	r0, #8202	; 0x200a
    85c8:	410d0000 	mrsmi	r0, (UNDEF: 13)
    85cc:	03000009 	movweq	r0, #9
    85d0:	0ce7011a 	stfeqe	f0, [r7], #104	; 0x68
    85d4:	c70e0000 	strgt	r0, [lr, -r0]
    85d8:	0400000a 	streq	r0, [r0], #-10
    85dc:	ad011e03 	stcge	14, cr1, [r1, #-12]
    85e0:	0b00000e 	bleq	8620 <__bss_end+0x5798>
    85e4:	00000780 	andeq	r0, r0, r0, lsl #15
    85e8:	5e012003 	cdppl	0, 0, cr2, cr1, cr3, {0}
    85ec:	04000000 	streq	r0, [r0], #-0
    85f0:	23021c04 	movwcs	r1, #11268	; 0x2c04
    85f4:	0e280b00 	vmuleq.f64	d0, d8, d0
    85f8:	21030000 	mrscs	r0, (UNDEF: 3)
    85fc:	00005e01 	andeq	r5, r0, r1, lsl #28
    8600:	18040400 	stmdane	r4, {sl}
    8604:	0b002302 	bleq	11214 <__bss_end+0xe38c>
    8608:	000009a6 	andeq	r0, r0, r6, lsr #19
    860c:	5e012203 	cdppl	2, 0, cr2, cr1, cr3, {0}
    8610:	04000000 	streq	r0, [r0], #-0
    8614:	23021503 	movwcs	r1, #9475	; 0x2503
    8618:	0e320b00 	vaddeq.f64	d0, d2, d0
    861c:	23030000 	movwcs	r0, #12288	; 0x3000
    8620:	00005e01 	andeq	r5, r0, r1, lsl #28
    8624:	10050400 	andne	r0, r5, r0, lsl #8
    8628:	0b002302 	bleq	11238 <__bss_end+0xe3b0>
    862c:	00000785 	andeq	r0, r0, r5, lsl #15
    8630:	5e012403 	cdppl	4, 0, cr2, cr1, cr3, {0}
    8634:	04000000 	streq	r0, [r0], #-0
    8638:	23020e02 	movwcs	r0, #11778	; 0x2e02
    863c:	0e3c0b00 	vaddeq.f64	d0, d12, d0
    8640:	25030000 	strcs	r0, [r3, #-0]
    8644:	00005e01 	andeq	r5, r0, r1, lsl #28
    8648:	0c020400 	cfstrseq	mvf0, [r2], {-0}
    864c:	0b002302 	bleq	1125c <__bss_end+0xe3d4>
    8650:	000004a8 	andeq	r0, r0, r8, lsr #9
    8654:	5e012603 	cfmadd32pl	mvax0, mvfx2, mvfx1, mvfx3
    8658:	04000000 	streq	r0, [r0], #-0
    865c:	23020903 	movwcs	r0, #10499	; 0x2903
    8660:	0e460b00 	vmlaeq.f64	d16, d6, d0
    8664:	27030000 	strcs	r0, [r3, -r0]
    8668:	00005e01 	andeq	r5, r0, r1, lsl #28
    866c:	08010400 	stmdaeq	r1, {sl}
    8670:	0b002302 	bleq	11280 <__bss_end+0xe3f8>
    8674:	00000f6d 	andeq	r0, r0, sp, ror #30
    8678:	5e012803 	cdppl	8, 0, cr2, cr1, cr3, {0}
    867c:	04000000 	streq	r0, [r0], #-0
    8680:	23020503 	movwcs	r0, #9475	; 0x2503
    8684:	0e500b00 	vnmlseq.f64	d16, d0, d0
    8688:	29030000 	stmdbcs	r3, {}	; <UNPREDICTABLE>
    868c:	00005e01 	andeq	r5, r0, r1, lsl #28
    8690:	01040400 	tsteq	r4, r0, lsl #8
    8694:	0b002302 	bleq	112a4 <__bss_end+0xe41c>
    8698:	000007a7 	andeq	r0, r0, r7, lsr #15
    869c:	5e012a03 	vmlapl.f32	s4, s2, s6
    86a0:	04000000 	streq	r0, [r0], #-0
    86a4:	23020001 	movwcs	r0, #8193	; 0x2001
    86a8:	590d0000 	stmdbpl	sp, {}	; <UNPREDICTABLE>
    86ac:	0300000d 	movweq	r0, #13
    86b0:	0dd9012b 	ldfeqe	f0, [r9, #172]	; 0xac
    86b4:	ef0e0000 	svc	0x000e0000
    86b8:	04000004 	streq	r0, [r0], #-4
    86bc:	0f012f03 	svceq	0x00012f03
    86c0:	0b00000f 	bleq	8704 <__bss_end+0x587c>
    86c4:	00000e28 	andeq	r0, r0, r8, lsr #28
    86c8:	5e013103 	adfpls	f3, f1, f3
    86cc:	04000000 	streq	r0, [r0], #-0
    86d0:	23021010 	movwcs	r1, #8208	; 0x2010
    86d4:	0f6d0b00 	svceq	0x006d0b00
    86d8:	32030000 	andcc	r0, r3, #0
    86dc:	00005e01 	andeq	r5, r0, r1, lsl #28
    86e0:	0e020400 	cfcpyseq	mvf0, mvf2
    86e4:	0b002302 	bleq	112f4 <__bss_end+0xe46c>
    86e8:	00000e32 	andeq	r0, r0, r2, lsr lr
    86ec:	5e013303 	cdppl	3, 0, cr3, cr1, cr3, {0}
    86f0:	04000000 	streq	r0, [r0], #-0
    86f4:	2302010d 	movwcs	r0, #8461	; 0x210d
    86f8:	07a70b00 	streq	r0, [r7, r0, lsl #22]!
    86fc:	34030000 	strcc	r0, [r3], #-0
    8700:	00005e01 	andeq	r5, r0, r1, lsl #28
    8704:	00010400 	andeq	r0, r1, r0, lsl #8
    8708:	00002302 	andeq	r2, r0, r2, lsl #6
    870c:	0006e80d 	andeq	lr, r6, sp, lsl #16
    8710:	01360300 	teqeq	r6, r0, lsl #6
    8714:	00000eb9 			; <UNDEFINED> instruction: 0x00000eb9
    8718:	000e8c0e 	andeq	r8, lr, lr, lsl #24
    871c:	3a030400 	bcc	c9724 <__bss_end+0xc689c>
    8720:	000f4d01 	andeq	r4, pc, r1, lsl #26
    8724:	0e280b00 	vmuleq.f64	d0, d8, d0
    8728:	3c030000 	stccc	0, cr0, [r3], {-0}
    872c:	00005e01 	andeq	r5, r0, r1, lsl #28
    8730:	011f0400 	tsteq	pc, r0, lsl #8
    8734:	0b002302 	bleq	11344 <__bss_end+0xe4bc>
    8738:	000007a7 	andeq	r0, r0, r7, lsr #15
    873c:	5e013d03 	cdppl	13, 0, cr3, cr1, cr3, {0}
    8740:	04000000 	streq	r0, [r0], #-0
    8744:	23020001 	movwcs	r0, #8193	; 0x2001
    8748:	8c0d0000 	stchi	0, cr0, [sp], {-0}
    874c:	03000011 	movweq	r0, #17
    8750:	0f1b013f 	svceq	0x001b013f
    8754:	e90e0000 	stmdb	lr, {}	; <UNPREDICTABLE>
    8758:	04000009 	streq	r0, [r0], #-9
    875c:	3f014203 	svccc	0x00014203
    8760:	0b000010 	bleq	87a8 <__bss_end+0x5920>
    8764:	000007ea 	andeq	r0, r0, sl, ror #15
    8768:	5e014403 	cdppl	4, 0, cr4, cr1, cr3, {0}
    876c:	04000000 	streq	r0, [r0], #-0
    8770:	23021f01 	movwcs	r1, #12033	; 0x2f01
    8774:	0fcc0b00 	svceq	0x00cc0b00
    8778:	45030000 	strmi	r0, [r3, #-0]
    877c:	00005e01 	andeq	r5, r0, r1, lsl #28
    8780:	1e010400 	cfcpysne	mvf0, mvf1
    8784:	0b002302 	bleq	11394 <__bss_end+0xe50c>
    8788:	00000a8f 	andeq	r0, r0, pc, lsl #21
    878c:	5e014603 	cfmadd32pl	mvax0, mvfx4, mvfx1, mvfx3
    8790:	04000000 	streq	r0, [r0], #-0
    8794:	23021d01 	movwcs	r1, #11521	; 0x2d01
    8798:	0e280b00 	vmuleq.f64	d0, d8, d0
    879c:	47030000 	strmi	r0, [r3, -r0]
    87a0:	00005e01 	andeq	r5, r0, r1, lsl #28
    87a4:	18050400 	stmdane	r5, {sl}
    87a8:	0b002302 	bleq	113b8 <__bss_end+0xe530>
    87ac:	00000735 	andeq	r0, r0, r5, lsr r7
    87b0:	5e014803 	cdppl	8, 0, cr4, cr1, cr3, {0}
    87b4:	04000000 	streq	r0, [r0], #-0
    87b8:	23021701 	movwcs	r1, #9985	; 0x2701
    87bc:	104c0b00 	subne	r0, ip, r0, lsl #22
    87c0:	49030000 	stmdbmi	r3, {}	; <UNPREDICTABLE>
    87c4:	00005e01 	andeq	r5, r0, r1, lsl #28
    87c8:	16010400 	strne	r0, [r1], -r0, lsl #8
    87cc:	0b002302 	bleq	113dc <__bss_end+0xe554>
    87d0:	00000bac 	andeq	r0, r0, ip, lsr #23
    87d4:	5e014a03 	vmlapl.f32	s8, s2, s6
    87d8:	04000000 	streq	r0, [r0], #-0
    87dc:	23021501 	movwcs	r1, #9473	; 0x2501
    87e0:	0e320b00 	vaddeq.f64	d0, d2, d0
    87e4:	4b030000 	blmi	c87ec <__bss_end+0xc5964>
    87e8:	00005e01 	andeq	r5, r0, r1, lsl #28
    87ec:	10050400 	andne	r0, r5, r0, lsl #8
    87f0:	0b002302 	bleq	11400 <__bss_end+0xe578>
    87f4:	00000a9a 	muleq	r0, sl, sl
    87f8:	5e014c03 	cdppl	12, 0, cr4, cr1, cr3, {0}
    87fc:	04000000 	streq	r0, [r0], #-0
    8800:	23020f01 	movwcs	r0, #12033	; 0x2f01
    8804:	07fe0b00 	ldrbeq	r0, [lr, r0, lsl #22]!
    8808:	4d030000 	stcmi	0, cr0, [r3, #-0]
    880c:	00005e01 	andeq	r5, r0, r1, lsl #28
    8810:	0e010400 	cfcpyseq	mvf0, mvf1
    8814:	0b002302 	bleq	11424 <__bss_end+0xe59c>
    8818:	0000115f 	andeq	r1, r0, pc, asr r1
    881c:	5e014e03 	cdppl	14, 0, cr4, cr1, cr3, {0}
    8820:	04000000 	streq	r0, [r0], #-0
    8824:	23020d01 	movwcs	r0, #11521	; 0x2d01
    8828:	0e3c0b00 	vaddeq.f64	d0, d12, d0
    882c:	4f030000 	svcmi	0x00030000
    8830:	00005e01 	andeq	r5, r0, r1, lsl #28
    8834:	000d0400 	andeq	r0, sp, r0, lsl #8
    8838:	00002302 	andeq	r2, r0, r2, lsl #6
    883c:	0006590d 	andeq	r5, r6, sp, lsl #18
    8840:	01500300 	cmpeq	r0, r0, lsl #6
    8844:	00000f59 	andeq	r0, r0, r9, asr pc
    8848:	0005f10e 	andeq	pc, r5, lr, lsl #2
    884c:	53030400 	movwpl	r0, #13312	; 0x3400
    8850:	0010c501 	andseq	ip, r0, r1, lsl #10
    8854:	053b0b00 	ldreq	r0, [fp, #-2816]!	; 0xb00
    8858:	55030000 	strpl	r0, [r3, #-0]
    885c:	00005e01 	andeq	r5, r0, r1, lsl #28
    8860:	1e020400 	cfcpysne	mvf0, mvf2
    8864:	0b002302 	bleq	11474 <__bss_end+0xe5ec>
    8868:	00001117 	andeq	r1, r0, r7, lsl r1
    886c:	5e015703 	cdppl	7, 0, cr5, cr1, cr3, {0}
    8870:	04000000 	streq	r0, [r0], #-0
    8874:	23021d01 	movwcs	r1, #11521	; 0x2d01
    8878:	0d1a0b00 	vldreq	d0, [sl, #-0]
    887c:	58030000 	stmdapl	r3, {}	; <UNPREDICTABLE>
    8880:	00005e01 	andeq	r5, r0, r1, lsl #28
    8884:	1c010400 	cfstrsne	mvf0, [r1], {-0}
    8888:	0b002302 	bleq	11498 <__bss_end+0xe610>
    888c:	00000bf8 	strdeq	r0, [r0], -r8
    8890:	5e015903 	cdppl	9, 0, cr5, cr1, cr3, {0}
    8894:	04000000 	streq	r0, [r0], #-0
    8898:	23021b01 	movwcs	r1, #11009	; 0x2b01
    889c:	070e0b00 	streq	r0, [lr, -r0, lsl #22]
    88a0:	5a030000 	bpl	c88a8 <__bss_end+0xc5a20>
    88a4:	00005e01 	andeq	r5, r0, r1, lsl #28
    88a8:	18030400 	stmdane	r3, {sl}
    88ac:	0b002302 	bleq	114bc <__bss_end+0xe634>
    88b0:	00000e28 	andeq	r0, r0, r8, lsr #28
    88b4:	5e015b03 	vmlapl.f64	d5, d1, d3
    88b8:	04000000 	streq	r0, [r0], #-0
    88bc:	23020018 	movwcs	r0, #8216	; 0x2018
    88c0:	270d0000 	strcs	r0, [sp, -r0]
    88c4:	03000009 	movweq	r0, #9
    88c8:	104b015c 	subne	r0, fp, ip, asr r1
    88cc:	200e0000 	andcs	r0, lr, r0
    88d0:	0400000d 	streq	r0, [r0], #-13
    88d4:	81015f03 	tsthi	r1, r3, lsl #30
    88d8:	0b000011 	bleq	8924 <__bss_end+0x5a9c>
    88dc:	00000ae5 	andeq	r0, r0, r5, ror #21
    88e0:	5e016103 	adfpls	f6, f1, f3
    88e4:	04000000 	streq	r0, [r0], #-0
    88e8:	23021c04 	movwcs	r1, #11268	; 0x2c04
    88ec:	08a20b00 	stmiaeq	r2!, {r8, r9, fp}
    88f0:	62030000 	andvs	r0, r3, #0
    88f4:	00005e01 	andeq	r5, r0, r1, lsl #28
    88f8:	1b010400 	blne	49900 <__bss_end+0x46a78>
    88fc:	0b002302 	bleq	1150c <__bss_end+0xe684>
    8900:	00000e28 	andeq	r0, r0, r8, lsr #28
    8904:	5e016303 	cdppl	3, 0, cr6, cr1, cr3, {0}
    8908:	04000000 	streq	r0, [r0], #-0
    890c:	23021803 	movwcs	r1, #10243	; 0x2803
    8910:	0fa00b00 	svceq	0x00a00b00
    8914:	64030000 	strvs	r0, [r3], #-0
    8918:	00005e01 	andeq	r5, r0, r1, lsl #28
    891c:	14040400 	strne	r0, [r4], #-1024	; 0x400
    8920:	0b002302 	bleq	11530 <__bss_end+0xe6a8>
    8924:	00000895 	muleq	r0, r5, r8
    8928:	5e016503 	cfsh32pl	mvfx6, mvfx1, #3
    892c:	04000000 	streq	r0, [r0], #-0
    8930:	23021301 	movwcs	r1, #8961	; 0x2301
    8934:	0e320b00 	vaddeq.f64	d0, d2, d0
    8938:	66030000 	strvs	r0, [r3], -r0
    893c:	00005e01 	andeq	r5, r0, r1, lsl #28
    8940:	10030400 	andne	r0, r3, r0, lsl #8
    8944:	0b002302 	bleq	11554 <__bss_end+0xe6cc>
    8948:	00000b15 	andeq	r0, r0, r5, lsl fp
    894c:	5e016703 	cdppl	7, 0, cr6, cr1, cr3, {0}
    8950:	04000000 	streq	r0, [r0], #-0
    8954:	23020f01 	movwcs	r0, #12033	; 0x2f01
    8958:	0e3c0b00 	vaddeq.f64	d0, d12, d0
    895c:	68030000 	stmdavs	r3, {}	; <UNPREDICTABLE>
    8960:	00005e01 	andeq	r5, r0, r1, lsl #28
    8964:	010e0400 	tsteq	lr, r0, lsl #8
    8968:	0b002302 	bleq	11578 <__bss_end+0xe6f0>
    896c:	00000494 	muleq	r0, r4, r4
    8970:	5e016903 	cdppl	9, 0, cr6, cr1, cr3, {0}
    8974:	04000000 	streq	r0, [r0], #-0
    8978:	23020001 	movwcs	r0, #8193	; 0x2001
    897c:	990d0000 	stmdbls	sp, {}	; <UNPREDICTABLE>
    8980:	03000005 	movweq	r0, #5
    8984:	10d1016a 	sbcsne	r0, r1, sl, ror #2
    8988:	000e0000 	andeq	r0, lr, r0
    898c:	04000004 	streq	r0, [r0], #-4
    8990:	b8016d03 	stmdalt	r1, {r0, r1, r8, sl, fp, sp, lr}
    8994:	0c000012 	stceq	0, cr0, [r0], {18}
    8998:	03006556 	movweq	r6, #1366	; 0x556
    899c:	005e016f 	subseq	r0, lr, pc, ror #2
    89a0:	01040000 	mrseq	r0, (UNDEF: 4)
    89a4:	0023021f 	eoreq	r0, r3, pc, lsl r2
    89a8:	0005550b 	andeq	r5, r5, fp, lsl #10
    89ac:	01700300 	cmneq	r0, r0, lsl #6
    89b0:	0000005e 	andeq	r0, r0, lr, asr r0
    89b4:	021e0104 	andseq	r0, lr, #1
    89b8:	280b0023 	stmdacs	fp, {r0, r1, r5}
    89bc:	0300000e 	movweq	r0, #14
    89c0:	005e0171 	subseq	r0, lr, r1, ror r1
    89c4:	01040000 	mrseq	r0, (UNDEF: 4)
    89c8:	0023021d 	eoreq	r0, r3, sp, lsl r2
    89cc:	0073540c 	rsbseq	r5, r3, ip, lsl #8
    89d0:	5e017203 	cdppl	2, 0, cr7, cr1, cr3, {0}
    89d4:	04000000 	streq	r0, [r0], #-0
    89d8:	23021c01 	movwcs	r1, #11265	; 0x2c01
    89dc:	0e320b00 	vaddeq.f64	d0, d2, d0
    89e0:	73030000 	movwvc	r0, #12288	; 0x3000
    89e4:	00005e01 	andeq	r5, r0, r1, lsl #28
    89e8:	100c0400 	andne	r0, ip, r0, lsl #8
    89ec:	0b002302 	bleq	115fc <__bss_end+0xe774>
    89f0:	0000080b 	andeq	r0, r0, fp, lsl #16
    89f4:	5e017403 	cdppl	4, 0, cr7, cr1, cr3, {0}
    89f8:	04000000 	streq	r0, [r0], #-0
    89fc:	23020f01 	movwcs	r0, #12033	; 0x2f01
    8a00:	08130b00 	ldmdaeq	r3, {r8, r9, fp}
    8a04:	75030000 	strvc	r0, [r3, #-0]
    8a08:	00005e01 	andeq	r5, r0, r1, lsl #28
    8a0c:	0e010400 	cfcpyseq	mvf0, mvf1
    8a10:	0b002302 	bleq	11620 <__bss_end+0xe798>
    8a14:	0000085d 	andeq	r0, r0, sp, asr r8
    8a18:	5e017603 	cfmadd32pl	mvax0, mvfx7, mvfx1, mvfx3
    8a1c:	04000000 	streq	r0, [r0], #-0
    8a20:	23020d01 	movwcs	r0, #11521	; 0x2d01
    8a24:	08650b00 	stmdaeq	r5!, {r8, r9, fp}^
    8a28:	77030000 	strvc	r0, [r3, -r0]
    8a2c:	00005e01 	andeq	r5, r0, r1, lsl #28
    8a30:	0c010400 	cfstrseq	mvf0, [r1], {-0}
    8a34:	0b002302 	bleq	11644 <__bss_end+0xe7bc>
    8a38:	00000e3c 	andeq	r0, r0, ip, lsr lr
    8a3c:	5e017803 	cdppl	8, 0, cr7, cr1, cr3, {0}
    8a40:	04000000 	streq	r0, [r0], #-0
    8a44:	23020804 	movwcs	r0, #10244	; 0x2804
    8a48:	65460c00 	strbvs	r0, [r6, #-3072]	; 0xc00
    8a4c:	79030030 	stmdbvc	r3, {r4, r5}
    8a50:	00005e01 	andeq	r5, r0, r1, lsl #28
    8a54:	07010400 	streq	r0, [r1, -r0, lsl #8]
    8a58:	0c002302 	stceq	3, cr2, [r0], {2}
    8a5c:	00316546 	eorseq	r6, r1, r6, asr #10
    8a60:	5e017a03 	vmlapl.f32	s14, s2, s6
    8a64:	04000000 	streq	r0, [r0], #-0
    8a68:	23020601 	movwcs	r0, #9729	; 0x2601
    8a6c:	65420c00 	strbvs	r0, [r2, #-3072]	; 0xc00
    8a70:	7b030030 	blvc	c8b38 <__bss_end+0xc5cb0>
    8a74:	00005e01 	andeq	r5, r0, r1, lsl #28
    8a78:	05010400 	streq	r0, [r1, #-1024]	; 0x400
    8a7c:	0c002302 	stceq	3, cr2, [r0], {2}
    8a80:	00316542 	eorseq	r6, r1, r2, asr #10
    8a84:	5e017c03 	cdppl	12, 0, cr7, cr1, cr3, {0}
    8a88:	04000000 	streq	r0, [r0], #-0
    8a8c:	23020401 	movwcs	r0, #9217	; 0x2401
    8a90:	704d0c00 	subvc	r0, sp, r0, lsl #24
    8a94:	017d0300 	cmneq	sp, r0, lsl #6
    8a98:	0000005e 	andeq	r0, r0, lr, asr r0
    8a9c:	02030104 	andeq	r0, r3, #1
    8aa0:	460b0023 	strmi	r0, [fp], -r3, lsr #32
    8aa4:	0300000e 	movweq	r0, #14
    8aa8:	005e017e 	subseq	r0, lr, lr, ror r1
    8aac:	03040000 	movweq	r0, #16384	; 0x4000
    8ab0:	00230200 	eoreq	r0, r3, r0, lsl #4
    8ab4:	04190d00 	ldreq	r0, [r9], #-3328	; 0xd00
    8ab8:	7f030000 	svcvc	0x00030000
    8abc:	00118d01 	andseq	r8, r1, r1, lsl #26
    8ac0:	0d380e00 	ldceq	14, cr0, [r8, #-0]
    8ac4:	03040000 	movweq	r0, #16384	; 0x4000
    8ac8:	132c0183 	teqne	ip, #-1073741792	; 0xc0000020
    8acc:	800b0000 	andhi	r0, fp, r0
    8ad0:	03000007 	movweq	r0, #7
    8ad4:	005e0185 	subseq	r0, lr, r5, lsl #3
    8ad8:	04040000 	streq	r0, [r4], #-0
    8adc:	0023021c 	eoreq	r0, r3, ip, lsl r2
    8ae0:	000e280b 	andeq	r2, lr, fp, lsl #16
    8ae4:	01860300 	orreq	r0, r6, r0, lsl #6
    8ae8:	0000005e 	andeq	r0, r0, lr, asr r0
    8aec:	02081404 	andeq	r1, r8, #67108864	; 0x4000000
    8af0:	6d0b0023 	stcvs	0, cr0, [fp, #-140]	; 0xffffff74
    8af4:	0300000f 	movweq	r0, #15
    8af8:	005e0187 	subseq	r0, lr, r7, lsl #3
    8afc:	03040000 	movweq	r0, #16384	; 0x4000
    8b00:	00230205 	eoreq	r0, r3, r5, lsl #4
    8b04:	000e320b 	andeq	r3, lr, fp, lsl #4
    8b08:	01890300 	orreq	r0, r9, r0, lsl #6
    8b0c:	0000005e 	andeq	r0, r0, lr, asr r0
    8b10:	02010404 	andeq	r0, r1, #67108864	; 0x4000000
    8b14:	a70b0023 	strge	r0, [fp, -r3, lsr #32]
    8b18:	03000007 	movweq	r0, #7
    8b1c:	005e018a 	subseq	r0, lr, sl, lsl #3
    8b20:	01040000 	mrseq	r0, (UNDEF: 4)
    8b24:	00230200 	eoreq	r0, r3, r0, lsl #4
    8b28:	04340d00 	ldrteq	r0, [r4], #-3328	; 0xd00
    8b2c:	8b030000 	blhi	c8b34 <__bss_end+0xc5cac>
    8b30:	0012c401 	andseq	ip, r2, r1, lsl #8
    8b34:	09180e00 	ldmdbeq	r8, {r9, sl, fp}
    8b38:	03040000 	movweq	r0, #16384	; 0x4000
    8b3c:	13fa018f 	mvnsne	r0, #-1073741789	; 0xc0000023
    8b40:	3b0b0000 	blcc	2c8b48 <__bss_end+0x2c5cc0>
    8b44:	03000003 	movweq	r0, #3
    8b48:	005e0191 			; <UNDEFINED> instruction: 0x005e0191
    8b4c:	04040000 	streq	r0, [r4], #-0
    8b50:	0023021c 	eoreq	r0, r3, ip, lsl r2
    8b54:	000e280b 	andeq	r2, lr, fp, lsl #16
    8b58:	01920300 	orrseq	r0, r2, r0, lsl #6
    8b5c:	0000005e 	andeq	r0, r0, lr, asr r0
    8b60:	02180404 	andseq	r0, r8, #67108864	; 0x4000000
    8b64:	b50b0023 	strlt	r0, [fp, #-35]	; 0x23
    8b68:	0300000b 	movweq	r0, #11
    8b6c:	005e0193 			; <UNDEFINED> instruction: 0x005e0193
    8b70:	03040000 	movweq	r0, #16384	; 0x4000
    8b74:	00230215 	eoreq	r0, r3, r5, lsl r2
    8b78:	000e320b 	andeq	r3, lr, fp, lsl #4
    8b7c:	01940300 	orrseq	r0, r4, r0, lsl #6
    8b80:	0000005e 	andeq	r0, r0, lr, asr r0
    8b84:	02110404 	andseq	r0, r1, #67108864	; 0x4000000
    8b88:	a60b0023 	strge	r0, [fp], -r3, lsr #32
    8b8c:	03000007 	movweq	r0, #7
    8b90:	005e0195 			; <UNDEFINED> instruction: 0x005e0195
    8b94:	01040000 	mrseq	r0, (UNDEF: 4)
    8b98:	00230210 	eoreq	r0, r3, r0, lsl r2
    8b9c:	0009960b 	andeq	r9, r9, fp, lsl #12
    8ba0:	01960300 	orrseq	r0, r6, r0, lsl #6
    8ba4:	0000005e 	andeq	r0, r0, lr, asr r0
    8ba8:	020c0404 	andeq	r0, ip, #67108864	; 0x4000000
    8bac:	3c0b0023 	stccc	0, cr0, [fp], {35}	; 0x23
    8bb0:	0300000e 	movweq	r0, #14
    8bb4:	005e0197 			; <UNDEFINED> instruction: 0x005e0197
    8bb8:	04040000 	streq	r0, [r4], #-0
    8bbc:	00230208 	eoreq	r0, r3, r8, lsl #4
    8bc0:	000be90b 	andeq	lr, fp, fp, lsl #18
    8bc4:	01980300 	orrseq	r0, r8, r0, lsl #6
    8bc8:	0000005e 	andeq	r0, r0, lr, asr r0
    8bcc:	02050304 	andeq	r0, r5, #268435456	; 0x10000000
    8bd0:	460b0023 	strmi	r0, [fp], -r3, lsr #32
    8bd4:	0300000e 	movweq	r0, #14
    8bd8:	005e019a 			; <UNDEFINED> instruction: 0x005e019a
    8bdc:	04040000 	streq	r0, [r4], #-0
    8be0:	00230201 	eoreq	r0, r3, r1, lsl #4
    8be4:	0007560b 	andeq	r5, r7, fp, lsl #12
    8be8:	019b0300 	orrseq	r0, fp, r0, lsl #6
    8bec:	0000005e 	andeq	r0, r0, lr, asr r0
    8bf0:	02000104 	andeq	r0, r0, #1
    8bf4:	0d000023 	stceq	0, cr0, [r0, #-140]	; 0xffffff74
    8bf8:	00000849 	andeq	r0, r0, r9, asr #16
    8bfc:	38019c03 	stmdacc	r1, {r0, r1, sl, fp, ip, pc}
    8c00:	0e000013 	mcreq	0, 0, r0, cr0, cr3, {0}
    8c04:	000010af 	andeq	r1, r0, pc, lsr #1
    8c08:	019f0304 	orrseq	r0, pc, r4, lsl #6
    8c0c:	0000145c 	andeq	r1, r0, ip, asr r4
    8c10:	000e280b 	andeq	r2, lr, fp, lsl #16
    8c14:	01a10300 			; <UNDEFINED> instruction: 0x01a10300
    8c18:	0000005e 	andeq	r0, r0, lr, asr r0
    8c1c:	02101004 	andseq	r1, r0, #4
    8c20:	e20b0023 	and	r0, fp, #35	; 0x23
    8c24:	03000010 	movweq	r0, #16
    8c28:	005e01a2 	subseq	r0, lr, r2, lsr #3
    8c2c:	03040000 	movweq	r0, #16384	; 0x4000
    8c30:	0023020d 	eoreq	r0, r3, sp, lsl #4
    8c34:	000e320b 	andeq	r3, lr, fp, lsl #4
    8c38:	01a30300 			; <UNDEFINED> instruction: 0x01a30300
    8c3c:	0000005e 	andeq	r0, r0, lr, asr r0
    8c40:	02010c04 	andeq	r0, r1, #1024	; 0x400
    8c44:	a70b0023 	strge	r0, [fp, -r3, lsr #32]
    8c48:	03000007 	movweq	r0, #7
    8c4c:	005e01a4 	subseq	r0, lr, r4, lsr #3
    8c50:	01040000 	mrseq	r0, (UNDEF: 4)
    8c54:	00230200 	eoreq	r0, r3, r0, lsl #4
    8c58:	0d760d00 	ldcleq	13, cr0, [r6, #-0]
    8c5c:	a5030000 	strge	r0, [r3, #-0]
    8c60:	00140601 	andseq	r0, r4, r1, lsl #12
    8c64:	0b4d0e00 	bleq	134c46c <__bss_end+0x13495e4>
    8c68:	03040000 	movweq	r0, #16384	; 0x4000
    8c6c:	14e201a8 	strbtne	r0, [r2], #424	; 0x1a8
    8c70:	e20b0000 	and	r0, fp, #0
    8c74:	03000010 	movweq	r0, #16
    8c78:	005e01aa 	subseq	r0, lr, sl, lsr #3
    8c7c:	04040000 	streq	r0, [r4], #-0
    8c80:	0023021c 	eoreq	r0, r3, ip, lsl r2
    8c84:	000e280b 	andeq	r2, lr, fp, lsl #16
    8c88:	01ab0300 			; <UNDEFINED> instruction: 0x01ab0300
    8c8c:	0000005e 	andeq	r0, r0, lr, asr r0
    8c90:	02081404 	andeq	r1, r8, #67108864	; 0x4000000
    8c94:	6d0b0023 	stcvs	0, cr0, [fp, #-140]	; 0xffffff74
    8c98:	0300000f 	movweq	r0, #15
    8c9c:	005e01ac 	subseq	r0, lr, ip, lsr #3
    8ca0:	02040000 	andeq	r0, r4, #0
    8ca4:	00230206 	eoreq	r0, r3, r6, lsl #4
    8ca8:	000e320b 	andeq	r3, lr, fp, lsl #4
    8cac:	01ad0300 			; <UNDEFINED> instruction: 0x01ad0300
    8cb0:	0000005e 	andeq	r0, r0, lr, asr r0
    8cb4:	02020404 	andeq	r0, r2, #67108864	; 0x4000000
    8cb8:	160b0023 	strne	r0, [fp], -r3, lsr #32
    8cbc:	0300000a 	movweq	r0, #10
    8cc0:	005e01ae 	subseq	r0, lr, lr, lsr #3
    8cc4:	01040000 	mrseq	r0, (UNDEF: 4)
    8cc8:	00230201 	eoreq	r0, r3, r1, lsl #4
    8ccc:	0007a70b 	andeq	sl, r7, fp, lsl #14
    8cd0:	01af0300 			; <UNDEFINED> instruction: 0x01af0300
    8cd4:	0000005e 	andeq	r0, r0, lr, asr r0
    8cd8:	02000104 	andeq	r0, r0, #1
    8cdc:	0d000023 	stceq	0, cr0, [r0, #-140]	; 0xffffff74
    8ce0:	000011a0 	andeq	r1, r0, r0, lsr #3
    8ce4:	6801b003 	stmdavs	r1, {r0, r1, ip, sp, pc}
    8ce8:	0e000014 	mcreq	0, 0, r0, cr0, cr4, {0}
    8cec:	00000bbd 			; <UNDEFINED> instruction: 0x00000bbd
    8cf0:	01b30304 			; <UNDEFINED> instruction: 0x01b30304
    8cf4:	000015b0 			; <UNDEFINED> instruction: 0x000015b0
    8cf8:	000ded0b 	andeq	lr, sp, fp, lsl #26
    8cfc:	01b50300 			; <UNDEFINED> instruction: 0x01b50300
    8d00:	0000005e 	andeq	r0, r0, lr, asr r0
    8d04:	021c0404 	andseq	r0, ip, #67108864	; 0x4000000
    8d08:	280b0023 	stmdacs	fp, {r0, r1, r5}
    8d0c:	0300000e 	movweq	r0, #14
    8d10:	005e01b6 	ldrheq	r0, [lr], #-22	; 0xffffffea
    8d14:	04040000 	streq	r0, [r4], #-0
    8d18:	00230218 	eoreq	r0, r3, r8, lsl r2
    8d1c:	00072d0b 	andeq	r2, r7, fp, lsl #26
    8d20:	01b70300 			; <UNDEFINED> instruction: 0x01b70300
    8d24:	0000005e 	andeq	r0, r0, lr, asr r0
    8d28:	02160204 	andseq	r0, r6, #1073741824	; 0x40000000
    8d2c:	320b0023 	andcc	r0, fp, #35	; 0x23
    8d30:	0300000e 	movweq	r0, #14
    8d34:	005e01b8 	ldrheq	r0, [lr], #-24	; 0xffffffe8
    8d38:	05040000 	streq	r0, [r4, #-0]
    8d3c:	00230211 	eoreq	r0, r3, r1, lsl r2
    8d40:	0005020b 	andeq	r0, r5, fp, lsl #4
    8d44:	01b90300 			; <UNDEFINED> instruction: 0x01b90300
    8d48:	0000005e 	andeq	r0, r0, lr, asr r0
    8d4c:	02100104 	andseq	r0, r0, #1
    8d50:	960b0023 	strls	r0, [fp], -r3, lsr #32
    8d54:	03000009 	movweq	r0, #9
    8d58:	005e01ba 	ldrheq	r0, [lr], #-26	; 0xffffffe6
    8d5c:	04040000 	streq	r0, [r4], #-0
    8d60:	0023020c 	eoreq	r0, r3, ip, lsl #4
    8d64:	000e3c0b 	andeq	r3, lr, fp, lsl #24
    8d68:	01bb0300 			; <UNDEFINED> instruction: 0x01bb0300
    8d6c:	0000005e 	andeq	r0, r0, lr, asr r0
    8d70:	02080404 	andeq	r0, r8, #67108864	; 0x4000000
    8d74:	e90b0023 	stmdb	fp, {r0, r1, r5}
    8d78:	0300000b 	movweq	r0, #11
    8d7c:	005e01bc 	ldrheq	r0, [lr], #-28	; 0xffffffe4
    8d80:	03040000 	movweq	r0, #16384	; 0x4000
    8d84:	00230205 	eoreq	r0, r3, r5, lsl #4
    8d88:	000e460b 	andeq	r4, lr, fp, lsl #12
    8d8c:	01bd0300 			; <UNDEFINED> instruction: 0x01bd0300
    8d90:	0000005e 	andeq	r0, r0, lr, asr r0
    8d94:	02010404 	andeq	r0, r1, #67108864	; 0x4000000
    8d98:	560b0023 	strpl	r0, [fp], -r3, lsr #32
    8d9c:	03000007 	movweq	r0, #7
    8da0:	005e01be 	ldrheq	r0, [lr], #-30	; 0xffffffe2
    8da4:	01040000 	mrseq	r0, (UNDEF: 4)
    8da8:	00230200 	eoreq	r0, r3, r0, lsl #4
    8dac:	08370d00 	ldmdaeq	r7!, {r8, sl, fp}
    8db0:	bf030000 	svclt	0x00030000
    8db4:	0014ee01 	andseq	lr, r4, r1, lsl #28
    8db8:	09bc0e00 	ldmibeq	ip!, {r9, sl, fp}
    8dbc:	03040000 	movweq	r0, #16384	; 0x4000
    8dc0:	15ee01c2 	strbne	r0, [lr, #450]!	; 0x1c2
    8dc4:	9b0b0000 	blls	2c8dcc <__bss_end+0x2c5f44>
    8dc8:	03000010 	movweq	r0, #16
    8dcc:	005e01c4 	subseq	r0, lr, r4, asr #3
    8dd0:	10040000 	andne	r0, r4, r0
    8dd4:	00230210 	eoreq	r0, r3, r0, lsl r2
    8dd8:	0010d60b 	andseq	sp, r0, fp, lsl #12
    8ddc:	01c50300 	biceq	r0, r5, r0, lsl #6
    8de0:	0000005e 	andeq	r0, r0, lr, asr r0
    8de4:	02001004 	andeq	r1, r0, #4
    8de8:	0d000023 	stceq	0, cr0, [r0, #-140]	; 0xffffff74
    8dec:	00000f10 	andeq	r0, r0, r0, lsl pc
    8df0:	bc01c603 	stclt	6, cr12, [r1], {3}
    8df4:	0e000015 	mcreq	0, 0, r0, cr0, cr5, {0}
    8df8:	000008ca 	andeq	r0, r0, sl, asr #17
    8dfc:	01c90304 	biceq	r0, r9, r4, lsl #6
    8e00:	00001810 	andeq	r1, r0, r0, lsl r8
    8e04:	000e280b 	andeq	r2, lr, fp, lsl #16
    8e08:	01cb0300 	biceq	r0, fp, r0, lsl #6
    8e0c:	0000005e 	andeq	r0, r0, lr, asr r0
    8e10:	021f0104 	andseq	r0, pc, #1
    8e14:	e70b0023 	str	r0, [fp, -r3, lsr #32]
    8e18:	03000004 	movweq	r0, #4
    8e1c:	005e01cc 	subseq	r0, lr, ip, asr #3
    8e20:	01040000 	mrseq	r0, (UNDEF: 4)
    8e24:	0023021e 	eoreq	r0, r3, lr, lsl r2
    8e28:	000e320b 	andeq	r3, lr, fp, lsl #4
    8e2c:	01cd0300 	biceq	r0, sp, r0, lsl #6
    8e30:	0000005e 	andeq	r0, r0, lr, asr r0
    8e34:	021b0304 	andseq	r0, fp, #268435456	; 0x10000000
    8e38:	530c0023 	movwpl	r0, #49187	; 0xc023
    8e3c:	ce030073 	mcrgt	0, 0, r0, cr3, cr3, {3}
    8e40:	00005e01 	andeq	r5, r0, r1, lsl #28
    8e44:	1a010400 	bne	49e4c <__bss_end+0x46fc4>
    8e48:	0c002302 	stceq	3, cr2, [r0], {2}
    8e4c:	00616d44 	rsbeq	r6, r1, r4, asr #26
    8e50:	5e01cf03 	cdppl	15, 0, cr12, cr1, cr3, {0}
    8e54:	04000000 	streq	r0, [r0], #-0
    8e58:	23021901 	movwcs	r1, #10497	; 0x2901
    8e5c:	0e3c0b00 	vaddeq.f64	d0, d12, d0
    8e60:	d0030000 	andle	r0, r3, r0
    8e64:	00005e01 	andeq	r5, r0, r1, lsl #28
    8e68:	18010400 	stmdane	r1, {sl}
    8e6c:	0c002302 	stceq	3, cr2, [r0], {2}
    8e70:	00306453 	eorseq	r6, r0, r3, asr r4
    8e74:	5e01d103 	mvfpls	f5, f3
    8e78:	04000000 	streq	r0, [r0], #-0
    8e7c:	23021701 	movwcs	r1, #9985	; 0x2701
    8e80:	64530c00 	ldrbvs	r0, [r3], #-3072	; 0xc00
    8e84:	d2030031 	andle	r0, r3, #49	; 0x31
    8e88:	00005e01 	andeq	r5, r0, r1, lsl #28
    8e8c:	16010400 	strne	r0, [r1], -r0, lsl #8
    8e90:	0c002302 	stceq	3, cr2, [r0], {2}
    8e94:	00326453 	eorseq	r6, r2, r3, asr r4
    8e98:	5e01d303 	cdppl	3, 0, cr13, cr1, cr3, {0}
    8e9c:	04000000 	streq	r0, [r0], #-0
    8ea0:	23021501 	movwcs	r1, #9473	; 0x2501
    8ea4:	64530c00 	ldrbvs	r0, [r3], #-3072	; 0xc00
    8ea8:	d4030033 	strle	r0, [r3], #-51	; 0x33
    8eac:	00005e01 	andeq	r5, r0, r1, lsl #28
    8eb0:	14010400 	strne	r0, [r1], #-1024	; 0x400
    8eb4:	0b002302 	bleq	11ac4 <__bss_end+0xec3c>
    8eb8:	00001186 	andeq	r1, r0, r6, lsl #3
    8ebc:	5e01d503 	cfsh32pl	mvfx13, mvfx1, #3
    8ec0:	04000000 	streq	r0, [r0], #-0
    8ec4:	23021301 	movwcs	r1, #8961	; 0x2301
    8ec8:	11800b00 	orrne	r0, r0, r0, lsl #22
    8ecc:	d6030000 	strle	r0, [r3], -r0
    8ed0:	00005e01 	andeq	r5, r0, r1, lsl #28
    8ed4:	12010400 	andne	r0, r1, #0
    8ed8:	0b002302 	bleq	11ae8 <__bss_end+0xec60>
    8edc:	00000990 	muleq	r0, r0, r9
    8ee0:	5e01d703 	cdppl	7, 0, cr13, cr1, cr3, {0}
    8ee4:	04000000 	streq	r0, [r0], #-0
    8ee8:	23021101 	movwcs	r1, #8449	; 0x2101
    8eec:	0e460b00 	vmlaeq.f64	d16, d6, d0
    8ef0:	d8030000 	stmdale	r3, {}	; <UNPREDICTABLE>
    8ef4:	00005e01 	andeq	r5, r0, r1, lsl #28
    8ef8:	0f020400 	svceq	0x00020400
    8efc:	0b002302 	bleq	11b0c <__bss_end+0xec84>
    8f00:	000006d7 	ldrdeq	r0, [r0], -r7
    8f04:	5e01d903 	cdppl	9, 0, cr13, cr1, cr3, {0}
    8f08:	04000000 	streq	r0, [r0], #-0
    8f0c:	23020e01 	movwcs	r0, #11777	; 0x2e01
    8f10:	73540c00 	cmpvc	r4, #0
    8f14:	01da0300 	bicseq	r0, sl, r0, lsl #6
    8f18:	0000005e 	andeq	r0, r0, lr, asr r0
    8f1c:	020d0104 	andeq	r0, sp, #1
    8f20:	d10b0023 	tstle	fp, r3, lsr #32
    8f24:	0300000e 	movweq	r0, #14
    8f28:	005e01db 	ldrsbeq	r0, [lr], #-27	; 0xffffffe5
    8f2c:	01040000 	mrseq	r0, (UNDEF: 4)
    8f30:	0023020c 	eoreq	r0, r3, ip, lsl #4
    8f34:	000eec0b 	andeq	lr, lr, fp, lsl #24
    8f38:	01dc0300 	bicseq	r0, ip, r0, lsl #6
    8f3c:	0000005e 	andeq	r0, r0, lr, asr r0
    8f40:	020b0104 	andeq	r0, fp, #1
    8f44:	f10b0023 			; <UNDEFINED> instruction: 0xf10b0023
    8f48:	0300000e 	movweq	r0, #14
    8f4c:	005e01dd 	ldrsbeq	r0, [lr], #-29	; 0xffffffe3
    8f50:	01040000 	mrseq	r0, (UNDEF: 4)
    8f54:	0023020a 	eoreq	r0, r3, sl, lsl #4
    8f58:	000ef60b 	andeq	pc, lr, fp, lsl #12
    8f5c:	01de0300 	bicseq	r0, lr, r0, lsl #6
    8f60:	0000005e 	andeq	r0, r0, lr, asr r0
    8f64:	02090104 	andeq	r0, r9, #1
    8f68:	540b0023 	strpl	r0, [fp], #-35	; 0x23
    8f6c:	0300000d 	movweq	r0, #13
    8f70:	005e01df 	ldrsbeq	r0, [lr], #-31	; 0xffffffe1
    8f74:	01040000 	mrseq	r0, (UNDEF: 4)
    8f78:	00230208 	eoreq	r0, r3, r8, lsl #4
    8f7c:	67744f0c 	ldrbvs	r4, [r4, -ip, lsl #30]!
    8f80:	01e00300 	mvneq	r0, r0, lsl #6
    8f84:	0000005e 	andeq	r0, r0, lr, asr r0
    8f88:	02070104 	andeq	r0, r7, #1
    8f8c:	500b0023 	andpl	r0, fp, r3, lsr #32
    8f90:	0300000e 	movweq	r0, #14
    8f94:	005e01e1 	subseq	r0, lr, r1, ror #3
    8f98:	01040000 	mrseq	r0, (UNDEF: 4)
    8f9c:	00230206 	eoreq	r0, r3, r6, lsl #4
    8fa0:	0004c50b 	andeq	ip, r4, fp, lsl #10
    8fa4:	01e20300 	mvneq	r0, r0, lsl #6
    8fa8:	0000005e 	andeq	r0, r0, lr, asr r0
    8fac:	02050104 	andeq	r0, r5, #1
    8fb0:	cb0b0023 	blgt	2c9044 <__bss_end+0x2c61bc>
    8fb4:	03000004 	movweq	r0, #4
    8fb8:	005e01e3 	subseq	r0, lr, r3, ror #3
    8fbc:	01040000 	mrseq	r0, (UNDEF: 4)
    8fc0:	00230204 	eoreq	r0, r3, r4, lsl #4
    8fc4:	000e5a0b 	andeq	r5, lr, fp, lsl #20
    8fc8:	01e40300 	mvneq	r0, r0, lsl #6
    8fcc:	0000005e 	andeq	r0, r0, lr, asr r0
    8fd0:	02030104 	andeq	r0, r3, #1
    8fd4:	970b0023 	strls	r0, [fp, -r3, lsr #32]
    8fd8:	0300000c 	movweq	r0, #12
    8fdc:	005e01e5 	subseq	r0, lr, r5, ror #3
    8fe0:	01040000 	mrseq	r0, (UNDEF: 4)
    8fe4:	00230202 	eoreq	r0, r3, r2, lsl #4
    8fe8:	000c9d0b 	andeq	r9, ip, fp, lsl #26
    8fec:	01e60300 	mvneq	r0, r0, lsl #6
    8ff0:	0000005e 	andeq	r0, r0, lr, asr r0
    8ff4:	02010104 	andeq	r0, r1, #1
    8ff8:	a30b0023 	movwge	r0, #45091	; 0xb023
    8ffc:	0300000c 	movweq	r0, #12
    9000:	005e01e7 	subseq	r0, lr, r7, ror #3
    9004:	01040000 	mrseq	r0, (UNDEF: 4)
    9008:	00230200 	eoreq	r0, r3, r0, lsl #4
    900c:	0a3a0d00 	beq	e8c414 <__bss_end+0xe8958c>
    9010:	e9030000 	stmdb	r3, {}	; <UNPREDICTABLE>
    9014:	0015fa01 	andseq	pc, r5, r1, lsl #20
    9018:	08ea0e00 	stmiaeq	sl!, {r9, sl, fp}^
    901c:	03040000 	movweq	r0, #16384	; 0x4000
    9020:	19ea01ec 	stmibne	sl!, {r2, r3, r5, r6, r7, r8}^
    9024:	560c0000 	strpl	r0, [ip], -r0
    9028:	ee030065 	cdp	0, 0, cr0, cr3, cr5, {3}
    902c:	00005e01 	andeq	r5, r0, r1, lsl #28
    9030:	1f010400 	svcne	0x00010400
    9034:	0b002302 	bleq	11c44 <__bss_end+0xedbc>
    9038:	00000e28 	andeq	r0, r0, r8, lsr #28
    903c:	5e01ef03 	cdppl	15, 0, cr14, cr1, cr3, {0}
    9040:	04000000 	streq	r0, [r0], #-0
    9044:	23021c03 	movwcs	r1, #11267	; 0x2c03
    9048:	0a8a0b00 	beq	fe28bc50 <__bss_end+0xfe288dc8>
    904c:	f0030000 			; <UNDEFINED> instruction: 0xf0030000
    9050:	00005e01 	andeq	r5, r0, r1, lsl #28
    9054:	1b010400 	blne	4a05c <__bss_end+0x471d4>
    9058:	0b002302 	bleq	11c68 <__bss_end+0xede0>
    905c:	00000c88 	andeq	r0, r0, r8, lsl #25
    9060:	5e01f103 	mvfpls	f7, f3
    9064:	04000000 	streq	r0, [r0], #-0
    9068:	23021a01 	movwcs	r1, #10753	; 0x2a01
    906c:	0e320b00 	vaddeq.f64	d0, d2, d0
    9070:	f2030000 	vhadd.s8	d0, d3, d0
    9074:	00005e01 	andeq	r5, r0, r1, lsl #28
    9078:	18020400 	stmdane	r2, {sl}
    907c:	0b002302 	bleq	11c8c <__bss_end+0xee04>
    9080:	00000ea3 	andeq	r0, r0, r3, lsr #29
    9084:	5e01f303 	cdppl	3, 0, cr15, cr1, cr3, {0}
    9088:	04000000 	streq	r0, [r0], #-0
    908c:	23021701 	movwcs	r1, #9985	; 0x2701
    9090:	0ea80b00 	vfmaeq.f64	d0, d8, d0
    9094:	f4030000 	vst4.8	{d0-d3}, [r3], r0
    9098:	00005e01 	andeq	r5, r0, r1, lsl #28
    909c:	16010400 	strne	r0, [r1], -r0, lsl #8
    90a0:	0b002302 	bleq	11cb0 <__bss_end+0xee28>
    90a4:	00000e3c 	andeq	r0, r0, ip, lsr lr
    90a8:	5e01f503 	cfsh32pl	mvfx15, mvfx1, #3
    90ac:	04000000 	streq	r0, [r0], #-0
    90b0:	23021501 	movwcs	r1, #9473	; 0x2501
    90b4:	03430b00 	movteq	r0, #15104	; 0x3b00
    90b8:	f6030000 			; <UNDEFINED> instruction: 0xf6030000
    90bc:	00005e01 	andeq	r5, r0, r1, lsl #28
    90c0:	14010400 	strne	r0, [r1], #-1024	; 0x400
    90c4:	0c002302 	stceq	3, cr2, [r0], {2}
    90c8:	00306542 	eorseq	r6, r0, r2, asr #10
    90cc:	5e01f703 	cdppl	7, 0, cr15, cr1, cr3, {0}
    90d0:	04000000 	streq	r0, [r0], #-0
    90d4:	23021301 	movwcs	r1, #8961	; 0x2301
    90d8:	65420c00 	strbvs	r0, [r2, #-3072]	; 0xc00
    90dc:	f8030031 			; <UNDEFINED> instruction: 0xf8030031
    90e0:	00005e01 	andeq	r5, r0, r1, lsl #28
    90e4:	12010400 	andne	r0, r1, #0
    90e8:	0c002302 	stceq	3, cr2, [r0], {2}
    90ec:	00306546 	eorseq	r6, r0, r6, asr #10
    90f0:	5e01f903 	cdppl	9, 0, cr15, cr1, cr3, {0}
    90f4:	04000000 	streq	r0, [r0], #-0
    90f8:	23021101 	movwcs	r1, #8449	; 0x2101
    90fc:	65460c00 	strbvs	r0, [r6, #-3072]	; 0xc00
    9100:	fa030031 	blx	c91cc <__bss_end+0xc6344>
    9104:	00005e01 	andeq	r5, r0, r1, lsl #28
    9108:	10010400 	andne	r0, r1, r0, lsl #8
    910c:	0b002302 	bleq	11d1c <__bss_end+0xee94>
    9110:	00000e46 	andeq	r0, r0, r6, asr #28
    9114:	5e01fb03 	vmlapl.f64	d15, d1, d3
    9118:	04000000 	streq	r0, [r0], #-0
    911c:	23020e02 	movwcs	r0, #11778	; 0x2e02
    9120:	704d0c00 	subvc	r0, sp, r0, lsl #24
    9124:	01fc0300 	mvnseq	r0, r0, lsl #6
    9128:	0000005e 	andeq	r0, r0, lr, asr r0
    912c:	020d0104 	andeq	r0, sp, #1
    9130:	500b0023 	andpl	r0, fp, r3, lsr #32
    9134:	0300000e 	movweq	r0, #14
    9138:	005e01fd 	ldrsheq	r0, [lr], #-29	; 0xffffffe3
    913c:	01040000 	mrseq	r0, (UNDEF: 4)
    9140:	0023020c 	eoreq	r0, r3, ip, lsl #4
    9144:	7570470c 	ldrbvc	r4, [r0, #-1804]!	; 0x70c
    9148:	01ff0300 	mvnseq	r0, r0, lsl #6
    914c:	0000005e 	andeq	r0, r0, lr, asr r0
    9150:	020b0104 	andeq	r0, fp, #1
    9154:	ad0b0023 	stcge	0, cr0, [fp, #-140]	; 0xffffff74
    9158:	03000003 	movweq	r0, #3
    915c:	005e0200 	subseq	r0, lr, r0, lsl #4
    9160:	01040000 	mrseq	r0, (UNDEF: 4)
    9164:	0023020a 	eoreq	r0, r3, sl, lsl #4
    9168:	000ed70b 	andeq	sp, lr, fp, lsl #14
    916c:	02010300 	andeq	r0, r1, #0
    9170:	0000005e 	andeq	r0, r0, lr, asr r0
    9174:	02090104 	andeq	r0, r9, #1
    9178:	5d0b0023 	stcpl	0, cr0, [fp, #-140]	; 0xffffff74
    917c:	03000008 	movweq	r0, #8
    9180:	005e0202 	subseq	r0, lr, r2, lsl #4
    9184:	01040000 	mrseq	r0, (UNDEF: 4)
    9188:	00230208 	eoreq	r0, r3, r8, lsl #4
    918c:	0008650b 	andeq	r6, r8, fp, lsl #10
    9190:	02030300 	andeq	r0, r3, #0
    9194:	0000005e 	andeq	r0, r0, lr, asr r0
    9198:	02070104 	andeq	r0, r7, #1
    919c:	0b0b0023 	bleq	2c9230 <__bss_end+0x2c63a8>
    91a0:	03000008 	movweq	r0, #8
    91a4:	005e0204 	subseq	r0, lr, r4, lsl #4
    91a8:	01040000 	mrseq	r0, (UNDEF: 4)
    91ac:	00230206 	eoreq	r0, r3, r6, lsl #4
    91b0:	0008130b 	andeq	r1, r8, fp, lsl #6
    91b4:	02050300 	andeq	r0, r5, #0
    91b8:	0000005e 	andeq	r0, r0, lr, asr r0
    91bc:	02050104 	andeq	r0, r5, #1
    91c0:	b30b0023 	movwlt	r0, #45091	; 0xb023
    91c4:	03000005 	movweq	r0, #5
    91c8:	005e0206 	subseq	r0, lr, r6, lsl #4
    91cc:	01040000 	mrseq	r0, (UNDEF: 4)
    91d0:	00230204 	eoreq	r0, r3, r4, lsl #4
    91d4:	000e5a0b 	andeq	r5, lr, fp, lsl #20
    91d8:	02070300 	andeq	r0, r7, #0
    91dc:	0000005e 	andeq	r0, r0, lr, asr r0
    91e0:	02000404 	andeq	r0, r0, #67108864	; 0x4000000
    91e4:	0d000023 	stceq	0, cr0, [r0, #-140]	; 0xffffff74
    91e8:	00000359 	andeq	r0, r0, r9, asr r3
    91ec:	1c020903 	stcne	9, cr0, [r2], {3}
    91f0:	0e000018 	mcreq	0, 0, r0, cr0, cr8, {0}
    91f4:	00000901 	andeq	r0, r0, r1, lsl #18
    91f8:	020c0304 	andeq	r0, ip, #268435456	; 0x10000000
    91fc:	00001a28 	andeq	r1, r0, r8, lsr #20
    9200:	0010470b 	andseq	r4, r0, fp, lsl #14
    9204:	020e0300 	andeq	r0, lr, #0
    9208:	0000005e 	andeq	r0, r0, lr, asr r0
    920c:	021f0104 	andseq	r0, pc, #1
    9210:	d60b0023 	strle	r0, [fp], -r3, lsr #32
    9214:	03000010 	movweq	r0, #16
    9218:	005e020f 	subseq	r0, lr, pc, lsl #4
    921c:	1f040000 	svcne	0x00040000
    9220:	00230200 	eoreq	r0, r3, r0, lsl #4
    9224:	0c6f0d00 	stcleq	13, cr0, [pc], #-0	; 922c <__bss_end+0x63a4>
    9228:	11030000 	mrsne	r0, (UNDEF: 3)
    922c:	0019f602 	andseq	pc, r9, r2, lsl #12
    9230:	02b90e00 	adcseq	r0, r9, #0
    9234:	03040000 	movweq	r0, #16384	; 0x4000
    9238:	1ad20214 	bne	ff489a90 <__bss_end+0xff486c08>
    923c:	720b0000 	andvc	r0, fp, #0
    9240:	03000009 	movweq	r0, #9
    9244:	005e0216 	subseq	r0, lr, r6, lsl r2
    9248:	01040000 	mrseq	r0, (UNDEF: 4)
    924c:	0023021f 	eoreq	r0, r3, pc, lsl r2
    9250:	0007e40b 	andeq	lr, r7, fp, lsl #8
    9254:	02170300 	andseq	r0, r7, #0
    9258:	0000005e 	andeq	r0, r0, lr, asr r0
    925c:	021e0104 	andseq	r0, lr, #1
    9260:	280b0023 	stmdacs	fp, {r0, r1, r5}
    9264:	0300000e 	movweq	r0, #14
    9268:	005e0218 	subseq	r0, lr, r8, lsl r2
    926c:	03040000 	movweq	r0, #16384	; 0x4000
    9270:	0023021b 	eoreq	r0, r3, fp, lsl r2
    9274:	6f69500c 	svcvs	0x0069500c
    9278:	02190300 	andseq	r0, r9, #0
    927c:	0000005e 	andeq	r0, r0, lr, asr r0
    9280:	021a0104 	andseq	r0, sl, #1
    9284:	320b0023 	andcc	r0, fp, #35	; 0x23
    9288:	0300000e 	movweq	r0, #14
    928c:	005e021a 	subseq	r0, lr, sl, lsl r2
    9290:	06040000 	streq	r0, [r4], -r0
    9294:	00230214 	eoreq	r0, r3, r4, lsl r2
    9298:	0010c50b 	andseq	ip, r0, fp, lsl #10
    929c:	021b0300 	andseq	r0, fp, #0
    92a0:	0000005e 	andeq	r0, r0, lr, asr r0
    92a4:	02130104 	andseq	r0, r3, #1
    92a8:	a30b0023 	movwge	r0, #45091	; 0xb023
    92ac:	03000004 	movweq	r0, #4
    92b0:	005e021c 	subseq	r0, lr, ip, lsl r2
    92b4:	01040000 	mrseq	r0, (UNDEF: 4)
    92b8:	00230212 	eoreq	r0, r3, r2, lsl r2
    92bc:	000e3c0b 	andeq	r3, lr, fp, lsl #24
    92c0:	021d0300 	andseq	r0, sp, #0
    92c4:	0000005e 	andeq	r0, r0, lr, asr r0
    92c8:	02001204 	andeq	r1, r0, #1073741824	; 0x40000000
    92cc:	0d000023 	stceq	0, cr0, [r0, #-140]	; 0xffffff74
    92d0:	000002e6 	andeq	r0, r0, r6, ror #5
    92d4:	34021f03 	strcc	r1, [r2], #-3843	; 0xf03
    92d8:	0e00001a 	mcreq	0, 0, r0, cr0, cr10, {0}
    92dc:	00000324 	andeq	r0, r0, r4, lsr #6
    92e0:	02220304 	eoreq	r0, r2, #268435456	; 0x10000000
    92e4:	00001bc4 	andeq	r1, r0, r4, asr #23
    92e8:	0005730b 	andeq	r7, r5, fp, lsl #6
    92ec:	02240300 	eoreq	r0, r4, #0
    92f0:	0000005e 	andeq	r0, r0, lr, asr r0
    92f4:	021f0104 	andseq	r0, pc, #1
    92f8:	780b0023 	stmdavc	fp, {r0, r1, r5}
    92fc:	03000005 	movweq	r0, #5
    9300:	005e0225 	subseq	r0, lr, r5, lsr #4
    9304:	01040000 	mrseq	r0, (UNDEF: 4)
    9308:	0023021e 	eoreq	r0, r3, lr, lsl r2
    930c:	00057d0b 	andeq	r7, r5, fp, lsl #26
    9310:	02260300 	eoreq	r0, r6, #0
    9314:	0000005e 	andeq	r0, r0, lr, asr r0
    9318:	021d0104 	andseq	r0, sp, #1
    931c:	820b0023 	andhi	r0, fp, #35	; 0x23
    9320:	03000005 	movweq	r0, #5
    9324:	005e0227 	subseq	r0, lr, r7, lsr #4
    9328:	01040000 	mrseq	r0, (UNDEF: 4)
    932c:	0023021c 	eoreq	r0, r3, ip, lsl r2
    9330:	000e280b 	andeq	r2, lr, fp, lsl #16
    9334:	02280300 	eoreq	r0, r8, #0
    9338:	0000005e 	andeq	r0, r0, lr, asr r0
    933c:	02100c04 	andseq	r0, r0, #1024	; 0x400
    9340:	270b0023 	strcs	r0, [fp, -r3, lsr #32]
    9344:	0300000b 	movweq	r0, #11
    9348:	005e0229 	subseq	r0, lr, r9, lsr #4
    934c:	01040000 	mrseq	r0, (UNDEF: 4)
    9350:	0023020f 	eoreq	r0, r3, pc, lsl #4
    9354:	000f320b 	andeq	r3, pc, fp, lsl #4
    9358:	022a0300 	eoreq	r0, sl, #0
    935c:	0000005e 	andeq	r0, r0, lr, asr r0
    9360:	020e0104 	andeq	r0, lr, #1
    9364:	3d0b0023 	stccc	0, cr0, [fp, #-140]	; 0xffffff74
    9368:	0300000f 	movweq	r0, #15
    936c:	005e022b 	subseq	r0, lr, fp, lsr #4
    9370:	01040000 	mrseq	r0, (UNDEF: 4)
    9374:	0023020d 	eoreq	r0, r3, sp, lsl #4
    9378:	0005870b 	andeq	r8, r5, fp, lsl #14
    937c:	022c0300 	eoreq	r0, ip, #0
    9380:	0000005e 	andeq	r0, r0, lr, asr r0
    9384:	020c0104 	andeq	r0, ip, #1
    9388:	8d0b0023 	stchi	0, cr0, [fp, #-140]	; 0xffffff74
    938c:	03000005 	movweq	r0, #5
    9390:	005e022d 	subseq	r0, lr, sp, lsr #4
    9394:	01040000 	mrseq	r0, (UNDEF: 4)
    9398:	0023020b 	eoreq	r0, r3, fp, lsl #4
    939c:	0005930b 	andeq	r9, r5, fp, lsl #6
    93a0:	022e0300 	eoreq	r0, lr, #0
    93a4:	0000005e 	andeq	r0, r0, lr, asr r0
    93a8:	020a0104 	andeq	r0, sl, #1
    93ac:	320b0023 	andcc	r0, fp, #35	; 0x23
    93b0:	0300000e 	movweq	r0, #14
    93b4:	005e022f 	subseq	r0, lr, pc, lsr #4
    93b8:	0a040000 	beq	1093c0 <__bss_end+0x106538>
    93bc:	00230200 	eoreq	r0, r3, r0, lsl #4
    93c0:	05d80d00 	ldrbeq	r0, [r8, #3328]	; 0xd00
    93c4:	31030000 	mrscc	r0, (UNDEF: 3)
    93c8:	001ade02 	andseq	sp, sl, r2, lsl #28
    93cc:	0aeb0e00 	beq	ffaccbd4 <__bss_end+0xffac9d4c>
    93d0:	03040000 	movweq	r0, #16384	; 0x4000
    93d4:	1c6e0234 	sfmne	f0, 2, [lr], #-208	; 0xffffff30
    93d8:	280b0000 	stmdacs	fp, {}	; <UNPREDICTABLE>
    93dc:	0300000e 	movweq	r0, #14
    93e0:	005e0236 	subseq	r0, lr, r6, lsr r2
    93e4:	08040000 	stmdaeq	r4, {}	; <UNPREDICTABLE>
    93e8:	00230218 	eoreq	r0, r3, r8, lsl r2
    93ec:	0007800b 	andeq	r8, r7, fp
    93f0:	02370300 	eorseq	r0, r7, #0
    93f4:	0000005e 	andeq	r0, r0, lr, asr r0
    93f8:	02130504 	andseq	r0, r3, #16777216	; 0x1000000
    93fc:	320b0023 	andcc	r0, fp, #35	; 0x23
    9400:	0300000e 	movweq	r0, #14
    9404:	005e0238 	subseq	r0, lr, r8, lsr r2
    9408:	07040000 	streq	r0, [r4, -r0]
    940c:	0023020c 	eoreq	r0, r3, ip, lsl #4
    9410:	0007850b 	andeq	r8, r7, fp, lsl #10
    9414:	02390300 	eorseq	r0, r9, #0
    9418:	0000005e 	andeq	r0, r0, lr, asr r0
    941c:	020a0204 	andeq	r0, sl, #1073741824	; 0x40000000
    9420:	3c0b0023 	stccc	0, cr0, [fp], {35}	; 0x23
    9424:	0300000e 	movweq	r0, #14
    9428:	005e023a 	subseq	r0, lr, sl, lsr r2
    942c:	02040000 	andeq	r0, r4, #0
    9430:	00230208 	eoreq	r0, r3, r8, lsl #4
    9434:	000f6d0b 	andeq	r6, pc, fp, lsl #26
    9438:	023b0300 	eorseq	r0, fp, #0
    943c:	0000005e 	andeq	r0, r0, lr, asr r0
    9440:	02040404 	andeq	r0, r4, #67108864	; 0x4000000
    9444:	460b0023 	strmi	r0, [fp], -r3, lsr #32
    9448:	0300000e 	movweq	r0, #14
    944c:	005e023c 	subseq	r0, lr, ip, lsr r2
    9450:	03040000 	movweq	r0, #16384	; 0x4000
    9454:	00230201 	eoreq	r0, r3, r1, lsl #4
    9458:	0011c60b 	andseq	ip, r1, fp, lsl #12
    945c:	023d0300 	eorseq	r0, sp, #0
    9460:	0000005e 	andeq	r0, r0, lr, asr r0
    9464:	02000104 	andeq	r0, r0, #1
    9468:	0d000023 	stceq	0, cr0, [r0, #-140]	; 0xffffff74
    946c:	00000c2d 	andeq	r0, r0, sp, lsr #24
    9470:	d0023f03 	andle	r3, r2, r3, lsl #30
    9474:	0f00001b 	svceq	0x0000001b
    9478:	00001137 	andeq	r1, r0, r7, lsr r1
    947c:	4203030c 	andmi	r0, r3, #805306368	; 0x30000000
    9480:	00235702 	eoreq	r5, r3, r2, lsl #14
    9484:	095c1000 	ldmdbeq	ip, {ip}^
    9488:	44030000 	strmi	r0, [r3], #-0
    948c:	00235702 	eoreq	r5, r3, r2, lsl #14
    9490:	00230200 	eoreq	r0, r3, r0, lsl #4
    9494:	000e2810 	andeq	r2, lr, r0, lsl r8
    9498:	02450300 	subeq	r0, r5, #0
    949c:	0000007e 	andeq	r0, r0, lr, ror r0
    94a0:	10042302 	andne	r2, r4, r2, lsl #6
    94a4:	0000054d 	andeq	r0, r0, sp, asr #10
    94a8:	5c024603 	stcpl	6, cr4, [r2], {3}
    94ac:	02000023 	andeq	r0, r0, #35	; 0x23
    94b0:	32100823 	andscc	r0, r0, #2293760	; 0x230000
    94b4:	0300000e 	movweq	r0, #14
    94b8:	007e0247 	rsbseq	r0, lr, r7, asr #4
    94bc:	23020000 	movwcs	r0, #8192	; 0x2000
    94c0:	0b8e100c 	bleq	fe38d4f8 <__bss_end+0xfe38a670>
    94c4:	48030000 	stmdami	r3, {}	; <UNPREDICTABLE>
    94c8:	00236102 	eoreq	r6, r3, r2, lsl #2
    94cc:	10230200 	eorne	r0, r3, r0, lsl #4
    94d0:	000e3c10 	andeq	r3, lr, r0, lsl ip
    94d4:	02490300 	subeq	r0, r9, #0
    94d8:	0000007e 	andeq	r0, r0, lr, ror r0
    94dc:	10142302 	andsne	r2, r4, r2, lsl #6
    94e0:	000004bd 			; <UNDEFINED> instruction: 0x000004bd
    94e4:	61024a03 	tstvs	r2, r3, lsl #20
    94e8:	02000023 	andeq	r0, r0, #35	; 0x23
    94ec:	46101823 	ldrmi	r1, [r0], -r3, lsr #16
    94f0:	0300000e 	movweq	r0, #14
    94f4:	007e024b 	rsbseq	r0, lr, fp, asr #4
    94f8:	23020000 	movwcs	r0, #8192	; 0x2000
    94fc:	0d6e101c 	stcleq	0, cr1, [lr, #-112]!	; 0xffffff90
    9500:	4c030000 	stcmi	0, cr0, [r3], {-0}
    9504:	00236602 	eoreq	r6, r3, r2, lsl #12
    9508:	20230200 	eorcs	r0, r3, r0, lsl #4
    950c:	000e5010 	andeq	r5, lr, r0, lsl r0
    9510:	024d0300 	subeq	r0, sp, #0
    9514:	0000007e 	andeq	r0, r0, lr, ror r0
    9518:	10242302 	eorne	r2, r4, r2, lsl #6
    951c:	00001064 	andeq	r1, r0, r4, rrx
    9520:	6b024e03 	blvs	9cd34 <__bss_end+0x99eac>
    9524:	02000023 	andeq	r0, r0, #35	; 0x23
    9528:	5a102823 	bpl	4135bc <__bss_end+0x410734>
    952c:	0300000e 	movweq	r0, #14
    9530:	007e024f 	rsbseq	r0, lr, pc, asr #4
    9534:	23020000 	movwcs	r0, #8192	; 0x2000
    9538:	0f01102c 	svceq	0x0001102c
    953c:	50030000 	andpl	r0, r3, r0
    9540:	00236102 	eoreq	r6, r3, r2, lsl #2
    9544:	30230200 	eorcc	r0, r3, r0, lsl #4
    9548:	000e6410 	andeq	r6, lr, r0, lsl r4
    954c:	02510300 	subseq	r0, r1, #0
    9550:	0000007e 	andeq	r0, r0, lr, ror r0
    9554:	10342302 	eorsne	r2, r4, r2, lsl #6
    9558:	0000099e 	muleq	r0, lr, r9
    955c:	61025203 	tstvs	r2, r3, lsl #4
    9560:	02000023 	andeq	r0, r0, #35	; 0x23
    9564:	6e103823 	cdpvs	8, 1, cr3, cr0, cr3, {1}
    9568:	0300000e 	movweq	r0, #14
    956c:	007e0253 	rsbseq	r0, lr, r3, asr r2
    9570:	23020000 	movwcs	r0, #8192	; 0x2000
    9574:	064e103c 			; <UNDEFINED> instruction: 0x064e103c
    9578:	54030000 	strpl	r0, [r3], #-0
    957c:	00237002 	eoreq	r7, r3, r2
    9580:	40230200 	eormi	r0, r3, r0, lsl #4
    9584:	0011e210 	andseq	lr, r1, r0, lsl r2
    9588:	02550300 	subseq	r0, r5, #0
    958c:	00002361 	andeq	r2, r0, r1, ror #6
    9590:	10442302 	subne	r2, r4, r2, lsl #6
    9594:	000004b4 			; <UNDEFINED> instruction: 0x000004b4
    9598:	61025603 	tstvs	r2, r3, lsl #12
    959c:	02000023 	andeq	r0, r0, #35	; 0x23
    95a0:	78104823 	ldmdavc	r0, {r0, r1, r5, fp, lr}
    95a4:	0300000e 	movweq	r0, #14
    95a8:	007e0257 	rsbseq	r0, lr, r7, asr r2
    95ac:	23020000 	movwcs	r0, #8192	; 0x2000
    95b0:	0b96104c 	bleq	fe58d6e8 <__bss_end+0xfe58a860>
    95b4:	58030000 	stmdapl	r3, {}	; <UNPREDICTABLE>
    95b8:	00237502 	eoreq	r7, r3, r2, lsl #10
    95bc:	50230200 	eorpl	r0, r3, r0, lsl #4
    95c0:	000b6510 	andeq	r6, fp, r0, lsl r5
    95c4:	02590300 	subseq	r0, r9, #0
    95c8:	0000237a 	andeq	r2, r0, sl, ror r3
    95cc:	10542302 	subsne	r2, r4, r2, lsl #6
    95d0:	000006a3 	andeq	r0, r0, r3, lsr #13
    95d4:	7f025a03 	svcvc	0x00025a03
    95d8:	02000023 	andeq	r0, r0, #35	; 0x23
    95dc:	55105823 	ldrpl	r5, [r0, #-2083]	; 0x823
    95e0:	03000010 	movweq	r0, #16
    95e4:	2384025b 	orrcs	r0, r4, #-1342177275	; 0xb0000005
    95e8:	23020000 	movwcs	r0, #8192	; 0x2000
    95ec:	08e1105c 	stmiaeq	r1!, {r2, r3, r4, r6, ip}^
    95f0:	5c030000 	stcpl	0, cr0, [r3], {-0}
    95f4:	00238902 	eoreq	r8, r3, r2, lsl #18
    95f8:	60230200 	eorvs	r0, r3, r0, lsl #4
    95fc:	00079d10 	andeq	r9, r7, r0, lsl sp
    9600:	025d0300 	subseq	r0, sp, #0
    9604:	0000238e 	andeq	r2, r0, lr, lsl #7
    9608:	10642302 	rsbne	r2, r4, r2, lsl #6
    960c:	000010e9 	andeq	r1, r0, r9, ror #1
    9610:	93025e03 	movwls	r5, #11779	; 0x2e03
    9614:	02000023 	andeq	r0, r0, #35	; 0x23
    9618:	4d106823 	ldcmi	8, cr6, [r0, #-140]	; 0xffffff74
    961c:	03000007 	movweq	r0, #7
    9620:	2398025f 	orrscs	r0, r8, #-268435451	; 0xf0000005
    9624:	23020000 	movwcs	r0, #8192	; 0x2000
    9628:	0e82106c 	cdpeq	0, 8, cr1, cr2, cr12, {3}
    962c:	60030000 	andvs	r0, r3, r0
    9630:	00239d02 	eoreq	r9, r3, r2, lsl #26
    9634:	70230200 	eorvc	r0, r3, r0, lsl #4
    9638:	00118010 	andseq	r8, r1, r0, lsl r0
    963c:	02610300 	rsbeq	r0, r1, #0
    9640:	000023a2 	andeq	r2, r0, r2, lsr #7
    9644:	01802303 	orreq	r2, r0, r3, lsl #6
    9648:	00118610 	andseq	r8, r1, r0, lsl r6
    964c:	02620300 	rsbeq	r0, r2, #0
    9650:	000023a2 	andeq	r2, r0, r2, lsr #7
    9654:	01842303 	orreq	r2, r4, r3, lsl #6
    9658:	30645311 	rsbcc	r5, r4, r1, lsl r3
    965c:	02630300 	rsbeq	r0, r3, #0
    9660:	000023a2 	andeq	r2, r0, r2, lsr #7
    9664:	01882303 	orreq	r2, r8, r3, lsl #6
    9668:	31645311 	cmncc	r4, r1, lsl r3
    966c:	02640300 	rsbeq	r0, r4, #0
    9670:	000023a2 	andeq	r2, r0, r2, lsr #7
    9674:	018c2303 	orreq	r2, ip, r3, lsl #6
    9678:	32645311 	rsbcc	r5, r4, #1140850688	; 0x44000000
    967c:	02650300 	rsbeq	r0, r5, #0
    9680:	000023a2 	andeq	r2, r0, r2, lsr #7
    9684:	01902303 	orrseq	r2, r0, r3, lsl #6
    9688:	33645311 	cmncc	r4, #1140850688	; 0x44000000
    968c:	02660300 	rsbeq	r0, r6, #0
    9690:	000023a2 	andeq	r2, r0, r2, lsr #7
    9694:	01942303 	orrseq	r2, r4, r3, lsl #6
    9698:	00735411 	rsbseq	r5, r3, r1, lsl r4
    969c:	a2026703 	andge	r6, r2, #786432	; 0xc0000
    96a0:	03000023 	movweq	r0, #35	; 0x23
    96a4:	11019823 	tstne	r1, r3, lsr #16
    96a8:	03007353 	movweq	r7, #851	; 0x353
    96ac:	23a20268 			; <UNDEFINED> instruction: 0x23a20268
    96b0:	23030000 	movwcs	r0, #12288	; 0x3000
    96b4:	ec10019c 	ldfs	f0, [r0], {156}	; 0x9c
    96b8:	0300000e 	movweq	r0, #14
    96bc:	23a20269 			; <UNDEFINED> instruction: 0x23a20269
    96c0:	23030000 	movwcs	r0, #12288	; 0x3000
    96c4:	f11001a0 			; <UNDEFINED> instruction: 0xf11001a0
    96c8:	0300000e 	movweq	r0, #14
    96cc:	23a2026a 			; <UNDEFINED> instruction: 0x23a2026a
    96d0:	23030000 	movwcs	r0, #12288	; 0x3000
    96d4:	f61001a4 			; <UNDEFINED> instruction: 0xf61001a4
    96d8:	0300000e 	movweq	r0, #14
    96dc:	23a2026b 			; <UNDEFINED> instruction: 0x23a2026b
    96e0:	23030000 	movwcs	r0, #12288	; 0x3000
    96e4:	541001a8 	ldrpl	r0, [r0], #-424	; 0x1a8
    96e8:	0300000d 	movweq	r0, #13
    96ec:	23a2026c 			; <UNDEFINED> instruction: 0x23a2026c
    96f0:	23030000 	movwcs	r0, #12288	; 0x3000
    96f4:	c51001ac 	ldrgt	r0, [r0, #-428]	; 0x1ac
    96f8:	03000010 	movweq	r0, #16
    96fc:	23a7026d 			; <UNDEFINED> instruction: 0x23a7026d
    9700:	23030000 	movwcs	r0, #12288	; 0x3000
    9704:	a31001b0 	tstge	r0, #44	; 0x2c
    9708:	03000004 	movweq	r0, #4
    970c:	23a7026e 			; <UNDEFINED> instruction: 0x23a7026e
    9710:	23030000 	movwcs	r0, #12288	; 0x3000
    9714:	b11001b4 			; <UNDEFINED> instruction: 0xb11001b4
    9718:	03000009 	movweq	r0, #9
    971c:	23ac026f 			; <UNDEFINED> instruction: 0x23ac026f
    9720:	23030000 	movwcs	r0, #12288	; 0x3000
    9724:	e41001b8 	ldr	r0, [r0], #-440	; 0x1b8
    9728:	03000007 	movweq	r0, #7
    972c:	23a70270 			; <UNDEFINED> instruction: 0x23a70270
    9730:	23030000 	movwcs	r0, #12288	; 0x3000
    9734:	2d1001c0 	ldfcss	f0, [r0, #-768]	; 0xfffffd00
    9738:	0300000b 	movweq	r0, #11
    973c:	23b10271 			; <UNDEFINED> instruction: 0x23b10271
    9740:	23030000 	movwcs	r0, #12288	; 0x3000
    9744:	551101c4 	ldrpl	r0, [r1, #-452]	; 0x1c4
    9748:	03006273 	movweq	r6, #627	; 0x273
    974c:	23b60272 			; <UNDEFINED> instruction: 0x23b60272
    9750:	23030000 	movwcs	r0, #12288	; 0x3000
    9754:	d71001cc 	ldrle	r0, [r0, -ip, asr #3]
    9758:	03000006 	movweq	r0, #6
    975c:	23bb0273 			; <UNDEFINED> instruction: 0x23bb0273
    9760:	23030000 	movwcs	r0, #12288	; 0x3000
    9764:	d31001d0 	tstle	r0, #52	; 0x34
    9768:	03000009 	movweq	r0, #9
    976c:	23d00274 	bicscs	r0, r0, #1073741831	; 0x40000007
    9770:	23030000 	movwcs	r0, #12288	; 0x3000
    9774:	aa1001d4 	bge	409ecc <__bss_end+0x407044>
    9778:	0300000a 	movweq	r0, #10
    977c:	23a20275 			; <UNDEFINED> instruction: 0x23a20275
    9780:	23030000 	movwcs	r0, #12288	; 0x3000
    9784:	931001f0 	tstls	r0, #60	; 0x3c
    9788:	0300000f 	movweq	r0, #15
    978c:	23d50276 	bicscs	r0, r5, #1610612743	; 0x60000007
    9790:	23030000 	movwcs	r0, #12288	; 0x3000
    9794:	de1001f4 	mrcle	1, 0, r0, cr0, cr4, {7}
    9798:	03000009 	movweq	r0, #9
    979c:	23da0277 	bicscs	r0, sl, #1879048199	; 0x70000007
    97a0:	23030000 	movwcs	r0, #12288	; 0x3000
    97a4:	cb1001f8 	blgt	409f8c <__bss_end+0x407104>
    97a8:	0300000c 	movweq	r0, #12
    97ac:	23df0278 	bicscs	r0, pc, #-2147483641	; 0x80000007
    97b0:	23030000 	movwcs	r0, #12288	; 0x3000
    97b4:	42110280 	andsmi	r0, r1, #8
    97b8:	03003065 	movweq	r3, #101	; 0x65
    97bc:	23e40279 	mvncs	r0, #-1879048185	; 0x90000007
    97c0:	23030000 	movwcs	r0, #12288	; 0x3000
    97c4:	42110284 	andsmi	r0, r1, #1073741832	; 0x40000008
    97c8:	03003165 	movweq	r3, #357	; 0x165
    97cc:	23e4027a 	mvncs	r0, #-1610612729	; 0xa0000007
    97d0:	23030000 	movwcs	r0, #12288	; 0x3000
    97d4:	46110288 	ldrmi	r0, [r1], -r8, lsl #5
    97d8:	03003065 	movweq	r3, #101	; 0x65
    97dc:	23e4027b 	mvncs	r0, #-1342177273	; 0xb0000007
    97e0:	23030000 	movwcs	r0, #12288	; 0x3000
    97e4:	4611028c 	ldrmi	r0, [r1], -ip, lsl #5
    97e8:	03003165 	movweq	r3, #357	; 0x165
    97ec:	23e4027c 	mvncs	r0, #-1073741817	; 0xc0000007
    97f0:	23030000 	movwcs	r0, #12288	; 0x3000
    97f4:	4d110290 	lfmmi	f0, 4, [r1, #-576]	; 0xfffffdc0
    97f8:	7d030070 	stcvc	0, cr0, [r3, #-448]	; 0xfffffe40
    97fc:	0023e402 	eoreq	lr, r3, r2, lsl #8
    9800:	94230300 	strtls	r0, [r3], #-768	; 0x300
    9804:	03da1002 	bicseq	r1, sl, #2
    9808:	7e030000 	cdpvc	0, 0, cr0, cr3, cr0, {0}
    980c:	0023e402 	eoreq	lr, r3, r2, lsl #8
    9810:	98230300 	stmdals	r3!, {r8, r9}
    9814:	0cee1002 	stcleq	0, cr1, [lr], #8
    9818:	7f030000 	svcvc	0x00030000
    981c:	0023e402 	eoreq	lr, r3, r2, lsl #8
    9820:	9c230300 	stcls	3, cr0, [r3], #-0
    9824:	0b421002 	bleq	108d834 <__bss_end+0x108a9ac>
    9828:	80030000 	andhi	r0, r3, r0
    982c:	0023f902 	eoreq	pc, r3, r2, lsl #18
    9830:	a0230300 	eorge	r0, r3, r0, lsl #6
    9834:	03e21002 	mvneq	r1, #2
    9838:	81030000 	mrshi	r0, (UNDEF: 3)
    983c:	0023e402 	eoreq	lr, r3, r2, lsl #8
    9840:	ac230300 	stcge	3, cr0, [r3], #-0
    9844:	0cf61002 	ldcleq	0, cr1, [r6], #8
    9848:	82030000 	andhi	r0, r3, #0
    984c:	0023e402 	eoreq	lr, r3, r2, lsl #8
    9850:	b0230300 	eorlt	r0, r3, r0, lsl #6
    9854:	0ea31002 	cdpeq	0, 10, cr1, cr3, cr2, {0}
    9858:	83030000 	movwhi	r0, #12288	; 0x3000
    985c:	0023fe02 	eoreq	pc, r3, r2, lsl #28
    9860:	b4230300 	strtlt	r0, [r3], #-768	; 0x300
    9864:	0ea81002 	cdpeq	0, 10, cr1, cr8, cr2, {0}
    9868:	84030000 	strhi	r0, [r3], #-0
    986c:	0023fe02 	eoreq	pc, r3, r2, lsl #28
    9870:	b8230300 	stmdalt	r3!, {r8, r9}
    9874:	65561102 	ldrbvs	r1, [r6, #-258]	; 0x102
    9878:	02850300 	addeq	r0, r5, #0
    987c:	00002403 	andeq	r2, r0, r3, lsl #8
    9880:	02bc2303 	adcseq	r2, ip, #201326592	; 0xc000000
    9884:	00097210 	andeq	r7, r9, r0, lsl r2
    9888:	02860300 	addeq	r0, r6, #0
    988c:	000023a7 	andeq	r2, r0, r7, lsr #7
    9890:	02c02303 	sbceq	r2, r0, #201326592	; 0xc000000
    9894:	73764111 	cmnvc	r6, #1073741828	; 0x40000004
    9898:	02870300 	addeq	r0, r7, #0
    989c:	00002408 	andeq	r2, r0, r8, lsl #8
    98a0:	02c42303 	sbceq	r2, r4, #201326592	; 0xc000000
    98a4:	0002ff10 	andeq	pc, r2, r0, lsl pc	; <UNPREDICTABLE>
    98a8:	02880300 	addeq	r0, r8, #0
    98ac:	000023a7 	andeq	r2, r0, r7, lsr #7
    98b0:	02c82303 	sbceq	r2, r8, #201326592	; 0xc000000
    98b4:	000a0010 	andeq	r0, sl, r0, lsl r0
    98b8:	02890300 	addeq	r0, r9, #0
    98bc:	0000007e 	andeq	r0, r0, lr, ror r0
    98c0:	02cc2303 	sbceq	r2, ip, #201326592	; 0xc000000
    98c4:	00034310 	andeq	r4, r3, r0, lsl r3
    98c8:	028a0300 	addeq	r0, sl, #0
    98cc:	0000240d 	andeq	r2, r0, sp, lsl #8
    98d0:	02d02303 	sbcseq	r2, r0, #201326592	; 0xc000000
    98d4:	00735011 	rsbseq	r5, r3, r1, lsl r0
    98d8:	a7028b03 	strge	r8, [r2, -r3, lsl #22]
    98dc:	03000023 	movweq	r0, #35	; 0x23
    98e0:	1002d423 	andne	sp, r2, r3, lsr #8
    98e4:	000005b3 			; <UNDEFINED> instruction: 0x000005b3
    98e8:	a2028c03 	andge	r8, r2, #768	; 0x300
    98ec:	03000023 	movweq	r0, #35	; 0x23
    98f0:	1002d823 	andne	sp, r2, r3, lsr #16
    98f4:	00000471 	andeq	r0, r0, r1, ror r4
    98f8:	a2028d03 	andge	r8, r2, #192	; 0xc0
    98fc:	03000023 	movweq	r0, #35	; 0x23
    9900:	1002dc23 	andne	sp, r2, r3, lsr #24
    9904:	0000047e 	andeq	r0, r0, lr, ror r4
    9908:	a2028e03 	andge	r8, r2, #48	; 0x30
    990c:	03000023 	movweq	r0, #35	; 0x23
    9910:	1002e023 	andne	lr, r2, r3, lsr #32
    9914:	00000a0b 	andeq	r0, r0, fp, lsl #20
    9918:	7e028f03 	cdpvc	15, 0, cr8, cr2, cr3, {0}
    991c:	03000000 	movweq	r0, #0
    9920:	1002e423 	andne	lr, r2, r3, lsr #8
    9924:	000004e7 	andeq	r0, r0, r7, ror #9
    9928:	12029003 	andne	r9, r2, #3
    992c:	03000024 	movweq	r0, #36	; 0x24
    9930:	1002e823 	andne	lr, r2, r3, lsr #16
    9934:	00000e0f 	andeq	r0, r0, pc, lsl #28
    9938:	12029103 	andne	r9, r2, #-1073741824	; 0xc0000000
    993c:	03000024 	movweq	r0, #36	; 0x24
    9940:	1002ec23 	andne	lr, r2, r3, lsr #24
    9944:	00000b6d 	andeq	r0, r0, sp, ror #22
    9948:	17029203 	strne	r9, [r2, -r3, lsl #4]
    994c:	03000024 	movweq	r0, #36	; 0x24
    9950:	1002f023 	andne	pc, r2, r3, lsr #32
    9954:	00000808 	andeq	r0, r0, r8, lsl #16
    9958:	a2029303 	andge	r9, r2, #201326592	; 0xc000000
    995c:	03000023 	movweq	r0, #35	; 0x23
    9960:	10038023 	andne	r8, r3, r3, lsr #32
    9964:	00000810 	andeq	r0, r0, r0, lsl r8
    9968:	a2029403 	andge	r9, r2, #50331648	; 0x3000000
    996c:	03000023 	movweq	r0, #35	; 0x23
    9970:	10038423 	andne	r8, r3, r3, lsr #8
    9974:	0000085a 	andeq	r0, r0, sl, asr r8
    9978:	a2029503 	andge	r9, r2, #12582912	; 0xc00000
    997c:	03000023 	movweq	r0, #35	; 0x23
    9980:	10038823 	andne	r8, r3, r3, lsr #16
    9984:	00000862 	andeq	r0, r0, r2, ror #16
    9988:	a2029603 	andge	r9, r2, #3145728	; 0x300000
    998c:	03000023 	movweq	r0, #35	; 0x23
    9990:	10038c23 	andne	r8, r3, r3, lsr #24
    9994:	00000a1e 	andeq	r0, r0, lr, lsl sl
    9998:	1c029703 	stcne	7, cr9, [r2], {3}
    999c:	03000024 	movweq	r0, #36	; 0x24
    99a0:	10039023 	andne	r9, r3, r3, lsr #32
    99a4:	00000745 	andeq	r0, r0, r5, asr #14
    99a8:	a2029803 	andge	r9, r2, #196608	; 0x30000
    99ac:	03000023 	movweq	r0, #35	; 0x23
    99b0:	1003a023 	andne	sl, r3, r3, lsr #32
    99b4:	0000073e 	andeq	r0, r0, lr, lsr r7
    99b8:	a2029903 	andge	r9, r2, #49152	; 0xc000
    99bc:	03000023 	movweq	r0, #35	; 0x23
    99c0:	1003a423 	andne	sl, r3, r3, lsr #8
    99c4:	00000bf1 	strdeq	r0, [r0], -r1
    99c8:	a2029a03 	andge	r9, r2, #12288	; 0x3000
    99cc:	03000023 	movweq	r0, #35	; 0x23
    99d0:	1003a823 	andne	sl, r3, r3, lsr #16
    99d4:	00000b78 	andeq	r0, r0, r8, ror fp
    99d8:	31029b03 	tstcc	r2, r3, lsl #22
    99dc:	03000024 	movweq	r0, #36	; 0x24
    99e0:	1003ac23 	andne	sl, r3, r3, lsr #24
    99e4:	000007dc 	ldrdeq	r0, [r0], -ip
    99e8:	36029d03 	strcc	r9, [r2], -r3, lsl #26
    99ec:	03000024 	movweq	r0, #36	; 0x24
    99f0:	10048023 	andne	r8, r4, r3, lsr #32
    99f4:	00000c5e 	andeq	r0, r0, lr, asr ip
    99f8:	7e029e03 	cdpvc	14, 0, cr9, cr2, cr3, {0}
    99fc:	03000000 	movweq	r0, #0
    9a00:	10048423 	andne	r8, r4, r3, lsr #8
    9a04:	000010ca 	andeq	r1, r0, sl, asr #1
    9a08:	4b029f03 	blmi	b161c <__bss_end+0xae794>
    9a0c:	03000024 	movweq	r0, #36	; 0x24
    9a10:	10048823 	andne	r8, r4, r3, lsr #16
    9a14:	00000abe 			; <UNDEFINED> instruction: 0x00000abe
    9a18:	6002a003 	andvs	sl, r2, r3
    9a1c:	03000024 	movweq	r0, #36	; 0x24
    9a20:	1004a023 	andne	sl, r4, r3, lsr #32
    9a24:	000006b3 			; <UNDEFINED> instruction: 0x000006b3
    9a28:	7e02a103 	mvfvcs	f2, f3
    9a2c:	03000000 	movweq	r0, #0
    9a30:	1004cc23 	andne	ip, r4, r3, lsr #24
    9a34:	000005d0 	ldrdeq	r0, [r0], -r0	; <UNPREDICTABLE>
    9a38:	7e02a203 	cdpvc	2, 0, cr10, cr2, cr3, {0}
    9a3c:	03000000 	movweq	r0, #0
    9a40:	1004d023 	andne	sp, r4, r3, lsr #32
    9a44:	000006bf 			; <UNDEFINED> instruction: 0x000006bf
    9a48:	6502a303 	strvs	sl, [r2, #-771]	; 0x303
    9a4c:	03000024 	movweq	r0, #36	; 0x24
    9a50:	1004d423 	andne	sp, r4, r3, lsr #8
    9a54:	00000b1f 	andeq	r0, r0, pc, lsl fp
    9a58:	7e02a403 	cdpvc	4, 0, cr10, cr2, cr3, {0}
    9a5c:	03000000 	movweq	r0, #0
    9a60:	1004e023 	andne	lr, r4, r3, lsr #32
    9a64:	000006cb 	andeq	r0, r0, fp, asr #13
    9a68:	6a02a503 	bvs	b2e7c <__bss_end+0xafff4>
    9a6c:	03000024 	movweq	r0, #36	; 0x24
    9a70:	1004e423 	andne	lr, r4, r3, lsr #8
    9a74:	00000ada 	ldrdeq	r0, [r0], -sl
    9a78:	7e02a603 	cfmadd32vc	mvax0, mvfx10, mvfx2, mvfx3
    9a7c:	03000000 	movweq	r0, #0
    9a80:	1004f023 	andne	pc, r4, r3, lsr #32
    9a84:	00000d0e 	andeq	r0, r0, lr, lsl #26
    9a88:	6f02a703 	svcvs	0x0002a703
    9a8c:	03000024 	movweq	r0, #36	; 0x24
    9a90:	1004f423 	andne	pc, r4, r3, lsr #8
    9a94:	000006dc 	ldrdeq	r0, [r0], -ip
    9a98:	8402a803 	strhi	sl, [r2], #-2051	; 0x803
    9a9c:	03000024 	movweq	r0, #36	; 0x24
    9aa0:	10058023 	andne	r8, r5, r3, lsr #32
    9aa4:	00000bfe 	strdeq	r0, [r0], -lr
    9aa8:	8902aa03 	stmdbhi	r2, {r0, r1, r9, fp, sp, pc}
    9aac:	03000024 	movweq	r0, #36	; 0x24
    9ab0:	1005c023 	andne	ip, r5, r3, lsr #32
    9ab4:	00000c08 	andeq	r0, r0, r8, lsl #24
    9ab8:	8e02ab03 	vmlahi.f64	d10, d2, d3
    9abc:	03000024 	movweq	r0, #36	; 0x24
    9ac0:	1005c423 	andne	ip, r5, r3, lsr #8
    9ac4:	00000c12 	andeq	r0, r0, r2, lsl ip
    9ac8:	9302ac03 	movwls	sl, #11267	; 0x2c03
    9acc:	03000024 	movweq	r0, #36	; 0x24
    9ad0:	1005c823 	andne	ip, r5, r3, lsr #16
    9ad4:	00000ce3 	andeq	r0, r0, r3, ror #25
    9ad8:	7e02ad03 	cdpvc	13, 0, cr10, cr2, cr3, {0}
    9adc:	03000000 	movweq	r0, #0
    9ae0:	1005cc23 	andne	ip, r5, r3, lsr #24
    9ae4:	00000e17 	andeq	r0, r0, r7, lsl lr
    9ae8:	9802ae03 	stmdals	r2, {r0, r1, r9, sl, fp, sp, pc}
    9aec:	03000024 	movweq	r0, #36	; 0x24
    9af0:	1005d023 	andne	sp, r5, r3, lsr #32
    9af4:	00000aff 	strdeq	r0, [r0], -pc	; <UNPREDICTABLE>
    9af8:	7e02af03 	cdpvc	15, 0, cr10, cr2, cr3, {0}
    9afc:	03000000 	movweq	r0, #0
    9b00:	1005d423 	andne	sp, r5, r3, lsr #8
    9b04:	00000793 	muleq	r0, r3, r7
    9b08:	9d02b003 	stcls	0, cr11, [r2, #-12]
    9b0c:	03000024 	movweq	r0, #36	; 0x24
    9b10:	1005d823 	andne	sp, r5, r3, lsr #16
    9b14:	00000b0a 	andeq	r0, r0, sl, lsl #22
    9b18:	b202b103 	andlt	fp, r2, #-1073741824	; 0xc0000000
    9b1c:	03000024 	movweq	r0, #36	; 0x24
    9b20:	1005dc23 	andne	sp, r5, r3, lsr #24
    9b24:	0000045b 	andeq	r0, r0, fp, asr r4
    9b28:	b702b203 	strlt	fp, [r2, -r3, lsl #4]
    9b2c:	03000024 	movweq	r0, #36	; 0x24
    9b30:	10068023 	andne	r8, r6, r3, lsr #32
    9b34:	00000463 	andeq	r0, r0, r3, ror #8
    9b38:	b702b303 	strlt	fp, [r2, -r3, lsl #6]
    9b3c:	03000024 	movweq	r0, #36	; 0x24
    9b40:	10068423 	andne	r8, r6, r3, lsr #8
    9b44:	00000c67 	andeq	r0, r0, r7, ror #24
    9b48:	b702b403 	strlt	fp, [r2, -r3, lsl #8]
    9b4c:	03000024 	movweq	r0, #36	; 0x24
    9b50:	00068823 	andeq	r8, r6, r3, lsr #16
    9b54:	00016b05 	andeq	r6, r1, r5, lsl #22
    9b58:	023e0500 	eorseq	r0, lr, #0
    9b5c:	33050000 	movwcc	r0, #20480	; 0x5000
    9b60:	05000003 	streq	r0, [r0, #-3]
    9b64:	00000428 	andeq	r0, r0, r8, lsr #8
    9b68:	00053f05 	andeq	r3, r5, r5, lsl #30
    9b6c:	069a0500 	ldreq	r0, [sl], r0, lsl #10
    9b70:	18050000 	stmdane	r5, {}	; <UNPREDICTABLE>
    9b74:	05000007 	streq	r0, [r0, #-7]
    9b78:	000007a7 	andeq	r0, r0, r7, lsr #15
    9b7c:	00082505 	andeq	r2, r8, r5, lsl #10
    9b80:	085f0500 	ldmdaeq	pc, {r8, sl}^	; <UNPREDICTABLE>
    9b84:	62050000 	andvs	r0, r5, #0
    9b88:	0500000a 	streq	r0, [r0, #-10]
    9b8c:	00000c21 	andeq	r0, r0, r1, lsr #24
    9b90:	000cdb05 	andeq	sp, ip, r5, lsl #22
    9b94:	0dcd0500 	cfstr64eq	mvdx0, [sp]
    9b98:	93050000 	movwls	r0, #20480	; 0x5000
    9b9c:	05000000 	streq	r0, [r0, #-0]
    9ba0:	00000ead 	andeq	r0, r0, sp, lsr #29
    9ba4:	000f0f05 	andeq	r0, pc, r5, lsl #30
    9ba8:	00830500 	addeq	r0, r3, r0, lsl #10
    9bac:	83050000 	movwhi	r0, #20480	; 0x5000
    9bb0:	05000000 	streq	r0, [r0, #-0]
    9bb4:	0000103f 	andeq	r1, r0, pc, lsr r0
    9bb8:	0010c505 	andseq	ip, r0, r5, lsl #10
    9bbc:	005e0600 	subseq	r0, lr, r0, lsl #12
    9bc0:	23d00000 	bicscs	r0, r0, #0
    9bc4:	69070000 	stmdbvs	r7, {}	; <UNPREDICTABLE>
    9bc8:	06000000 	streq	r0, [r0], -r0
    9bcc:	23c00500 	biccs	r0, r0, #0
    9bd0:	81050000 	mrshi	r0, (UNDEF: 5)
    9bd4:	05000011 	streq	r0, [r0, #-17]
    9bd8:	00000083 	andeq	r0, r0, r3, lsl #1
    9bdc:	0012b805 	andseq	fp, r2, r5, lsl #16
    9be0:	132c0500 	teqne	ip, #0
    9be4:	5e060000 	cdppl	0, 0, cr0, cr6, cr0, {0}
    9be8:	f9000000 			; <UNDEFINED> instruction: 0xf9000000
    9bec:	07000023 	streq	r0, [r0, -r3, lsr #32]
    9bf0:	00000069 	andeq	r0, r0, r9, rrx
    9bf4:	e9050002 	stmdb	r5, {r1}
    9bf8:	05000023 	streq	r0, [r0, #-35]	; 0x23
    9bfc:	000013fa 	strdeq	r1, [r0], -sl
    9c00:	00145c05 	andseq	r5, r4, r5, lsl #24
    9c04:	0f4d0500 	svceq	0x004d0500
    9c08:	e2050000 	and	r0, r5, #0
    9c0c:	05000014 	streq	r0, [r0, #-20]
    9c10:	000015b0 			; <UNDEFINED> instruction: 0x000015b0
    9c14:	00009305 	andeq	r9, r0, r5, lsl #6
    9c18:	00930500 	addseq	r0, r3, r0, lsl #10
    9c1c:	5e060000 	cdppl	0, 0, cr0, cr6, cr0, {0}
    9c20:	31000000 	mrscc	r0, (UNDEF: 0)
    9c24:	07000024 	streq	r0, [r0, -r4, lsr #32]
    9c28:	00000069 	andeq	r0, r0, r9, rrx
    9c2c:	21050014 	tstcs	r5, r4, lsl r0
    9c30:	05000024 	streq	r0, [r0, #-36]	; 0x24
    9c34:	000015ee 	andeq	r1, r0, lr, ror #11
    9c38:	00005e06 	andeq	r5, r0, r6, lsl #28
    9c3c:	00244b00 	eoreq	r4, r4, r0, lsl #22
    9c40:	00690700 	rsbeq	r0, r9, r0, lsl #14
    9c44:	00050000 	andeq	r0, r5, r0
    9c48:	00243b05 	eoreq	r3, r4, r5, lsl #22
    9c4c:	005e0600 	subseq	r0, lr, r0, lsl #12
    9c50:	24600000 	strbtcs	r0, [r0], #-0
    9c54:	69070000 	stmdbvs	r7, {}	; <UNPREDICTABLE>
    9c58:	0a000000 	beq	9c60 <__bss_end+0x6dd8>
    9c5c:	24500500 	ldrbcs	r0, [r0], #-1280	; 0x500
    9c60:	e9050000 	stmdb	r5, {}	; <UNPREDICTABLE>
    9c64:	05000023 	streq	r0, [r0, #-35]	; 0x23
    9c68:	000023e9 	andeq	r2, r0, r9, ror #7
    9c6c:	0023e905 	eoreq	lr, r3, r5, lsl #18
    9c70:	005e0600 	subseq	r0, lr, r0, lsl #12
    9c74:	24840000 	strcs	r0, [r4], #0
    9c78:	69070000 	stmdbvs	r7, {}	; <UNPREDICTABLE>
    9c7c:	0f000000 	svceq	0x00000000
    9c80:	24740500 	ldrbtcs	r0, [r4], #-1280	; 0x500
    9c84:	10050000 	andne	r0, r5, r0
    9c88:	05000018 	streq	r0, [r0, #-24]
    9c8c:	000019ea 	andeq	r1, r0, sl, ror #19
    9c90:	001a2805 	andseq	r2, sl, r5, lsl #16
    9c94:	1ad20500 	bne	ff48b09c <__bss_end+0xff488214>
    9c98:	c4050000 	strgt	r0, [r5], #-0
    9c9c:	0600001b 			; <UNDEFINED> instruction: 0x0600001b
    9ca0:	0000005e 	andeq	r0, r0, lr, asr r0
    9ca4:	000024b2 			; <UNDEFINED> instruction: 0x000024b2
    9ca8:	00006907 	andeq	r6, r0, r7, lsl #18
    9cac:	05000800 	streq	r0, [r0, #-2048]	; 0x800
    9cb0:	000024a2 	andeq	r2, r0, r2, lsr #9
    9cb4:	001c6e05 	andseq	r6, ip, r5, lsl #28
    9cb8:	0f570d00 	svceq	0x00570d00
    9cbc:	b6030000 	strlt	r0, [r3], -r0
    9cc0:	001c7a02 	andseq	r7, ip, r2, lsl #20
    9cc4:	005e0600 	subseq	r0, lr, r0, lsl #12
    9cc8:	24d80000 	ldrbcs	r0, [r8], #0
    9ccc:	69070000 	stmdbvs	r7, {}	; <UNPREDICTABLE>
    9cd0:	0e000000 	cdpeq	0, 0, cr0, cr0, cr0, {0}
    9cd4:	1c550800 	mrrcne	8, 0, r0, r5, cr0
    9cd8:	04400000 	strbeq	r0, [r0], #-0
    9cdc:	00250117 	eoreq	r0, r5, r7, lsl r1
    9ce0:	0f091200 	svceq	0x00091200
    9ce4:	18040000 	stmdane	r4, {}	; <UNPREDICTABLE>
    9ce8:	00002501 	andeq	r2, r0, r1, lsl #10
    9cec:	12002302 	andne	r2, r0, #134217728	; 0x8000000
    9cf0:	00001c5f 	andeq	r1, r0, pc, asr ip
    9cf4:	24c81904 	strbcs	r1, [r8], #2308	; 0x904
    9cf8:	23020000 	movwcs	r0, #8192	; 0x2000
    9cfc:	04130004 	ldreq	r0, [r3], #-4
    9d00:	000024bc 			; <UNDEFINED> instruction: 0x000024bc
    9d04:	000d8e08 	andeq	r8, sp, r8, lsl #28
    9d08:	1c040800 	stcne	8, cr0, [r4], {-0}
    9d0c:	00002530 	andeq	r2, r0, r0, lsr r5
    9d10:	0003f112 	andeq	pc, r3, r2, lsl r1	; <UNPREDICTABLE>
    9d14:	5e1d0400 	cfmulspl	mvf0, mvf13, mvf0
    9d18:	02000000 	andeq	r0, r0, #0
    9d1c:	b5120023 	ldrlt	r0, [r2, #-35]	; 0x23
    9d20:	04000007 	streq	r0, [r0], #-7
    9d24:	00005e1e 	andeq	r5, r0, lr, lsl lr
    9d28:	04230200 	strteq	r0, [r3], #-512	; 0x200
    9d2c:	0d980800 	ldceq	8, cr0, [r8]
    9d30:	040c0000 	streq	r0, [ip], #-0
    9d34:	00256721 	eoreq	r6, r5, r1, lsr #14
    9d38:	0fc21200 	svceq	0x00c21200
    9d3c:	22040000 	andcs	r0, r4, #0
    9d40:	0000005e 	andeq	r0, r0, lr, asr r0
    9d44:	12002302 	andne	r2, r0, #134217728	; 0x8000000
    9d48:	00000f7e 	andeq	r0, r0, lr, ror pc
    9d4c:	005e2304 	subseq	r2, lr, r4, lsl #6
    9d50:	23020000 	movwcs	r0, #8192	; 0x2000
    9d54:	07f51204 	ldrbeq	r1, [r5, r4, lsl #4]!
    9d58:	24040000 	strcs	r0, [r4], #-0
    9d5c:	0000005e 	andeq	r0, r0, lr, asr r0
    9d60:	00082302 	andeq	r2, r8, r2, lsl #6
    9d64:	00054008 	andeq	r4, r5, r8
    9d68:	27040800 	strcs	r0, [r4, -r0, lsl #16]
    9d6c:	000025ba 			; <UNDEFINED> instruction: 0x000025ba
    9d70:	00069b12 	andeq	r9, r6, r2, lsl fp
    9d74:	2c280400 	cfstrscs	mvf0, [r8], #-0
    9d78:	02000000 	andeq	r0, r0, #0
    9d7c:	8b120023 	blhi	489e10 <__bss_end+0x486f88>
    9d80:	04000006 	streq	r0, [r0], #-6
    9d84:	00002c29 	andeq	r2, r0, r9, lsr #24
    9d88:	01230200 	teqeq	r3, r0, lsl #4
    9d8c:	00069312 	andeq	r9, r6, r2, lsl r3
    9d90:	2c2a0400 	cfstrscs	mvf0, [sl], #-0
    9d94:	02000000 	andeq	r0, r0, #0
    9d98:	ab120223 	blge	48a62c <__bss_end+0x4877a4>
    9d9c:	04000006 	streq	r0, [r0], #-6
    9da0:	00002c2b 	andeq	r2, r0, fp, lsr #24
    9da4:	03230200 	teqeq	r3, #0
    9da8:	6c6c5014 	stclvs	0, cr5, [ip], #-80	; 0xffffffb0
    9dac:	5e2c0400 	cdppl	4, 2, cr0, cr12, cr0, {0}
    9db0:	02000000 	andeq	r0, r0, #0
    9db4:	15000423 	strne	r0, [r0, #-1059]	; 0x423
    9db8:	001c4701 	andseq	r4, ip, r1, lsl #14
    9dbc:	011c0100 	tsteq	ip, r0, lsl #2
    9dc0:	0000004c 	andeq	r0, r0, ip, asr #32
    9dc4:	00002558 	andeq	r2, r0, r8, asr r5
    9dc8:	000025f4 	strdeq	r2, [r0], -r4
    9dcc:	e6007d02 	str	r7, [r0], -r2, lsl #26
    9dd0:	16000025 	strne	r0, [r0], -r5, lsr #32
    9dd4:	00001c54 	andeq	r1, r0, r4, asr ip
    9dd8:	25e61c01 	strbcs	r1, [r6, #3073]!	; 0xc01
    9ddc:	19170000 	ldmdbne	r7, {}	; <UNPREDICTABLE>
    9de0:	13000000 	movwne	r0, #0
    9de4:	0024d804 	eoreq	sp, r4, r4, lsl #16
    9de8:	b6011700 	strlt	r1, [r1], -r0, lsl #14
    9dec:	0100001c 	tsteq	r0, ip, lsl r0
    9df0:	004c0147 	subeq	r0, ip, r7, asr #2
    9df4:	25f40000 	ldrbcs	r0, [r4, #0]!
    9df8:	26e00000 	strbtcs	r0, [r0], r0
    9dfc:	19350000 	ldmdbne	r5!, {}	; <UNPREDICTABLE>
    9e00:	26190000 	ldrcs	r0, [r9], -r0
    9e04:	54160000 	ldrpl	r0, [r6], #-0
    9e08:	0100001c 	tsteq	r0, ip, lsl r0
    9e0c:	0025e647 	eoreq	lr, r5, r7, asr #12
    9e10:	00195500 	andseq	r5, r9, r0, lsl #10
    9e14:	01150000 	tsteq	r5, r0
    9e18:	00001c9a 	muleq	r0, sl, ip
    9e1c:	0101d901 	tsteq	r1, r1, lsl #18
    9e20:	e0000025 	and	r0, r0, r5, lsr #32
    9e24:	10000026 	andne	r0, r0, r6, lsr #32
    9e28:	02000027 	andeq	r0, r0, #39	; 0x27
    9e2c:	2645007d 			; <UNDEFINED> instruction: 0x2645007d
    9e30:	e4160000 	ldr	r0, [r6], #-0
    9e34:	01000013 	tsteq	r0, r3, lsl r0
    9e38:	00005ed9 	ldrdeq	r5, [r0], -r9
    9e3c:	00197300 	andseq	r7, r9, r0, lsl #6
    9e40:	01150000 	tsteq	r5, r0
    9e44:	00001c18 	andeq	r1, r0, r8, lsl ip
    9e48:	4c01ef01 	stcmi	15, cr14, [r1], {1}
    9e4c:	10000000 	andne	r0, r0, r0
    9e50:	54000027 	strpl	r0, [r0], #-39	; 0x27
    9e54:	02000027 	andeq	r0, r0, #39	; 0x27
    9e58:	2671007d 			; <UNDEFINED> instruction: 0x2671007d
    9e5c:	5f160000 	svcpl	0x00160000
    9e60:	01000007 	tsteq	r0, r7
    9e64:	002671ef 	eoreq	r7, r6, pc, ror #3
    9e68:	00198600 	andseq	r8, r9, r0, lsl #12
    9e6c:	04130000 	ldreq	r0, [r3], #-0
    9e70:	00002507 	andeq	r2, r0, r7, lsl #10
    9e74:	1c380118 	ldfnes	f0, [r8], #-96	; 0xffffffa0
    9e78:	0b010000 	bleq	49e80 <__bss_end+0x46ff8>
    9e7c:	004c0101 	subeq	r0, ip, r1, lsl #2
    9e80:	27540000 	ldrbcs	r0, [r4, -r0]
    9e84:	27840000 	strcs	r0, [r4, r0]
    9e88:	7d020000 	stcvc	0, cr0, [r2, #-0]
    9e8c:	0026a500 	eoreq	sl, r6, r0, lsl #10
    9e90:	075f1900 	ldrbeq	r1, [pc, -r0, lsl #18]
    9e94:	0b010000 	bleq	49e9c <__bss_end+0x47014>
    9e98:	00267101 	eoreq	r7, r6, r1, lsl #2
    9e9c:	0019ba00 	andseq	fp, r9, r0, lsl #20
    9ea0:	01180000 	tsteq	r8, r0
    9ea4:	00001c6c 	andeq	r1, r0, ip, ror #24
    9ea8:	01012501 	tsteq	r1, r1, lsl #10
    9eac:	0000004c 	andeq	r0, r0, ip, asr #32
    9eb0:	00002784 	andeq	r2, r0, r4, lsl #15
    9eb4:	000027d4 	ldrdeq	r2, [r0], -r4
    9eb8:	d3007d02 	movwle	r7, #3330	; 0xd02
    9ebc:	19000026 	stmdbne	r0, {r1, r2, r5}
    9ec0:	00001c8f 	andeq	r1, r0, pc, lsl #25
    9ec4:	d3012501 	movwle	r2, #5377	; 0x1501
    9ec8:	d8000026 	stmdale	r0, {r1, r2, r5}
    9ecc:	00000019 	andeq	r0, r0, r9, lsl r0
    9ed0:	25670413 	strbcs	r0, [r7, #-1043]!	; 0x413
    9ed4:	01180000 	tsteq	r8, r0
    9ed8:	00001c83 	andeq	r1, r0, r3, lsl #25
    9edc:	01013e01 	tsteq	r1, r1, lsl #28
    9ee0:	0000004c 	andeq	r0, r0, ip, asr #32
    9ee4:	000027d4 	ldrdeq	r2, [r0], -r4
    9ee8:	00002810 	andeq	r2, r0, r0, lsl r8
    9eec:	07007d02 	streq	r7, [r0, -r2, lsl #26]
    9ef0:	19000027 	stmdbne	r0, {r0, r1, r2, r5}
    9ef4:	00001c8f 	andeq	r1, r0, pc, lsl #25
    9ef8:	d3013e01 	movwle	r3, #7681	; 0x1e01
    9efc:	f6000026 			; <UNDEFINED> instruction: 0xf6000026
    9f00:	00000019 	andeq	r0, r0, r9, lsl r0
    9f04:	1c270118 	stfnes	f0, [r7], #-96	; 0xffffffa0
    9f08:	54010000 	strpl	r0, [r1], #-0
    9f0c:	004c0101 	subeq	r0, ip, r1, lsl #2
    9f10:	28100000 	ldmdacs	r0, {}	; <UNPREDICTABLE>
    9f14:	28480000 	stmdacs	r8, {}^	; <UNPREDICTABLE>
    9f18:	7d020000 	stcvc	0, cr0, [r2, #-0]
    9f1c:	00273500 	eoreq	r3, r7, r0, lsl #10
    9f20:	0a291900 	beq	a50328 <__bss_end+0xa4d4a0>
    9f24:	54010000 	strpl	r0, [r1], #-0
    9f28:	00273501 	eoreq	r3, r7, r1, lsl #10
    9f2c:	001a1400 	andseq	r1, sl, r0, lsl #8
    9f30:	04130000 	ldreq	r0, [r3], #-0
    9f34:	00002530 	andeq	r2, r0, r0, lsr r5
    9f38:	1c070118 	stfnes	f0, [r7], {24}
    9f3c:	6b010000 	blvs	49f44 <__bss_end+0x470bc>
    9f40:	004c0101 	subeq	r0, ip, r1, lsl #2
    9f44:	28480000 	stmdacs	r8, {}^	; <UNPREDICTABLE>
    9f48:	28740000 	ldmdacs	r4!, {}^	; <UNPREDICTABLE>
    9f4c:	7d020000 	stcvc	0, cr0, [r2, #-0]
    9f50:	00276900 	eoreq	r6, r7, r0, lsl #18
    9f54:	0a291900 	beq	a5035c <__bss_end+0xa4d4d4>
    9f58:	6b010000 	blvs	49f60 <__bss_end+0x470d8>
    9f5c:	00273501 	eoreq	r3, r7, r1, lsl #10
    9f60:	001a3200 	andseq	r3, sl, r0, lsl #4
    9f64:	091a0000 	ldmdbeq	sl, {}	; <UNPREDICTABLE>
    9f68:	0100000f 	tsteq	r0, pc
    9f6c:	0025010b 	eoreq	r0, r5, fp, lsl #2
    9f70:	cc030500 	cfstr32gt	mvfx0, [r3], {-0}
    9f74:	0000002b 	andeq	r0, r0, fp, lsr #32

Disassembly of section .debug_abbrev:

00000000 <.debug_abbrev>:
       0:	25011101 	strcs	r1, [r1, #-257]	; 0x101
       4:	030b130e 	movweq	r1, #45838	; 0xb30e
       8:	110e1b0e 	tstne	lr, lr, lsl #22
       c:	10011201 	andne	r1, r1, r1, lsl #4
      10:	02000006 	andeq	r0, r0, #6
      14:	0b0b0024 	bleq	2c00ac <__bss_end+0x2bd224>
      18:	0e030b3e 	vmoveq.16	d3[0], r0
      1c:	16030000 	strne	r0, [r3], -r0
      20:	3a0e0300 	bcc	380c28 <__bss_end+0x37dda0>
      24:	490b3b0b 	stmdbmi	fp, {r0, r1, r3, r8, r9, fp, ip, sp}
      28:	04000013 	streq	r0, [r0], #-19
      2c:	0b0b0024 	bleq	2c00c4 <__bss_end+0x2bd23c>
      30:	08030b3e 	stmdaeq	r3, {r1, r2, r3, r4, r5, r8, r9, fp}
      34:	13050000 	movwne	r0, #20480	; 0x5000
      38:	0b0e0301 	bleq	380c44 <__bss_end+0x37ddbc>
      3c:	3b0b3a0b 	blcc	2ce870 <__bss_end+0x2cb9e8>
      40:	0013010b 	andseq	r0, r3, fp, lsl #2
      44:	000d0600 	andeq	r0, sp, r0, lsl #12
      48:	0b3a0e03 	bleq	e8385c <__bss_end+0xe809d4>
      4c:	13490b3b 	movtne	r0, #39739	; 0x9b3b
      50:	00000a38 	andeq	r0, r0, r8, lsr sl
      54:	49010107 	stmdbmi	r1, {r0, r1, r2, r8}
      58:	00130113 	andseq	r0, r3, r3, lsl r1
      5c:	00210800 	eoreq	r0, r1, r0, lsl #16
      60:	0b2f1349 	bleq	bc4d8c <__bss_end+0xbc1f04>
      64:	34090000 	strcc	r0, [r9], #-0
      68:	3a0e0300 	bcc	380c70 <__bss_end+0x37dde8>
      6c:	490b3b0b 	stmdbmi	fp, {r0, r1, r3, r8, r9, fp, ip, sp}
      70:	020c3f13 	andeq	r3, ip, #76	; 0x4c
      74:	0a00000a 	beq	a4 <mem_memcpy+0x14>
      78:	13490026 	movtne	r0, #36902	; 0x9026
      7c:	01000000 	mrseq	r0, (UNDEF: 0)
      80:	06100011 			; <UNDEFINED> instruction: 0x06100011
      84:	01120111 	tsteq	r2, r1, lsl r1
      88:	081b0803 	ldmdaeq	fp, {r0, r1, fp}
      8c:	05130825 	ldreq	r0, [r3, #-2085]	; 0x825
      90:	01000000 	mrseq	r0, (UNDEF: 0)
      94:	0e250111 	mcreq	1, 1, r0, cr5, cr1, {0}
      98:	0e030b13 	vmoveq.32	d3[0], r0
      9c:	01110e1b 	tsteq	r1, fp, lsl lr
      a0:	06100112 			; <UNDEFINED> instruction: 0x06100112
      a4:	24020000 	strcs	r0, [r2], #-0
      a8:	3e0b0b00 	vmlacc.f64	d0, d11, d0
      ac:	000e030b 	andeq	r0, lr, fp, lsl #6
      b0:	00240300 	eoreq	r0, r4, r0, lsl #6
      b4:	0b3e0b0b 	bleq	f82ce8 <__bss_end+0xf7fe60>
      b8:	00000803 	andeq	r0, r0, r3, lsl #16
      bc:	0b000f04 	bleq	3cd4 <__bss_end+0xe4c>
      c0:	0500000b 	streq	r0, [r0, #-11]
      c4:	0c3f012e 	ldfeqs	f0, [pc], #-184	; 14 <__resume1_start+0x14>
      c8:	0b3a0e03 	bleq	e838dc <__bss_end+0xe80a54>
      cc:	0c270b3b 	stceq	11, cr0, [r7], #-236	; 0xffffff14
      d0:	01120111 	tsteq	r2, r1, lsl r1
      d4:	13010a40 	movwne	r0, #6720	; 0x1a40
      d8:	05060000 	streq	r0, [r6, #-0]
      dc:	3a0e0300 	bcc	380ce4 <__bss_end+0x37de5c>
      e0:	490b3b0b 	stmdbmi	fp, {r0, r1, r3, r8, r9, fp, ip, sp}
      e4:	00060213 	andeq	r0, r6, r3, lsl r2
      e8:	00050700 	andeq	r0, r5, r0, lsl #14
      ec:	0b3a0803 	bleq	e82100 <__bss_end+0xe7f278>
      f0:	13490b3b 	movtne	r0, #39739	; 0x9b3b
      f4:	00000602 	andeq	r0, r0, r2, lsl #12
      f8:	03003408 	movweq	r3, #1032	; 0x408
      fc:	3b0b3a0e 	blcc	2ce93c <__bss_end+0x2cbab4>
     100:	0213490b 	andseq	r4, r3, #180224	; 0x2c000
     104:	09000006 	stmdbeq	r0, {r1, r2}
     108:	0e030034 	mcreq	0, 0, r0, cr3, cr4, {1}
     10c:	0b3b0b3a 	bleq	ec2dfc <__bss_end+0xebff74>
     110:	0a021349 	beq	84e3c <__bss_end+0x81fb4>
     114:	0f0a0000 	svceq	0x000a0000
     118:	490b0b00 	stmdbmi	fp, {r8, r9, fp}
     11c:	00000013 	andeq	r0, r0, r3, lsl r0
     120:	25011101 	strcs	r1, [r1, #-257]	; 0x101
     124:	030b130e 	movweq	r1, #45838	; 0xb30e
     128:	110e1b0e 	tstne	lr, lr, lsl #22
     12c:	10011201 	andne	r1, r1, r1, lsl #4
     130:	02000006 	andeq	r0, r0, #6
     134:	0b0b0024 	bleq	2c01cc <__bss_end+0x2bd344>
     138:	0e030b3e 	vmoveq.16	d3[0], r0
     13c:	24030000 	strcs	r0, [r3], #-0
     140:	3e0b0b00 	vmlacc.f64	d0, d11, d0
     144:	0008030b 	andeq	r0, r8, fp, lsl #6
     148:	11010000 	mrsne	r0, (UNDEF: 1)
     14c:	11061000 	mrsne	r1, (UNDEF: 6)
     150:	03011201 	movweq	r1, #4609	; 0x1201
     154:	25081b08 	strcs	r1, [r8, #-2824]	; 0xb08
     158:	00051308 	andeq	r1, r5, r8, lsl #6
     15c:	11010000 	mrsne	r0, (UNDEF: 1)
     160:	130e2501 	movwne	r2, #58625	; 0xe501
     164:	1b0e030b 	blne	380d98 <__bss_end+0x37df10>
     168:	1201110e 	andne	r1, r1, #-2147483645	; 0x80000003
     16c:	00061001 	andeq	r1, r6, r1
     170:	00240200 	eoreq	r0, r4, r0, lsl #4
     174:	0b3e0b0b 	bleq	f82da8 <__bss_end+0xf7ff20>
     178:	00000e03 	andeq	r0, r0, r3, lsl #28
     17c:	0b002403 	bleq	9190 <__bss_end+0x6308>
     180:	030b3e0b 	movweq	r3, #48651	; 0xbe0b
     184:	00000008 	andeq	r0, r0, r8
     188:	25011101 	strcs	r1, [r1, #-257]	; 0x101
     18c:	030b130e 	movweq	r1, #45838	; 0xb30e
     190:	110e1b0e 	tstne	lr, lr, lsl #22
     194:	10011201 	andne	r1, r1, r1, lsl #4
     198:	02000006 	andeq	r0, r0, #6
     19c:	0b0b0024 	bleq	2c0234 <__bss_end+0x2bd3ac>
     1a0:	0e030b3e 	vmoveq.16	d3[0], r0
     1a4:	24030000 	strcs	r0, [r3], #-0
     1a8:	3e0b0b00 	vmlacc.f64	d0, d11, d0
     1ac:	0008030b 	andeq	r0, r8, fp, lsl #6
     1b0:	11010000 	mrsne	r0, (UNDEF: 1)
     1b4:	130e2501 	movwne	r2, #58625	; 0xe501
     1b8:	1b0e030b 	blne	380dec <__bss_end+0x37df64>
     1bc:	1201110e 	andne	r1, r1, #-2147483645	; 0x80000003
     1c0:	00061001 	andeq	r1, r6, r1
     1c4:	00240200 	eoreq	r0, r4, r0, lsl #4
     1c8:	0b3e0b0b 	bleq	f82dfc <__bss_end+0xf7ff74>
     1cc:	00000e03 	andeq	r0, r0, r3, lsl #28
     1d0:	03001603 	movweq	r1, #1539	; 0x603
     1d4:	3b0b3a0e 	blcc	2cea14 <__bss_end+0x2cbb8c>
     1d8:	0013490b 	andseq	r4, r3, fp, lsl #18
     1dc:	00240400 	eoreq	r0, r4, r0, lsl #8
     1e0:	0b3e0b0b 	bleq	f82e14 <__bss_end+0xf7ff8c>
     1e4:	00000803 	andeq	r0, r0, r3, lsl #16
     1e8:	49003505 	stmdbmi	r0, {r0, r2, r8, sl, ip, sp}
     1ec:	06000013 			; <UNDEFINED> instruction: 0x06000013
     1f0:	0c3f012e 	ldfeqs	f0, [pc], #-184	; 140 <super_enable_aw_cpu+0x20>
     1f4:	0b3a0e03 	bleq	e83a08 <__bss_end+0xe80b80>
     1f8:	0c270b3b 	stceq	11, cr0, [r7], #-236	; 0xffffff14
     1fc:	01111349 	tsteq	r1, r9, asr #6
     200:	06400112 			; <UNDEFINED> instruction: 0x06400112
     204:	00001301 	andeq	r1, r0, r1, lsl #6
     208:	03000507 	movweq	r0, #1287	; 0x507
     20c:	3b0b3a0e 	blcc	2cea4c <__bss_end+0x2cbbc4>
     210:	0213490b 	andseq	r4, r3, #180224	; 0x2c000
     214:	08000006 	stmdaeq	r0, {r1, r2}
     218:	0e030005 	cdpeq	0, 0, cr0, cr3, cr5, {0}
     21c:	0b3b0b3a 	bleq	ec2f0c <__bss_end+0xec0084>
     220:	0a021349 	beq	84f4c <__bss_end+0x820c4>
     224:	34090000 	strcc	r0, [r9], #-0
     228:	3a0e0300 	bcc	380e30 <__bss_end+0x37dfa8>
     22c:	490b3b0b 	stmdbmi	fp, {r0, r1, r3, r8, r9, fp, ip, sp}
     230:	00060213 	andeq	r0, r6, r3, lsl r2
     234:	012e0a00 	teqeq	lr, r0, lsl #20
     238:	0e030c3f 	mcreq	12, 0, r0, cr3, cr15, {1}
     23c:	0b3b0b3a 	bleq	ec2f2c <__bss_end+0xec00a4>
     240:	01110c27 	tsteq	r1, r7, lsr #24
     244:	06400112 			; <UNDEFINED> instruction: 0x06400112
     248:	050b0000 	streq	r0, [fp, #-0]
     24c:	3a080300 	bcc	200e54 <__bss_end+0x1fdfcc>
     250:	490b3b0b 	stmdbmi	fp, {r0, r1, r3, r8, r9, fp, ip, sp}
     254:	00060213 	andeq	r0, r6, r3, lsl r2
     258:	00340c00 	eorseq	r0, r4, r0, lsl #24
     25c:	0b3a0e03 	bleq	e83a70 <__bss_end+0xe80be8>
     260:	13490b3b 	movtne	r0, #39739	; 0x9b3b
     264:	00000b1c 	andeq	r0, r0, ip, lsl fp
     268:	01110100 	tsteq	r1, r0, lsl #2
     26c:	0b130e25 	bleq	4c3b08 <__bss_end+0x4c0c80>
     270:	0e1b0e03 	cdpeq	14, 1, cr0, cr11, cr3, {0}
     274:	01120111 	tsteq	r2, r1, lsl r1
     278:	00000610 	andeq	r0, r0, r0, lsl r6
     27c:	0b002402 	bleq	928c <__bss_end+0x6404>
     280:	030b3e0b 	movweq	r3, #48651	; 0xbe0b
     284:	0300000e 	movweq	r0, #14
     288:	0e030016 	mcreq	0, 0, r0, cr3, cr6, {0}
     28c:	0b3b0b3a 	bleq	ec2f7c <__bss_end+0xec00f4>
     290:	00001349 	andeq	r1, r0, r9, asr #6
     294:	0b002404 	bleq	92ac <__bss_end+0x6424>
     298:	030b3e0b 	movweq	r3, #48651	; 0xbe0b
     29c:	05000008 	streq	r0, [r0, #-8]
     2a0:	0e030113 	mcreq	1, 0, r0, cr3, cr3, {0}
     2a4:	0b3a0b0b 	bleq	e82ed8 <__bss_end+0xe80050>
     2a8:	13010b3b 	movwne	r0, #6971	; 0x1b3b
     2ac:	0d060000 	stceq	0, cr0, [r6, #-0]
     2b0:	3a0e0300 	bcc	380eb8 <__bss_end+0x37e030>
     2b4:	490b3b0b 	stmdbmi	fp, {r0, r1, r3, r8, r9, fp, ip, sp}
     2b8:	000a3813 	andeq	r3, sl, r3, lsl r8
     2bc:	000d0700 	andeq	r0, sp, r0, lsl #14
     2c0:	0b3a0803 	bleq	e822d4 <__bss_end+0xe7f44c>
     2c4:	13490b3b 	movtne	r0, #39739	; 0x9b3b
     2c8:	00000a38 	andeq	r0, r0, r8, lsr sl
     2cc:	49003508 	stmdbmi	r0, {r3, r8, sl, ip, sp}
     2d0:	09000013 	stmdbeq	r0, {r0, r1, r4}
     2d4:	13490101 	movtne	r0, #37121	; 0x9101
     2d8:	00001301 	andeq	r1, r0, r1, lsl #6
     2dc:	4900210a 	stmdbmi	r0, {r1, r3, r8, sp}
     2e0:	000b2f13 	andeq	r2, fp, r3, lsl pc
     2e4:	000d0b00 	andeq	r0, sp, r0, lsl #22
     2e8:	0b3a0e03 	bleq	e83afc <__bss_end+0xe80c74>
     2ec:	13490b3b 	movtne	r0, #39739	; 0x9b3b
     2f0:	0b0d0b0b 	bleq	342f24 <__bss_end+0x34009c>
     2f4:	0a380b0c 	beq	e02f2c <__bss_end+0xe000a4>
     2f8:	0d0c0000 	stceq	0, cr0, [ip, #-0]
     2fc:	3a080300 	bcc	200f04 <__bss_end+0x1fe07c>
     300:	490b3b0b 	stmdbmi	fp, {r0, r1, r3, r8, r9, fp, ip, sp}
     304:	0d0b0b13 	vstreq	d0, [fp, #-76]	; 0xffffffb4
     308:	380b0c0b 	stmdacc	fp, {r0, r1, r3, sl, fp}
     30c:	0d00000a 	stceq	0, cr0, [r0, #-40]	; 0xffffffd8
     310:	0e03000d 	cdpeq	0, 0, cr0, cr3, cr13, {0}
     314:	053b0b3a 	ldreq	r0, [fp, #-2874]!	; 0xb3a
     318:	0b0b1349 	bleq	2c5044 <__bss_end+0x2c21bc>
     31c:	0b0c0b0d 	bleq	302f58 <__bss_end+0x3000d0>
     320:	00000a38 	andeq	r0, r0, r8, lsr sl
     324:	03000d0e 	movweq	r0, #3342	; 0xd0e
     328:	3b0b3a08 	blcc	2ceb50 <__bss_end+0x2cbcc8>
     32c:	0b134905 	bleq	4d2748 <__bss_end+0x4cf8c0>
     330:	0c0b0d0b 	stceq	13, cr0, [fp], {11}
     334:	000a380b 	andeq	r3, sl, fp, lsl #16
     338:	00160f00 	andseq	r0, r6, r0, lsl #30
     33c:	0b3a0e03 	bleq	e83b50 <__bss_end+0xe80cc8>
     340:	1349053b 	movtne	r0, #38203	; 0x953b
     344:	13100000 	tstne	r0, #0
     348:	0b0e0301 	bleq	380f54 <__bss_end+0x37e0cc>
     34c:	3b0b3a0b 	blcc	2ceb80 <__bss_end+0x2cbcf8>
     350:	00130105 	andseq	r0, r3, r5, lsl #2
     354:	01131100 	tsteq	r3, r0, lsl #2
     358:	050b0e03 	streq	r0, [fp, #-3587]	; 0xe03
     35c:	053b0b3a 	ldreq	r0, [fp, #-2874]!	; 0xb3a
     360:	00001301 	andeq	r1, r0, r1, lsl #6
     364:	03000d12 	movweq	r0, #3346	; 0xd12
     368:	3b0b3a0e 	blcc	2ceba8 <__bss_end+0x2cbd20>
     36c:	38134905 	ldmdacc	r3, {r0, r2, r8, fp, lr}
     370:	1300000a 	movwne	r0, #10
     374:	0803000d 	stmdaeq	r3, {r0, r2, r3}
     378:	053b0b3a 	ldreq	r0, [fp, #-2874]!	; 0xb3a
     37c:	0a381349 	beq	e050a8 <__bss_end+0xe02220>
     380:	0f140000 	svceq	0x00140000
     384:	490b0b00 	stmdbmi	fp, {r8, r9, fp}
     388:	15000013 	strne	r0, [r0, #-19]
     38c:	0b0b0104 	bleq	2c07a4 <__bss_end+0x2bd91c>
     390:	0b3b0b3a 	bleq	ec3080 <__bss_end+0xec01f8>
     394:	00001301 	andeq	r1, r0, r1, lsl #6
     398:	03002816 	movweq	r2, #2070	; 0x816
     39c:	000d1c0e 	andeq	r1, sp, lr, lsl #24
     3a0:	01131700 	tsteq	r3, r0, lsl #14
     3a4:	050b0e03 	streq	r0, [fp, #-3587]	; 0xe03
     3a8:	0b3b0b3a 	bleq	ec3098 <__bss_end+0xec0210>
     3ac:	00001301 	andeq	r1, r0, r1, lsl #6
     3b0:	0b000f18 	bleq	4018 <__bss_end+0x1190>
     3b4:	1900000b 	stmdbne	r0, {r0, r1, r3}
     3b8:	0c3f002e 	ldceq	0, cr0, [pc], #-184	; 308 <set_pll+0x64>
     3bc:	0b3a0e03 	bleq	e83bd0 <__bss_end+0xe80d48>
     3c0:	0c270b3b 	stceq	11, cr0, [r7], #-236	; 0xffffff14
     3c4:	01111349 	tsteq	r1, r9, asr #6
     3c8:	06400112 			; <UNDEFINED> instruction: 0x06400112
     3cc:	2e1a0000 	cdpcs	0, 1, cr0, cr10, cr0, {0}
     3d0:	030c3f01 	movweq	r3, #52993	; 0xcf01
     3d4:	3b0b3a0e 	blcc	2cec14 <__bss_end+0x2cbd8c>
     3d8:	110c270b 	tstne	ip, fp, lsl #14
     3dc:	40011201 	andmi	r1, r1, r1, lsl #4
     3e0:	00130106 	andseq	r0, r3, r6, lsl #2
     3e4:	00341b00 	eorseq	r1, r4, r0, lsl #22
     3e8:	0b3a0e03 	bleq	e83bfc <__bss_end+0xe80d74>
     3ec:	13490b3b 	movtne	r0, #39739	; 0x9b3b
     3f0:	00000602 	andeq	r0, r0, r2, lsl #12
     3f4:	0300341c 	movweq	r3, #1052	; 0x41c
     3f8:	3b0b3a0e 	blcc	2cec38 <__bss_end+0x2cbdb0>
     3fc:	1c13490b 	ldcne	9, cr4, [r3], {11}
     400:	1d00000b 	stcne	0, cr0, [r0, #-44]	; 0xffffffd4
     404:	0e030034 	mcreq	0, 0, r0, cr3, cr4, {1}
     408:	0b3b0b3a 	bleq	ec30f8 <__bss_end+0xec0270>
     40c:	0a021349 	beq	85138 <__bss_end+0x822b0>
     410:	341e0000 	ldrcc	r0, [lr], #-0
     414:	3a0e0300 	bcc	38101c <__bss_end+0x37e194>
     418:	490b3b0b 	stmdbmi	fp, {r0, r1, r3, r8, r9, fp, ip, sp}
     41c:	1f000013 	svcne	0x00000013
     420:	0e030034 	mcreq	0, 0, r0, cr3, cr4, {1}
     424:	0b3b0b3a 	bleq	ec3114 <__bss_end+0xec028c>
     428:	0c3f1349 	ldceq	3, cr1, [pc], #-292	; 30c <set_pll+0x68>
     42c:	00000c3c 	andeq	r0, r0, ip, lsr ip
     430:	01110100 	tsteq	r1, r0, lsl #2
     434:	0b130e25 	bleq	4c3cd0 <__bss_end+0x4c0e48>
     438:	0e1b0e03 	cdpeq	14, 1, cr0, cr11, cr3, {0}
     43c:	01120111 	tsteq	r2, r1, lsl r1
     440:	00000610 	andeq	r0, r0, r0, lsl r6
     444:	0b002402 	bleq	9454 <__bss_end+0x65cc>
     448:	030b3e0b 	movweq	r3, #48651	; 0xbe0b
     44c:	0300000e 	movweq	r0, #14
     450:	0b0b0024 	bleq	2c04e8 <__bss_end+0x2bd660>
     454:	08030b3e 	stmdaeq	r3, {r1, r2, r3, r4, r5, r8, r9, fp}
     458:	16040000 	strne	r0, [r4], -r0
     45c:	3a0e0300 	bcc	381064 <__bss_end+0x37e1dc>
     460:	490b3b0b 	stmdbmi	fp, {r0, r1, r3, r8, r9, fp, ip, sp}
     464:	05000013 	streq	r0, [r0, #-19]
     468:	13490035 	movtne	r0, #36917	; 0x9035
     46c:	2e060000 	cdpcs	0, 0, cr0, cr6, cr0, {0}
     470:	030c3f01 	movweq	r3, #52993	; 0xcf01
     474:	3b0b3a0e 	blcc	2cecb4 <__bss_end+0x2cbe2c>
     478:	110c270b 	tstne	ip, fp, lsl #14
     47c:	40011201 	andmi	r1, r1, r1, lsl #4
     480:	00130106 	andseq	r0, r3, r6, lsl #2
     484:	00340700 	eorseq	r0, r4, r0, lsl #14
     488:	0b3a0e03 	bleq	e83c9c <__bss_end+0xe80e14>
     48c:	13490b3b 	movtne	r0, #39739	; 0x9b3b
     490:	00000a02 	andeq	r0, r0, r2, lsl #20
     494:	3f002e08 	svccc	0x00002e08
     498:	3a0e030c 	bcc	3810d0 <__bss_end+0x37e248>
     49c:	270b3b0b 	strcs	r3, [fp, -fp, lsl #22]
     4a0:	1201110c 	andne	r1, r1, #3
     4a4:	000a4001 	andeq	r4, sl, r1
     4a8:	00050900 	andeq	r0, r5, r0, lsl #18
     4ac:	0b3a0803 	bleq	e824c0 <__bss_end+0xe7f638>
     4b0:	13490b3b 	movtne	r0, #39739	; 0x9b3b
     4b4:	00000a02 	andeq	r0, r0, r2, lsl #20
     4b8:	3f002e0a 	svccc	0x00002e0a
     4bc:	3a0e030c 	bcc	3810f4 <__bss_end+0x37e26c>
     4c0:	270b3b0b 	strcs	r3, [fp, -fp, lsl #22]
     4c4:	1113490c 	tstne	r3, ip, lsl #18
     4c8:	40011201 	andmi	r1, r1, r1, lsl #4
     4cc:	0b00000a 	bleq	4fc <set_pll+0x258>
     4d0:	0c3f012e 	ldfeqs	f0, [pc], #-184	; 420 <set_pll+0x17c>
     4d4:	0b3a0e03 	bleq	e83ce8 <__bss_end+0xe80e60>
     4d8:	0c270b3b 	stceq	11, cr0, [r7], #-236	; 0xffffff14
     4dc:	01120111 	tsteq	r2, r1, lsl r1
     4e0:	13010a40 	movwne	r0, #6720	; 0x1a40
     4e4:	050c0000 	streq	r0, [ip, #-0]
     4e8:	3a080300 	bcc	2010f0 <__bss_end+0x1fe268>
     4ec:	490b3b0b 	stmdbmi	fp, {r0, r1, r3, r8, r9, fp, ip, sp}
     4f0:	00060213 	andeq	r0, r6, r3, lsl r2
     4f4:	00340d00 	eorseq	r0, r4, r0, lsl #26
     4f8:	0b3a0e03 	bleq	e83d0c <__bss_end+0xe80e84>
     4fc:	13490b3b 	movtne	r0, #39739	; 0x9b3b
     500:	00000602 	andeq	r0, r0, r2, lsl #12
     504:	0300340e 	movweq	r3, #1038	; 0x40e
     508:	3b0b3a0e 	blcc	2ced48 <__bss_end+0x2cbec0>
     50c:	3f13490b 	svccc	0x0013490b
     510:	000a020c 	andeq	r0, sl, ip, lsl #4
     514:	11010000 	mrsne	r0, (UNDEF: 1)
     518:	130e2501 	movwne	r2, #58625	; 0xe501
     51c:	1b0e030b 	blne	381150 <__bss_end+0x37e2c8>
     520:	1201110e 	andne	r1, r1, #-2147483645	; 0x80000003
     524:	00061001 	andeq	r1, r6, r1
     528:	00240200 	eoreq	r0, r4, r0, lsl #4
     52c:	0b3e0b0b 	bleq	f83160 <__bss_end+0xf802d8>
     530:	00000e03 	andeq	r0, r0, r3, lsl #28
     534:	03001603 	movweq	r1, #1539	; 0x603
     538:	3b0b3a0e 	blcc	2ced78 <__bss_end+0x2cbef0>
     53c:	0013490b 	andseq	r4, r3, fp, lsl #18
     540:	00240400 	eoreq	r0, r4, r0, lsl #8
     544:	0b3e0b0b 	bleq	f83178 <__bss_end+0xf802f0>
     548:	00000803 	andeq	r0, r0, r3, lsl #16
     54c:	03010405 	movweq	r0, #5125	; 0x1405
     550:	3a0b0b0e 	bcc	2c3190 <__bss_end+0x2c0308>
     554:	010b3b0b 	tsteq	fp, fp, lsl #22
     558:	06000013 			; <UNDEFINED> instruction: 0x06000013
     55c:	0e030028 	cdpeq	0, 0, cr0, cr3, cr8, {1}
     560:	00000d1c 	andeq	r0, r0, ip, lsl sp
     564:	49003507 	stmdbmi	r0, {r0, r1, r2, r8, sl, ip, sp}
     568:	08000013 	stmdaeq	r0, {r0, r1, r4}
     56c:	0c3f012e 	ldfeqs	f0, [pc], #-184	; 4bc <set_pll+0x218>
     570:	0b3a0e03 	bleq	e83d84 <__bss_end+0xe80efc>
     574:	0c270b3b 	stceq	11, cr0, [r7], #-236	; 0xffffff14
     578:	0b201349 	bleq	8052a4 <__bss_end+0x80241c>
     57c:	00001301 	andeq	r1, r0, r1, lsl #6
     580:	03003409 	movweq	r3, #1033	; 0x409
     584:	3b0b3a0e 	blcc	2cedc4 <__bss_end+0x2cbf3c>
     588:	0013490b 	andseq	r4, r3, fp, lsl #18
     58c:	012e0a00 	teqeq	lr, r0, lsl #20
     590:	0b3a0e03 	bleq	e83da4 <__bss_end+0xe80f1c>
     594:	0c270b3b 	stceq	11, cr0, [r7], #-236	; 0xffffff14
     598:	0b201349 	bleq	8052c4 <__bss_end+0x80243c>
     59c:	00001301 	andeq	r1, r0, r1, lsl #6
     5a0:	0300050b 	movweq	r0, #1291	; 0x50b
     5a4:	3b0b3a0e 	blcc	2cede4 <__bss_end+0x2cbf5c>
     5a8:	0013490b 	andseq	r4, r3, fp, lsl #18
     5ac:	012e0c00 	teqeq	lr, r0, lsl #24
     5b0:	0e030c3f 	mcreq	12, 0, r0, cr3, cr15, {1}
     5b4:	0b3b0b3a 	bleq	ec32a4 <__bss_end+0xec041c>
     5b8:	01110c27 	tsteq	r1, r7, lsr #24
     5bc:	0a400112 	beq	1000a0c <__bss_end+0xffdb84>
     5c0:	00001301 	andeq	r1, r0, r1, lsl #6
     5c4:	0300050d 	movweq	r0, #1293	; 0x50d
     5c8:	3b0b3a0e 	blcc	2cee08 <__bss_end+0x2cbf80>
     5cc:	0213490b 	andseq	r4, r3, #180224	; 0x2c000
     5d0:	0e000006 	cdpeq	0, 0, cr0, cr0, cr6, {0}
     5d4:	0e030005 	cdpeq	0, 0, cr0, cr3, cr5, {0}
     5d8:	0b3b0b3a 	bleq	ec32c8 <__bss_end+0xec0440>
     5dc:	0a021349 	beq	85308 <__bss_end+0x82480>
     5e0:	340f0000 	strcc	r0, [pc], #-0	; 5e8 <save_mem_status_nommu+0x8>
     5e4:	3a0e0300 	bcc	3811ec <__bss_end+0x37e364>
     5e8:	490b3b0b 	stmdbmi	fp, {r0, r1, r3, r8, r9, fp, ip, sp}
     5ec:	00060213 	andeq	r0, r6, r3, lsl r2
     5f0:	002e1000 	eoreq	r1, lr, r0
     5f4:	0e030c3f 	mcreq	12, 0, r0, cr3, cr15, {1}
     5f8:	0b3b0b3a 	bleq	ec32e8 <__bss_end+0xec0460>
     5fc:	01110c27 	tsteq	r1, r7, lsr #24
     600:	0a400112 	beq	1000a50 <__bss_end+0xffdbc8>
     604:	2e110000 	cdpcs	0, 1, cr0, cr1, cr0, {0}
     608:	11133101 	tstne	r3, r1, lsl #2
     60c:	40011201 	andmi	r1, r1, r1, lsl #4
     610:	0013010a 	andseq	r0, r3, sl, lsl #2
     614:	00341200 	eorseq	r1, r4, r0, lsl #4
     618:	0a021331 	beq	852e4 <__bss_end+0x8245c>
     61c:	2e130000 	cdpcs	0, 1, cr0, cr3, cr0, {0}
     620:	030c3f01 	movweq	r3, #52993	; 0xcf01
     624:	3b0b3a0e 	blcc	2cee64 <__bss_end+0x2cbfdc>
     628:	110c270b 	tstne	ip, fp, lsl #14
     62c:	40011201 	andmi	r1, r1, r1, lsl #4
     630:	00130106 	andseq	r0, r3, r6, lsl #2
     634:	011d1400 	tsteq	sp, r0, lsl #8
     638:	01111331 	tsteq	r1, r1, lsr r3
     63c:	0b580112 	bleq	1600a8c <__bss_end+0x15fdc04>
     640:	13010b59 	movwne	r0, #7001	; 0x1b59
     644:	0b150000 	bleq	54064c <__bss_end+0x53d7c4>
     648:	12011101 	andne	r1, r1, #1073741824	; 0x40000000
     64c:	16000001 	strne	r0, [r0], -r1
     650:	13310034 	teqne	r1, #52	; 0x34
     654:	00000602 	andeq	r0, r0, r2, lsl #12
     658:	31011d17 	tstcc	r1, r7, lsl sp
     65c:	12011113 	andne	r1, r1, #-1073741820	; 0xc0000004
     660:	590b5801 	stmdbpl	fp, {r0, fp, ip, lr}
     664:	1800000b 	stmdane	r0, {r0, r1, r3}
     668:	08030005 	stmdaeq	r3, {r0, r2}
     66c:	0b3b0b3a 	bleq	ec335c <__bss_end+0xec04d4>
     670:	06021349 	streq	r1, [r2], -r9, asr #6
     674:	34190000 	ldrcc	r0, [r9], #-0
     678:	3a080300 	bcc	201280 <__bss_end+0x1fe3f8>
     67c:	490b3b0b 	stmdbmi	fp, {r0, r1, r3, r8, r9, fp, ip, sp}
     680:	00060213 	andeq	r0, r6, r3, lsl r2
     684:	00341a00 	eorseq	r1, r4, r0, lsl #20
     688:	0b3a0e03 	bleq	e83e9c <__bss_end+0xe81014>
     68c:	1349053b 	movtne	r0, #38203	; 0x953b
     690:	00000602 	andeq	r0, r0, r2, lsl #12
     694:	31011d1b 	tstcc	r1, fp, lsl sp
     698:	12011113 	andne	r1, r1, #-1073741820	; 0xc0000004
     69c:	590b5801 	stmdbpl	fp, {r0, fp, ip, lr}
     6a0:	1c000005 	stcne	0, cr0, [r0], {5}
     6a4:	13310005 	teqne	r1, #5
     6a8:	00000a02 	andeq	r0, r0, r2, lsl #20
     6ac:	3f012e1d 	svccc	0x00012e1d
     6b0:	3a0e030c 	bcc	3812e8 <__bss_end+0x37e460>
     6b4:	27053b0b 	strcs	r3, [r5, -fp, lsl #22]
     6b8:	1113490c 	tstne	r3, ip, lsl #18
     6bc:	40011201 	andmi	r1, r1, r1, lsl #4
     6c0:	0013010a 	andseq	r0, r3, sl, lsl #2
     6c4:	00051e00 	andeq	r1, r5, r0, lsl #28
     6c8:	0b3a0e03 	bleq	e83edc <__bss_end+0xe81054>
     6cc:	1349053b 	movtne	r0, #38203	; 0x953b
     6d0:	00000602 	andeq	r0, r0, r2, lsl #12
     6d4:	3100051f 	tstcc	r0, pc, lsl r5
     6d8:	00060213 	andeq	r0, r6, r3, lsl r2
     6dc:	00342000 	eorseq	r2, r4, r0
     6e0:	0b3a0e03 	bleq	e83ef4 <__bss_end+0xe8106c>
     6e4:	13490b3b 	movtne	r0, #39739	; 0x9b3b
     6e8:	00000a02 	andeq	r0, r0, r2, lsl #20
     6ec:	01110100 	tsteq	r1, r0, lsl #2
     6f0:	0b130e25 	bleq	4c3f8c <__bss_end+0x4c1104>
     6f4:	0e1b0e03 	cdpeq	14, 1, cr0, cr11, cr3, {0}
     6f8:	01120111 	tsteq	r2, r1, lsl r1
     6fc:	00000610 	andeq	r0, r0, r0, lsl r6
     700:	0b002402 	bleq	9710 <__bss_end+0x6888>
     704:	030b3e0b 	movweq	r3, #48651	; 0xbe0b
     708:	03000008 	movweq	r0, #8
     70c:	0b0b0024 	bleq	2c07a4 <__bss_end+0x2bd91c>
     710:	0e030b3e 	vmoveq.16	d3[0], r0
     714:	16040000 	strne	r0, [r4], -r0
     718:	3a0e0300 	bcc	381320 <__bss_end+0x37e498>
     71c:	490b3b0b 	stmdbmi	fp, {r0, r1, r3, r8, r9, fp, ip, sp}
     720:	05000013 	streq	r0, [r0, #-19]
     724:	0e030113 	mcreq	1, 0, r0, cr3, cr3, {0}
     728:	0b3a0b0b 	bleq	e8335c <__bss_end+0xe804d4>
     72c:	13010b3b 	movwne	r0, #6971	; 0x1b3b
     730:	0d060000 	stceq	0, cr0, [r6, #-0]
     734:	3a0e0300 	bcc	38133c <__bss_end+0x37e4b4>
     738:	490b3b0b 	stmdbmi	fp, {r0, r1, r3, r8, r9, fp, ip, sp}
     73c:	000a3813 	andeq	r3, sl, r3, lsl r8
     740:	000d0700 	andeq	r0, sp, r0, lsl #14
     744:	0b3a0803 	bleq	e82758 <__bss_end+0xe7f8d0>
     748:	13490b3b 	movtne	r0, #39739	; 0x9b3b
     74c:	00000a38 	andeq	r0, r0, r8, lsr sl
     750:	3f012e08 	svccc	0x00012e08
     754:	3a0e030c 	bcc	38138c <__bss_end+0x37e504>
     758:	270b3b0b 	strcs	r3, [fp, -fp, lsl #22]
     75c:	1201110c 	andne	r1, r1, #3
     760:	010a4001 	tsteq	sl, r1
     764:	09000013 	stmdbeq	r0, {r0, r1, r4}
     768:	0e030005 	cdpeq	0, 0, cr0, cr3, cr5, {0}
     76c:	0b3b0b3a 	bleq	ec345c <__bss_end+0xec05d4>
     770:	0a021349 	beq	8549c <__bss_end+0x82614>
     774:	0f0a0000 	svceq	0x000a0000
     778:	490b0b00 	stmdbmi	fp, {r8, r9, fp}
     77c:	0b000013 	bleq	7d0 <change_runtime_env+0xb4>
     780:	0c3f012e 	ldfeqs	f0, [pc], #-184	; 6d0 <backup_perfcounter+0x10>
     784:	0b3a0e03 	bleq	e83f98 <__bss_end+0xe81110>
     788:	0c270b3b 	stceq	11, cr0, [r7], #-236	; 0xffffff14
     78c:	01120111 	tsteq	r2, r1, lsl r1
     790:	00000a40 	andeq	r0, r0, r0, asr #20
     794:	00110100 	andseq	r0, r1, r0, lsl #2
     798:	01110610 	tsteq	r1, r0, lsl r6
     79c:	08030112 	stmdaeq	r3, {r1, r4, r8}
     7a0:	0825081b 	stmdaeq	r5!, {r0, r1, r3, r4, fp}
     7a4:	00000513 	andeq	r0, r0, r3, lsl r5
     7a8:	01110100 	tsteq	r1, r0, lsl #2
     7ac:	0b130e25 	bleq	4c4048 <__bss_end+0x4c11c0>
     7b0:	0e1b0e03 	cdpeq	14, 1, cr0, cr11, cr3, {0}
     7b4:	01120111 	tsteq	r2, r1, lsl r1
     7b8:	00000610 	andeq	r0, r0, r0, lsl r6
     7bc:	0b002402 	bleq	97cc <__bss_end+0x6944>
     7c0:	030b3e0b 	movweq	r3, #48651	; 0xbe0b
     7c4:	0300000e 	movweq	r0, #14
     7c8:	0b0b0024 	bleq	2c0860 <__bss_end+0x2bd9d8>
     7cc:	08030b3e 	stmdaeq	r3, {r1, r2, r3, r4, r5, r8, r9, fp}
     7d0:	16040000 	strne	r0, [r4], -r0
     7d4:	3a0e0300 	bcc	3813dc <__bss_end+0x37e554>
     7d8:	490b3b0b 	stmdbmi	fp, {r0, r1, r3, r8, r9, fp, ip, sp}
     7dc:	05000013 	streq	r0, [r0, #-19]
     7e0:	0e030113 	mcreq	1, 0, r0, cr3, cr3, {0}
     7e4:	0b3a0b0b 	bleq	e83418 <__bss_end+0xe80590>
     7e8:	13010b3b 	movwne	r0, #6971	; 0x1b3b
     7ec:	0d060000 	stceq	0, cr0, [r6, #-0]
     7f0:	3a0e0300 	bcc	3813f8 <__bss_end+0x37e570>
     7f4:	490b3b0b 	stmdbmi	fp, {r0, r1, r3, r8, r9, fp, ip, sp}
     7f8:	000a3813 	andeq	r3, sl, r3, lsl r8
     7fc:	000d0700 	andeq	r0, sp, r0, lsl #14
     800:	0b3a0803 	bleq	e82814 <__bss_end+0xe7f98c>
     804:	13490b3b 	movtne	r0, #39739	; 0x9b3b
     808:	00000a38 	andeq	r0, r0, r8, lsr sl
     80c:	3f012e08 	svccc	0x00012e08
     810:	3a0e030c 	bcc	381448 <__bss_end+0x37e5c0>
     814:	270b3b0b 	strcs	r3, [fp, -fp, lsl #22]
     818:	1201110c 	andne	r1, r1, #3
     81c:	010a4001 	tsteq	sl, r1
     820:	09000013 	stmdbeq	r0, {r0, r1, r4}
     824:	0e030005 	cdpeq	0, 0, cr0, cr3, cr5, {0}
     828:	0b3b0b3a 	bleq	ec3518 <__bss_end+0xec0690>
     82c:	0a021349 	beq	85558 <__bss_end+0x826d0>
     830:	0f0a0000 	svceq	0x000a0000
     834:	490b0b00 	stmdbmi	fp, {r8, r9, fp}
     838:	0b000013 	bleq	88c <init_event_counter+0x10>
     83c:	0c3f012e 	ldfeqs	f0, [pc], #-184	; 78c <change_runtime_env+0x70>
     840:	0b3a0e03 	bleq	e84054 <__bss_end+0xe811cc>
     844:	0c27053b 	cfstr32eq	mvfx0, [r7], #-236	; 0xffffff14
     848:	01120111 	tsteq	r2, r1, lsl r1
     84c:	13010a40 	movwne	r0, #6720	; 0x1a40
     850:	050c0000 	streq	r0, [ip, #-0]
     854:	3a0e0300 	bcc	38145c <__bss_end+0x37e5d4>
     858:	49053b0b 	stmdbmi	r5, {r0, r1, r3, r8, r9, fp, ip, sp}
     85c:	000a0213 	andeq	r0, sl, r3, lsl r2
     860:	00340d00 	eorseq	r0, r4, r0, lsl #26
     864:	0b3a0803 	bleq	e82878 <__bss_end+0xe7f9f0>
     868:	1349053b 	movtne	r0, #38203	; 0x953b
     86c:	00000602 	andeq	r0, r0, r2, lsl #12
     870:	0300340e 	movweq	r3, #1038	; 0x40e
     874:	3b0b3a0e 	blcc	2cf0b4 <__bss_end+0x2cc22c>
     878:	00134905 	andseq	r4, r3, r5, lsl #18
     87c:	002e0f00 	eoreq	r0, lr, r0, lsl #30
     880:	0e030c3f 	mcreq	12, 0, r0, cr3, cr15, {1}
     884:	053b0b3a 	ldreq	r0, [fp, #-2874]!	; 0xb3a
     888:	01110c27 	tsteq	r1, r7, lsr #24
     88c:	0a400112 	beq	1000cdc <__bss_end+0xffde54>
     890:	34100000 	ldrcc	r0, [r0], #-0
     894:	3a0e0300 	bcc	38149c <__bss_end+0x37e614>
     898:	490b3b0b 	stmdbmi	fp, {r0, r1, r3, r8, r9, fp, ip, sp}
     89c:	11000013 	tstne	r0, r3, lsl r0
     8a0:	13490026 	movtne	r0, #36902	; 0x9026
     8a4:	01120000 	tsteq	r2, r0
     8a8:	01134901 	tsteq	r3, r1, lsl #18
     8ac:	13000013 	movwne	r0, #19
     8b0:	13490021 	movtne	r0, #36897	; 0x9021
     8b4:	00000b2f 	andeq	r0, r0, pc, lsr #22
     8b8:	03003414 	movweq	r3, #1044	; 0x414
     8bc:	3b0b3a0e 	blcc	2cf0fc <__bss_end+0x2cc274>
     8c0:	3f13490b 	svccc	0x0013490b
     8c4:	000a020c 	andeq	r0, sl, ip, lsl #4
     8c8:	11010000 	mrsne	r0, (UNDEF: 1)
     8cc:	130e2501 	movwne	r2, #58625	; 0xe501
     8d0:	1b0e030b 	blne	381504 <__bss_end+0x37e67c>
     8d4:	1201110e 	andne	r1, r1, #-2147483645	; 0x80000003
     8d8:	00061001 	andeq	r1, r6, r1
     8dc:	00240200 	eoreq	r0, r4, r0, lsl #4
     8e0:	0b3e0b0b 	bleq	f83514 <__bss_end+0xf8068c>
     8e4:	00000e03 	andeq	r0, r0, r3, lsl #28
     8e8:	03001603 	movweq	r1, #1539	; 0x603
     8ec:	3b0b3a0e 	blcc	2cf12c <__bss_end+0x2cc2a4>
     8f0:	0013490b 	andseq	r4, r3, fp, lsl #18
     8f4:	00240400 	eoreq	r0, r4, r0, lsl #8
     8f8:	0b3e0b0b 	bleq	f8352c <__bss_end+0xf806a4>
     8fc:	00000803 	andeq	r0, r0, r3, lsl #16
     900:	49003505 	stmdbmi	r0, {r0, r2, r8, sl, ip, sp}
     904:	06000013 			; <UNDEFINED> instruction: 0x06000013
     908:	13490101 	movtne	r0, #37121	; 0x9101
     90c:	00001301 	andeq	r1, r0, r1, lsl #6
     910:	49002107 	stmdbmi	r0, {r0, r1, r2, r8, sp}
     914:	000b2f13 	andeq	r2, fp, r3, lsl pc
     918:	01130800 	tsteq	r3, r0, lsl #16
     91c:	0b0b0e03 	bleq	2c4130 <__bss_end+0x2c12a8>
     920:	0b3b0b3a 	bleq	ec3610 <__bss_end+0xec0788>
     924:	00001301 	andeq	r1, r0, r1, lsl #6
     928:	03000d09 	movweq	r0, #3337	; 0xd09
     92c:	3b0b3a0e 	blcc	2cf16c <__bss_end+0x2cc2e4>
     930:	0b13490b 	bleq	4d2d64 <__bss_end+0x4cfedc>
     934:	0c0b0d0b 	stceq	13, cr0, [fp], {11}
     938:	000a380b 	andeq	r3, sl, fp, lsl #16
     93c:	000d0a00 	andeq	r0, sp, r0, lsl #20
     940:	0b3a0803 	bleq	e82954 <__bss_end+0xe7facc>
     944:	13490b3b 	movtne	r0, #39739	; 0x9b3b
     948:	0b0d0b0b 	bleq	34357c <__bss_end+0x3406f4>
     94c:	0a380b0c 	beq	e03584 <__bss_end+0xe006fc>
     950:	0d0b0000 	stceq	0, cr0, [fp, #-0]
     954:	3a0e0300 	bcc	38155c <__bss_end+0x37e6d4>
     958:	49053b0b 	stmdbmi	r5, {r0, r1, r3, r8, r9, fp, ip, sp}
     95c:	0d0b0b13 	vstreq	d0, [fp, #-76]	; 0xffffffb4
     960:	380b0c0b 	stmdacc	fp, {r0, r1, r3, sl, fp}
     964:	0c00000a 	stceq	0, cr0, [r0], {10}
     968:	0803000d 	stmdaeq	r3, {r0, r2, r3}
     96c:	053b0b3a 	ldreq	r0, [fp, #-2874]!	; 0xb3a
     970:	0b0b1349 	bleq	2c569c <__bss_end+0x2c2814>
     974:	0b0c0b0d 	bleq	3035b0 <__bss_end+0x300728>
     978:	00000a38 	andeq	r0, r0, r8, lsr sl
     97c:	0300160d 	movweq	r1, #1549	; 0x60d
     980:	3b0b3a0e 	blcc	2cf1c0 <__bss_end+0x2cc338>
     984:	00134905 	andseq	r4, r3, r5, lsl #18
     988:	01130e00 	tsteq	r3, r0, lsl #28
     98c:	0b0b0e03 	bleq	2c41a0 <__bss_end+0x2c1318>
     990:	053b0b3a 	ldreq	r0, [fp, #-2874]!	; 0xb3a
     994:	00001301 	andeq	r1, r0, r1, lsl #6
     998:	0301130f 	movweq	r1, #4879	; 0x130f
     99c:	3a050b0e 	bcc	1435dc <__bss_end+0x140754>
     9a0:	01053b0b 	tsteq	r5, fp, lsl #22
     9a4:	10000013 	andne	r0, r0, r3, lsl r0
     9a8:	0e03000d 	cdpeq	0, 0, cr0, cr3, cr13, {0}
     9ac:	053b0b3a 	ldreq	r0, [fp, #-2874]!	; 0xb3a
     9b0:	0a381349 	beq	e056dc <__bss_end+0xe02854>
     9b4:	0d110000 	ldceq	0, cr0, [r1, #-0]
     9b8:	3a080300 	bcc	2015c0 <__bss_end+0x1fe738>
     9bc:	49053b0b 	stmdbmi	r5, {r0, r1, r3, r8, r9, fp, ip, sp}
     9c0:	000a3813 	andeq	r3, sl, r3, lsl r8
     9c4:	000f1200 	andeq	r1, pc, r0, lsl #4
     9c8:	13490b0b 	movtne	r0, #39691	; 0x9b0b
     9cc:	2e130000 	cdpcs	0, 1, cr0, cr3, cr0, {0}
     9d0:	3a0e0301 	bcc	3815dc <__bss_end+0x37e754>
     9d4:	270b3b0b 	strcs	r3, [fp, -fp, lsl #22]
     9d8:	2013490c 	andscs	r4, r3, ip, lsl #18
     9dc:	0013010b 	andseq	r0, r3, fp, lsl #2
     9e0:	00051400 	andeq	r1, r5, r0, lsl #8
     9e4:	0b3a0e03 	bleq	e841f8 <__bss_end+0xe81370>
     9e8:	13490b3b 	movtne	r0, #39739	; 0x9b3b
     9ec:	34150000 	ldrcc	r0, [r5], #-0
     9f0:	3a0e0300 	bcc	3815f8 <__bss_end+0x37e770>
     9f4:	490b3b0b 	stmdbmi	fp, {r0, r1, r3, r8, r9, fp, ip, sp}
     9f8:	16000013 			; <UNDEFINED> instruction: 0x16000013
     9fc:	08030034 	stmdaeq	r3, {r2, r4, r5}
     a00:	0b3b0b3a 	bleq	ec36f0 <__bss_end+0xec0868>
     a04:	00001349 	andeq	r1, r0, r9, asr #6
     a08:	03012e17 	movweq	r2, #7703	; 0x1e17
     a0c:	3b0b3a0e 	blcc	2cf24c <__bss_end+0x2cc3c4>
     a10:	200c270b 	andcs	r2, ip, fp, lsl #14
     a14:	0013010b 	andseq	r0, r3, fp, lsl #2
     a18:	00051800 	andeq	r1, r5, r0, lsl #16
     a1c:	0b3a0803 	bleq	e82a30 <__bss_end+0xe7fba8>
     a20:	13490b3b 	movtne	r0, #39739	; 0x9b3b
     a24:	2e190000 	cdpcs	0, 1, cr0, cr9, cr0, {0}
     a28:	3a0e0301 	bcc	381634 <__bss_end+0x37e7ac>
     a2c:	27053b0b 	strcs	r3, [r5, -fp, lsl #22]
     a30:	010b200c 	tsteq	fp, ip
     a34:	1a000013 	bne	a88 <flush_dcache+0xc>
     a38:	08030005 	stmdaeq	r3, {r0, r2}
     a3c:	053b0b3a 	ldreq	r0, [fp, #-2874]!	; 0xb3a
     a40:	00001349 	andeq	r1, r0, r9, asr #6
     a44:	03012e1b 	movweq	r2, #7707	; 0x1e1b
     a48:	3b0b3a0e 	blcc	2cf288 <__bss_end+0x2cc400>
     a4c:	490c2705 	stmdbmi	ip, {r0, r2, r8, r9, sl, sp}
     a50:	010b2013 	tsteq	fp, r3, lsl r0
     a54:	1c000013 	stcne	0, cr0, [r0], {19}
     a58:	0e030034 	mcreq	0, 0, r0, cr3, cr4, {1}
     a5c:	053b0b3a 	ldreq	r0, [fp, #-2874]!	; 0xb3a
     a60:	00001349 	andeq	r1, r0, r9, asr #6
     a64:	31012e1d 	tstcc	r1, sp, lsl lr
     a68:	12011113 	andne	r1, r1, #-1073741820	; 0xc0000004
     a6c:	01064001 	tsteq	r6, r1
     a70:	1e000013 	mcrne	0, 0, r0, cr0, cr3, {0}
     a74:	13310005 	teqne	r1, #5
     a78:	00000602 	andeq	r0, r0, r2, lsl #12
     a7c:	3100341f 	tstcc	r0, pc, lsl r4
     a80:	00060213 	andeq	r0, r6, r3, lsl r2
     a84:	00342000 	eorseq	r2, r4, r0
     a88:	0b1c1331 	bleq	705754 <__bss_end+0x7028cc>
     a8c:	1d210000 	stcne	0, cr0, [r1, #-0]
     a90:	52133101 	andspl	r3, r3, #1073741824	; 0x40000000
     a94:	58065501 	stmdapl	r6, {r0, r8, sl, ip, lr}
     a98:	000b590b 	andeq	r5, fp, fp, lsl #18
     a9c:	010b2200 	mrseq	r2, R11_fiq
     aa0:	00000655 	andeq	r0, r0, r5, asr r6
     aa4:	31003423 	tstcc	r0, r3, lsr #8
     aa8:	24000013 	strcs	r0, [r0], #-19
     aac:	13310005 	teqne	r1, #5
     ab0:	2e250000 	cdpcs	0, 2, cr0, cr5, cr0, {0}
     ab4:	030c3f01 	movweq	r3, #52993	; 0xcf01
     ab8:	3b0b3a0e 	blcc	2cf2f8 <__bss_end+0x2cc470>
     abc:	110c270b 	tstne	ip, fp, lsl #14
     ac0:	40011201 	andmi	r1, r1, r1, lsl #4
     ac4:	00130106 	andseq	r0, r3, r6, lsl #2
     ac8:	00342600 	eorseq	r2, r4, r0, lsl #12
     acc:	0b3a0803 	bleq	e82ae0 <__bss_end+0xe7fc58>
     ad0:	13490b3b 	movtne	r0, #39739	; 0x9b3b
     ad4:	00000602 	andeq	r0, r0, r2, lsl #12
     ad8:	03003427 	movweq	r3, #1063	; 0x427
     adc:	3b0b3a0e 	blcc	2cf31c <__bss_end+0x2cc494>
     ae0:	0213490b 	andseq	r4, r3, #180224	; 0x2c000
     ae4:	28000006 	stmdacs	r0, {r1, r2}
     ae8:	13310005 	teqne	r1, #5
     aec:	00000b1c 	andeq	r0, r0, ip, lsl fp
     af0:	31003429 	tstcc	r0, r9, lsr #8
     af4:	00061c13 	andeq	r1, r6, r3, lsl ip
     af8:	012e2a00 	teqeq	lr, r0, lsl #20
     afc:	0e030c3f 	mcreq	12, 0, r0, cr3, cr15, {1}
     b00:	0b3b0b3a 	bleq	ec37f0 <__bss_end+0xec0968>
     b04:	13490c27 	movtne	r0, #39975	; 0x9c27
     b08:	01120111 	tsteq	r2, r1, lsl r1
     b0c:	13010640 	movwne	r0, #5696	; 0x1640
     b10:	052b0000 	streq	r0, [fp, #-0]!
     b14:	3a0e0300 	bcc	38171c <__bss_end+0x37e894>
     b18:	490b3b0b 	stmdbmi	fp, {r0, r1, r3, r8, r9, fp, ip, sp}
     b1c:	00060213 	andeq	r0, r6, r3, lsl r2
     b20:	011d2c00 	tsteq	sp, r0, lsl #24
     b24:	01521331 	cmpeq	r2, r1, lsr r3
     b28:	0b580655 	bleq	1602484 <__bss_end+0x15ff5fc>
     b2c:	13010b59 	movwne	r0, #7001	; 0x1b59
     b30:	1d2d0000 	stcne	0, cr0, [sp, #-0]
     b34:	11133101 	tstne	r3, r1, lsl #2
     b38:	58011201 	stmdapl	r1, {r0, r9, ip}
     b3c:	000b590b 	andeq	r5, fp, fp, lsl #18
     b40:	00262e00 	eoreq	r2, r6, r0, lsl #28
     b44:	00001349 	andeq	r1, r0, r9, asr #6
     b48:	0300052f 	movweq	r0, #1327	; 0x52f
     b4c:	3b0b3a08 	blcc	2cf374 <__bss_end+0x2cc4ec>
     b50:	0213490b 	andseq	r4, r3, #180224	; 0x2c000
     b54:	30000006 	andcc	r0, r0, r6
     b58:	08030005 	stmdaeq	r3, {r0, r2}
     b5c:	0b3b0b3a 	bleq	ec384c <__bss_end+0xec09c4>
     b60:	0a021349 	beq	8588c <__bss_end+0x82a04>
     b64:	34310000 	ldrtcc	r0, [r1], #-0
     b68:	3a080300 	bcc	201770 <__bss_end+0x1fe8e8>
     b6c:	490b3b0b 	stmdbmi	fp, {r0, r1, r3, r8, r9, fp, ip, sp}
     b70:	000a0213 	andeq	r0, sl, r3, lsl r2
     b74:	00343200 	eorseq	r3, r4, r0, lsl #4
     b78:	0d1c1331 	ldceq	3, cr1, [ip, #-196]	; 0xffffff3c
     b7c:	2e330000 	cdpcs	0, 3, cr0, cr3, cr0, {0}
     b80:	030c3f00 	movweq	r3, #52992	; 0xcf00
     b84:	3b0b3a0e 	blcc	2cf3c4 <__bss_end+0x2cc53c>
     b88:	110c270b 	tstne	ip, fp, lsl #14
     b8c:	40011201 	andmi	r1, r1, r1, lsl #4
     b90:	3400000a 	strcc	r0, [r0], #-10
     b94:	0c3f012e 	ldfeqs	f0, [pc], #-184	; ae4 <loop3+0xc>
     b98:	0b3a0e03 	bleq	e843ac <__bss_end+0xe81524>
     b9c:	0c27053b 	cfstr32eq	mvfx0, [r7], #-236	; 0xffffff14
     ba0:	01111349 	tsteq	r1, r9, asr #6
     ba4:	06400112 			; <UNDEFINED> instruction: 0x06400112
     ba8:	00001301 	andeq	r1, r0, r1, lsl #6
     bac:	03000535 	movweq	r0, #1333	; 0x535
     bb0:	3b0b3a0e 	blcc	2cf3f0 <__bss_end+0x2cc568>
     bb4:	02134905 	andseq	r4, r3, #81920	; 0x14000
     bb8:	36000006 	strcc	r0, [r0], -r6
     bbc:	1331011d 	teqne	r1, #1073741831	; 0x40000007
     bc0:	06550152 			; <UNDEFINED> instruction: 0x06550152
     bc4:	05590b58 	ldrbeq	r0, [r9, #-2904]	; 0xb58
     bc8:	00001301 	andeq	r1, r0, r1, lsl #6
     bcc:	31011d37 	tstcc	r1, r7, lsr sp
     bd0:	12011113 	andne	r1, r1, #-1073741820	; 0xc0000004
     bd4:	590b5801 	stmdbpl	fp, {r0, fp, ip, lr}
     bd8:	38000005 	stmdacc	r0, {r0, r2}
     bdc:	08030005 	stmdaeq	r3, {r0, r2}
     be0:	053b0b3a 	ldreq	r0, [fp, #-2874]!	; 0xb3a
     be4:	06021349 	streq	r1, [r2], -r9, asr #6
     be8:	05390000 	ldreq	r0, [r9, #-0]!
     bec:	3a080300 	bcc	2017f4 <__bss_end+0x1fe96c>
     bf0:	49053b0b 	stmdbmi	r5, {r0, r1, r3, r8, r9, fp, ip, sp}
     bf4:	000a0213 	andeq	r0, sl, r3, lsl r2
     bf8:	00343a00 	eorseq	r3, r4, r0, lsl #20
     bfc:	0b3a0803 	bleq	e82c10 <__bss_end+0xe7fd88>
     c00:	1349053b 	movtne	r0, #38203	; 0x953b
     c04:	00000602 	andeq	r0, r0, r2, lsl #12
     c08:	0300343b 	movweq	r3, #1083	; 0x43b
     c0c:	3b0b3a08 	blcc	2cf434 <__bss_end+0x2cc5ac>
     c10:	02134905 	andseq	r4, r3, #81920	; 0x14000
     c14:	3c00000a 	stccc	0, cr0, [r0], {10}
     c18:	1331011d 	teqne	r1, #1073741831	; 0x40000007
     c1c:	06550152 			; <UNDEFINED> instruction: 0x06550152
     c20:	05590b58 	ldrbeq	r0, [r9, #-2904]	; 0xb58
     c24:	343d0000 	ldrtcc	r0, [sp], #-0
     c28:	3a0e0300 	bcc	381830 <__bss_end+0x37e9a8>
     c2c:	490b3b0b 	stmdbmi	fp, {r0, r1, r3, r8, r9, fp, ip, sp}
     c30:	000a0213 	andeq	r0, sl, r3, lsl r2
     c34:	11010000 	mrsne	r0, (UNDEF: 1)
     c38:	130e2501 	movwne	r2, #58625	; 0xe501
     c3c:	1b0e030b 	blne	381870 <__bss_end+0x37e9e8>
     c40:	1201110e 	andne	r1, r1, #-2147483645	; 0x80000003
     c44:	00061001 	andeq	r1, r6, r1
     c48:	00240200 	eoreq	r0, r4, r0, lsl #4
     c4c:	0b3e0b0b 	bleq	f83880 <__bss_end+0xf809f8>
     c50:	00000e03 	andeq	r0, r0, r3, lsl #28
     c54:	03001603 	movweq	r1, #1539	; 0x603
     c58:	3b0b3a0e 	blcc	2cf498 <__bss_end+0x2cc610>
     c5c:	0013490b 	andseq	r4, r3, fp, lsl #18
     c60:	00240400 	eoreq	r0, r4, r0, lsl #8
     c64:	0b3e0b0b 	bleq	f83898 <__bss_end+0xf80a10>
     c68:	00000803 	andeq	r0, r0, r3, lsl #16
     c6c:	0b000f05 	bleq	4888 <__bss_end+0x1a00>
     c70:	0600000b 	streq	r0, [r0], -fp
     c74:	0e030113 	mcreq	1, 0, r0, cr3, cr3, {0}
     c78:	0b3a0b0b 	bleq	e838ac <__bss_end+0xe80a24>
     c7c:	13010b3b 	movwne	r0, #6971	; 0x1b3b
     c80:	0d070000 	stceq	0, cr0, [r7, #-0]
     c84:	490e0300 	stmdbmi	lr, {r8, r9}
     c88:	340a3813 	strcc	r3, [sl], #-2067	; 0x813
     c8c:	0800000c 	stmdaeq	r0, {r2, r3}
     c90:	0c3f012e 	ldfeqs	f0, [pc], #-184	; be0 <enable_icache+0x10>
     c94:	0b3a0e03 	bleq	e844a8 <__bss_end+0xe81620>
     c98:	0c270b3b 	stceq	11, cr0, [r7], #-236	; 0xffffff14
     c9c:	0b201349 	bleq	8059c8 <__bss_end+0x802b40>
     ca0:	00001301 	andeq	r1, r0, r1, lsl #6
     ca4:	03000509 	movweq	r0, #1289	; 0x509
     ca8:	3b0b3a08 	blcc	2cf4d0 <__bss_end+0x2cc648>
     cac:	0013490b 	andseq	r4, r3, fp, lsl #18
     cb0:	00340a00 	eorseq	r0, r4, r0, lsl #20
     cb4:	0b3a0803 	bleq	e82cc8 <__bss_end+0xe7fe40>
     cb8:	13490b3b 	movtne	r0, #39739	; 0x9b3b
     cbc:	0f0b0000 	svceq	0x000b0000
     cc0:	490b0b00 	stmdbmi	fp, {r8, r9, fp}
     cc4:	0c000013 	stceq	0, cr0, [r0], {19}
     cc8:	13490026 	movtne	r0, #36902	; 0x9026
     ccc:	050d0000 	streq	r0, [sp, #-0]
     cd0:	3a0e0300 	bcc	3818d8 <__bss_end+0x37ea50>
     cd4:	490b3b0b 	stmdbmi	fp, {r0, r1, r3, r8, r9, fp, ip, sp}
     cd8:	0e000013 	mcreq	0, 0, r0, cr0, cr3, {0}
     cdc:	1331012e 	teqne	r1, #-2147483637	; 0x8000000b
     ce0:	01120111 	tsteq	r2, r1, lsl r1
     ce4:	13010a40 	movwne	r0, #6720	; 0x1a40
     ce8:	050f0000 	streq	r0, [pc, #-0]	; cf0 <mem_preload_tlb+0x90>
     cec:	02133100 	andseq	r3, r3, #0
     cf0:	10000006 	andne	r0, r0, r6
     cf4:	13310034 	teqne	r1, #52	; 0x34
     cf8:	00000602 	andeq	r0, r0, r2, lsl #12
     cfc:	31003411 	tstcc	r0, r1, lsl r4
     d00:	000a0213 	andeq	r0, sl, r3, lsl r2
     d04:	012e1200 	teqeq	lr, r0, lsl #4
     d08:	0e030c3f 	mcreq	12, 0, r0, cr3, cr15, {1}
     d0c:	0b3b0b3a 	bleq	ec39fc <__bss_end+0xec0b74>
     d10:	13490c27 	movtne	r0, #39975	; 0x9c27
     d14:	01120111 	tsteq	r2, r1, lsl r1
     d18:	13010a40 	movwne	r0, #6720	; 0x1a40
     d1c:	05130000 	ldreq	r0, [r3, #-0]
     d20:	3a0e0300 	bcc	381928 <__bss_end+0x37eaa0>
     d24:	490b3b0b 	stmdbmi	fp, {r0, r1, r3, r8, r9, fp, ip, sp}
     d28:	00060213 	andeq	r0, r6, r3, lsl r2
     d2c:	00051400 	andeq	r1, r5, r0, lsl #8
     d30:	0b3a0803 	bleq	e82d44 <__bss_end+0xe7febc>
     d34:	13490b3b 	movtne	r0, #39739	; 0x9b3b
     d38:	00000a02 	andeq	r0, r0, r2, lsl #20
     d3c:	03003415 	movweq	r3, #1045	; 0x415
     d40:	3b0b3a08 	blcc	2cf568 <__bss_end+0x2cc6e0>
     d44:	0213490b 	andseq	r4, r3, #180224	; 0x2c000
     d48:	16000006 	strne	r0, [r0], -r6
     d4c:	08030005 	stmdaeq	r3, {r0, r2}
     d50:	0b3b0b3a 	bleq	ec3a40 <__bss_end+0xec0bb8>
     d54:	06021349 	streq	r1, [r2], -r9, asr #6
     d58:	34170000 	ldrcc	r0, [r7], #-0
     d5c:	3a080300 	bcc	201964 <__bss_end+0x1feadc>
     d60:	490b3b0b 	stmdbmi	fp, {r0, r1, r3, r8, r9, fp, ip, sp}
     d64:	000a0213 	andeq	r0, sl, r3, lsl r2
     d68:	012e1800 	teqeq	lr, r0, lsl #16
     d6c:	0e030c3f 	mcreq	12, 0, r0, cr3, cr15, {1}
     d70:	0b3b0b3a 	bleq	ec3a60 <__bss_end+0xec0bd8>
     d74:	13490c27 	movtne	r0, #39975	; 0x9c27
     d78:	01120111 	tsteq	r2, r1, lsl r1
     d7c:	13010640 	movwne	r0, #5696	; 0x1640
     d80:	34190000 	ldrcc	r0, [r9], #-0
     d84:	3a0e0300 	bcc	38198c <__bss_end+0x37eb04>
     d88:	490b3b0b 	stmdbmi	fp, {r0, r1, r3, r8, r9, fp, ip, sp}
     d8c:	000a0213 	andeq	r0, sl, r3, lsl r2
     d90:	00341a00 	eorseq	r1, r4, r0, lsl #20
     d94:	0b3a0e03 	bleq	e845a8 <__bss_end+0xe81720>
     d98:	13490b3b 	movtne	r0, #39739	; 0x9b3b
     d9c:	00000602 	andeq	r0, r0, r2, lsl #12
     da0:	4901011b 	stmdbmi	r1, {r0, r1, r3, r4, r8}
     da4:	00130113 	andseq	r0, r3, r3, lsl r1
     da8:	00211c00 	eoreq	r1, r1, r0, lsl #24
     dac:	0b2f1349 	bleq	bc5ad8 <__bss_end+0xbc2c50>
     db0:	2e1d0000 	cdpcs	0, 1, cr0, cr13, cr0, {0}
     db4:	030c3f01 	movweq	r3, #52993	; 0xcf01
     db8:	3b0b3a0e 	blcc	2cf5f8 <__bss_end+0x2cc770>
     dbc:	490c2705 	stmdbmi	ip, {r0, r2, r8, r9, sl, sp}
     dc0:	12011113 	andne	r1, r1, #-1073741820	; 0xc0000004
     dc4:	01064001 	tsteq	r6, r1
     dc8:	1e000013 	mcrne	0, 0, r0, cr0, cr3, {0}
     dcc:	0e030005 	cdpeq	0, 0, cr0, cr3, cr5, {0}
     dd0:	053b0b3a 	ldreq	r0, [fp, #-2874]!	; 0xb3a
     dd4:	06021349 	streq	r1, [r2], -r9, asr #6
     dd8:	051f0000 	ldreq	r0, [pc, #-0]	; de0 <__turn_mmu_on>
     ddc:	3a080300 	bcc	2019e4 <__bss_end+0x1feb5c>
     de0:	49053b0b 	stmdbmi	r5, {r0, r1, r3, r8, r9, fp, ip, sp}
     de4:	00060213 	andeq	r0, r6, r3, lsl r2
     de8:	00342000 	eorseq	r2, r4, r0
     dec:	0b3a0e03 	bleq	e84600 <__bss_end+0xe81778>
     df0:	1349053b 	movtne	r0, #38203	; 0x953b
     df4:	00000a02 	andeq	r0, r0, r2, lsl #20
     df8:	00001821 	andeq	r1, r0, r1, lsr #16
     dfc:	00342200 	eorseq	r2, r4, r0, lsl #4
     e00:	0b3a0e03 	bleq	e84614 <__bss_end+0xe8178c>
     e04:	1349053b 	movtne	r0, #38203	; 0x953b
     e08:	00000602 	andeq	r0, r0, r2, lsl #12
     e0c:	03003423 	movweq	r3, #1059	; 0x423
     e10:	3b0b3a08 	blcc	2cf638 <__bss_end+0x2cc7b0>
     e14:	02134905 	andseq	r4, r3, #81920	; 0x14000
     e18:	24000006 	strcs	r0, [r0], #-6
     e1c:	0655010b 	ldrbeq	r0, [r5], -fp, lsl #2
     e20:	00001301 	andeq	r1, r0, r1, lsl #6
     e24:	3f012e25 	svccc	0x00012e25
     e28:	3a0e030c 	bcc	381a60 <__bss_end+0x37ebd8>
     e2c:	49053b0b 	stmdbmi	r5, {r0, r1, r3, r8, r9, fp, ip, sp}
     e30:	010c3c13 	tsteq	ip, r3, lsl ip
     e34:	26000013 			; <UNDEFINED> instruction: 0x26000013
     e38:	1331011d 	teqne	r1, #1073741831	; 0x40000007
     e3c:	01120111 	tsteq	r2, r1, lsl r1
     e40:	05590b58 	ldrbeq	r0, [r9, #-2904]	; 0xb58
     e44:	00001301 	andeq	r1, r0, r1, lsl #6
     e48:	11010b27 	tstne	r1, r7, lsr #22
     e4c:	00011201 	andeq	r1, r1, r1, lsl #4
     e50:	011d2800 	tsteq	sp, r0, lsl #16
     e54:	01111331 	tsteq	r1, r1, lsr r3
     e58:	0b580112 	bleq	16012a8 <__bss_end+0x15fe420>
     e5c:	00000559 	andeq	r0, r0, r9, asr r5
     e60:	31000529 	tstcc	r0, r9, lsr #10
     e64:	2a000013 	bcs	eb8 <jump_to_resume0_nommu+0x78>
     e68:	0111010b 	tsteq	r1, fp, lsl #2
     e6c:	13010112 	movwne	r0, #4370	; 0x1112
     e70:	052b0000 	streq	r0, [fp, #-0]!
     e74:	02133100 	andseq	r3, r3, #0
     e78:	2c00000a 	stccs	0, cr0, [r0], {10}
     e7c:	0e030034 	mcreq	0, 0, r0, cr3, cr4, {1}
     e80:	053b0b3a 	ldreq	r0, [fp, #-2874]!	; 0xb3a
     e84:	0c3f1349 	ldceq	3, cr1, [pc], #-292	; d68 <mem_preload_tlb+0x108>
     e88:	00000a02 	andeq	r0, r0, r2, lsl #20
     e8c:	00110100 	andseq	r0, r1, r0, lsl #2
     e90:	01110610 	tsteq	r1, r0, lsl r6
     e94:	08030112 	stmdaeq	r3, {r1, r4, r8}
     e98:	0825081b 	stmdaeq	r5!, {r0, r1, r3, r4, fp}
     e9c:	00000513 	andeq	r0, r0, r3, lsl r5
     ea0:	01110100 	tsteq	r1, r0, lsl #2
     ea4:	0b130e25 	bleq	4c4740 <__bss_end+0x4c18b8>
     ea8:	0e1b0e03 	cdpeq	14, 1, cr0, cr11, cr3, {0}
     eac:	01120111 	tsteq	r2, r1, lsl r1
     eb0:	00000610 	andeq	r0, r0, r0, lsl r6
     eb4:	0b002402 	bleq	9ec4 <__bss_end+0x703c>
     eb8:	030b3e0b 	movweq	r3, #48651	; 0xbe0b
     ebc:	0300000e 	movweq	r0, #14
     ec0:	0e030016 	mcreq	0, 0, r0, cr3, cr6, {0}
     ec4:	0b3b0b3a 	bleq	ec3bb4 <__bss_end+0xec0d2c>
     ec8:	00001349 	andeq	r1, r0, r9, asr #6
     ecc:	0b002404 	bleq	9ee4 <__bss_end+0x705c>
     ed0:	030b3e0b 	movweq	r3, #48651	; 0xbe0b
     ed4:	05000008 	streq	r0, [r0, #-8]
     ed8:	0c3f002e 	ldceq	0, cr0, [pc], #-184	; e28 <jump_to_resume+0x18>
     edc:	0b3a0e03 	bleq	e846f0 <__bss_end+0xe81868>
     ee0:	0c270b3b 	stceq	11, cr0, [r7], #-236	; 0xffffff14
     ee4:	01120111 	tsteq	r2, r1, lsl r1
     ee8:	00000a40 	andeq	r0, r0, r0, asr #20
     eec:	3f012e06 	svccc	0x00012e06
     ef0:	3a0e030c 	bcc	381b28 <__bss_end+0x37eca0>
     ef4:	270b3b0b 	strcs	r3, [fp, -fp, lsl #22]
     ef8:	1113490c 	tstne	r3, ip, lsl #18
     efc:	40011201 	andmi	r1, r1, r1, lsl #4
     f00:	0700000a 	streq	r0, [r0, -sl]
     f04:	0e030005 	cdpeq	0, 0, cr0, cr3, cr5, {0}
     f08:	0b3b0b3a 	bleq	ec3bf8 <__bss_end+0xec0d70>
     f0c:	06021349 	streq	r1, [r2], -r9, asr #6
     f10:	34080000 	strcc	r0, [r8], #-0
     f14:	3a0e0300 	bcc	381b1c <__bss_end+0x37ec94>
     f18:	490b3b0b 	stmdbmi	fp, {r0, r1, r3, r8, r9, fp, ip, sp}
     f1c:	00060213 	andeq	r0, r6, r3, lsl r2
     f20:	11010000 	mrsne	r0, (UNDEF: 1)
     f24:	130e2501 	movwne	r2, #58625	; 0xe501
     f28:	1b0e030b 	blne	381b5c <__bss_end+0x37ecd4>
     f2c:	1201110e 	andne	r1, r1, #-2147483645	; 0x80000003
     f30:	00061001 	andeq	r1, r6, r1
     f34:	00240200 	eoreq	r0, r4, r0, lsl #4
     f38:	0b3e0b0b 	bleq	f83b6c <__bss_end+0xf80ce4>
     f3c:	00000e03 	andeq	r0, r0, r3, lsl #28
     f40:	03001603 	movweq	r1, #1539	; 0x603
     f44:	3b0b3a0e 	blcc	2cf784 <__bss_end+0x2cc8fc>
     f48:	0013490b 	andseq	r4, r3, fp, lsl #18
     f4c:	00240400 	eoreq	r0, r4, r0, lsl #8
     f50:	0b3e0b0b 	bleq	f83b84 <__bss_end+0xf80cfc>
     f54:	00000803 	andeq	r0, r0, r3, lsl #16
     f58:	03010405 	movweq	r0, #5125	; 0x1405
     f5c:	3a0b0b0e 	bcc	2c3b9c <__bss_end+0x2c0d14>
     f60:	010b3b0b 	tsteq	fp, fp, lsl #22
     f64:	06000013 			; <UNDEFINED> instruction: 0x06000013
     f68:	0e030028 	cdpeq	0, 0, cr0, cr3, cr8, {1}
     f6c:	00000d1c 	andeq	r0, r0, ip, lsl sp
     f70:	49003507 	stmdbmi	r0, {r0, r1, r2, r8, sl, ip, sp}
     f74:	08000013 	stmdaeq	r0, {r0, r1, r4}
     f78:	0b0b000f 	bleq	2c0fbc <__bss_end+0x2be134>
     f7c:	2e090000 	cdpcs	0, 0, cr0, cr9, cr0, {0}
     f80:	030c3f01 	movweq	r3, #52993	; 0xcf01
     f84:	3b0b3a0e 	blcc	2cf7c4 <__bss_end+0x2cc93c>
     f88:	490c270b 	stmdbmi	ip, {r0, r1, r3, r8, r9, sl, sp}
     f8c:	12011113 	andne	r1, r1, #-1073741820	; 0xc0000004
     f90:	01064001 	tsteq	r6, r1
     f94:	0a000013 	beq	fe8 <__save_processor_state+0xe8>
     f98:	08030034 	stmdaeq	r3, {r2, r4, r5}
     f9c:	0b3b0b3a 	bleq	ec3c8c <__bss_end+0xec0e04>
     fa0:	06021349 	streq	r1, [r2], -r9, asr #6
     fa4:	340b0000 	strcc	r0, [fp], #-0
     fa8:	3a0e0300 	bcc	381bb0 <__bss_end+0x37ed28>
     fac:	490b3b0b 	stmdbmi	fp, {r0, r1, r3, r8, r9, fp, ip, sp}
     fb0:	00060213 	andeq	r0, r6, r3, lsl r2
     fb4:	00050c00 	andeq	r0, r5, r0, lsl #24
     fb8:	0b3a0803 	bleq	e82fcc <__bss_end+0xe80144>
     fbc:	13490b3b 	movtne	r0, #39739	; 0x9b3b
     fc0:	00000602 	andeq	r0, r0, r2, lsl #12
     fc4:	3f012e0d 	svccc	0x00012e0d
     fc8:	3a0e030c 	bcc	381c00 <__bss_end+0x37ed78>
     fcc:	270b3b0b 	strcs	r3, [fp, -fp, lsl #22]
     fd0:	1113490c 	tstne	r3, ip, lsl #18
     fd4:	40011201 	andmi	r1, r1, r1, lsl #4
     fd8:	0013010a 	andseq	r0, r3, sl, lsl #2
     fdc:	00340e00 	eorseq	r0, r4, r0, lsl #28
     fe0:	0b3a0e03 	bleq	e847f4 <__bss_end+0xe8196c>
     fe4:	13490b3b 	movtne	r0, #39739	; 0x9b3b
     fe8:	00000a02 	andeq	r0, r0, r2, lsl #20
     fec:	01110100 	tsteq	r1, r0, lsl #2
     ff0:	0b130e25 	bleq	4c488c <__bss_end+0x4c1a04>
     ff4:	0e1b0e03 	cdpeq	14, 1, cr0, cr11, cr3, {0}
     ff8:	01120111 	tsteq	r2, r1, lsl r1
     ffc:	00000610 	andeq	r0, r0, r0, lsl r6
    1000:	0b002402 	bleq	a010 <__bss_end+0x7188>
    1004:	030b3e0b 	movweq	r3, #48651	; 0xbe0b
    1008:	0300000e 	movweq	r0, #14
    100c:	0e030016 	mcreq	0, 0, r0, cr3, cr6, {0}
    1010:	0b3b0b3a 	bleq	ec3d00 <__bss_end+0xec0e78>
    1014:	00001349 	andeq	r1, r0, r9, asr #6
    1018:	0b002404 	bleq	a030 <__bss_end+0x71a8>
    101c:	030b3e0b 	movweq	r3, #48651	; 0xbe0b
    1020:	05000008 	streq	r0, [r0, #-8]
    1024:	0e030113 	mcreq	1, 0, r0, cr3, cr3, {0}
    1028:	0b3a0b0b 	bleq	e83c5c <__bss_end+0xe80dd4>
    102c:	13010b3b 	movwne	r0, #6971	; 0x1b3b
    1030:	0d060000 	stceq	0, cr0, [r6, #-0]
    1034:	3a0e0300 	bcc	381c3c <__bss_end+0x37edb4>
    1038:	490b3b0b 	stmdbmi	fp, {r0, r1, r3, r8, r9, fp, ip, sp}
    103c:	000a3813 	andeq	r3, sl, r3, lsl r8
    1040:	00350700 	eorseq	r0, r5, r0, lsl #14
    1044:	00001349 	andeq	r1, r0, r9, asr #6
    1048:	49010108 	stmdbmi	r1, {r3, r8}
    104c:	00130113 	andseq	r0, r3, r3, lsl r1
    1050:	00210900 	eoreq	r0, r1, r0, lsl #18
    1054:	0b2f1349 	bleq	bc5d80 <__bss_end+0xbc2ef8>
    1058:	2e0a0000 	cdpcs	0, 0, cr0, cr10, cr0, {0}
    105c:	030c3f01 	movweq	r3, #52993	; 0xcf01
    1060:	3b0b3a0e 	blcc	2cf8a0 <__bss_end+0x2cca18>
    1064:	490c270b 	stmdbmi	ip, {r0, r1, r3, r8, r9, sl, sp}
    1068:	12011113 	andne	r1, r1, #-1073741820	; 0xc0000004
    106c:	010a4001 	tsteq	sl, r1
    1070:	0b000013 	bleq	10c4 <__restore_processor_state+0xb8>
    1074:	0e030005 	cdpeq	0, 0, cr0, cr3, cr5, {0}
    1078:	0b3b0b3a 	bleq	ec3d68 <__bss_end+0xec0ee0>
    107c:	06021349 	streq	r1, [r2], -r9, asr #6
    1080:	0f0c0000 	svceq	0x000c0000
    1084:	490b0b00 	stmdbmi	fp, {r8, r9, fp}
    1088:	0d000013 	stceq	0, cr0, [r0, #-76]	; 0xffffffb4
    108c:	0c3f002e 	ldceq	0, cr0, [pc], #-184	; fdc <__save_processor_state+0xdc>
    1090:	0b3a0e03 	bleq	e848a4 <__bss_end+0xe81a1c>
    1094:	0c270b3b 	stceq	11, cr0, [r7], #-236	; 0xffffff14
    1098:	01111349 	tsteq	r1, r9, asr #6
    109c:	0a400112 	beq	10014ec <__bss_end+0xffe664>
    10a0:	2e0e0000 	cdpcs	0, 0, cr0, cr14, cr0, {0}
    10a4:	030c3f00 	movweq	r3, #52992	; 0xcf00
    10a8:	3b0b3a0e 	blcc	2cf8e8 <__bss_end+0x2cca60>
    10ac:	110c270b 	tstne	ip, fp, lsl #14
    10b0:	40011201 	andmi	r1, r1, r1, lsl #4
    10b4:	0f00000a 	svceq	0x0000000a
    10b8:	0e030034 	mcreq	0, 0, r0, cr3, cr4, {1}
    10bc:	0b3b0b3a 	bleq	ec3dac <__bss_end+0xec0f24>
    10c0:	0a021349 	beq	85dec <__bss_end+0x82f64>
    10c4:	01000000 	mrseq	r0, (UNDEF: 0)
    10c8:	0e250111 	mcreq	1, 1, r0, cr5, cr1, {0}
    10cc:	0e030b13 	vmoveq.32	d3[0], r0
    10d0:	01110e1b 	tsteq	r1, fp, lsl lr
    10d4:	06100112 			; <UNDEFINED> instruction: 0x06100112
    10d8:	24020000 	strcs	r0, [r2], #-0
    10dc:	3e0b0b00 	vmlacc.f64	d0, d11, d0
    10e0:	000e030b 	andeq	r0, lr, fp, lsl #6
    10e4:	00160300 	andseq	r0, r6, r0, lsl #6
    10e8:	0b3a0e03 	bleq	e848fc <__bss_end+0xe81a74>
    10ec:	13490b3b 	movtne	r0, #39739	; 0x9b3b
    10f0:	24040000 	strcs	r0, [r4], #-0
    10f4:	3e0b0b00 	vmlacc.f64	d0, d11, d0
    10f8:	0008030b 	andeq	r0, r8, fp, lsl #6
    10fc:	00350500 	eorseq	r0, r5, r0, lsl #10
    1100:	00001349 	andeq	r1, r0, r9, asr #6
    1104:	49010106 	stmdbmi	r1, {r1, r2, r8}
    1108:	00130113 	andseq	r0, r3, r3, lsl r1
    110c:	00210700 	eoreq	r0, r1, r0, lsl #14
    1110:	0b2f1349 	bleq	bc5e3c <__bss_end+0xbc2fb4>
    1114:	13080000 	movwne	r0, #32768	; 0x8000
    1118:	0b0e0301 	bleq	381d24 <__bss_end+0x37ee9c>
    111c:	3b0b3a0b 	blcc	2cf950 <__bss_end+0x2ccac8>
    1120:	0013010b 	andseq	r0, r3, fp, lsl #2
    1124:	000d0900 	andeq	r0, sp, r0, lsl #18
    1128:	0b3a0e03 	bleq	e8493c <__bss_end+0xe81ab4>
    112c:	13490b3b 	movtne	r0, #39739	; 0x9b3b
    1130:	0b0d0b0b 	bleq	343d64 <__bss_end+0x340edc>
    1134:	0a380b0c 	beq	e03d6c <__bss_end+0xe00ee4>
    1138:	0d0a0000 	stceq	0, cr0, [sl, #-0]
    113c:	3a080300 	bcc	201d44 <__bss_end+0x1feebc>
    1140:	490b3b0b 	stmdbmi	fp, {r0, r1, r3, r8, r9, fp, ip, sp}
    1144:	0d0b0b13 	vstreq	d0, [fp, #-76]	; 0xffffffb4
    1148:	380b0c0b 	stmdacc	fp, {r0, r1, r3, sl, fp}
    114c:	0b00000a 	bleq	117c <set_copro_default+0x84>
    1150:	0e03000d 	cdpeq	0, 0, cr0, cr3, cr13, {0}
    1154:	053b0b3a 	ldreq	r0, [fp, #-2874]!	; 0xb3a
    1158:	0b0b1349 	bleq	2c5e84 <__bss_end+0x2c2ffc>
    115c:	0b0c0b0d 	bleq	303d98 <__bss_end+0x300f10>
    1160:	00000a38 	andeq	r0, r0, r8, lsr sl
    1164:	03000d0c 	movweq	r0, #3340	; 0xd0c
    1168:	3b0b3a08 	blcc	2cf990 <__bss_end+0x2ccb08>
    116c:	0b134905 	bleq	4d3588 <__bss_end+0x4d0700>
    1170:	0c0b0d0b 	stceq	13, cr0, [fp], {11}
    1174:	000a380b 	andeq	r3, sl, fp, lsl #16
    1178:	00160d00 	andseq	r0, r6, r0, lsl #26
    117c:	0b3a0e03 	bleq	e84990 <__bss_end+0xe81b08>
    1180:	1349053b 	movtne	r0, #38203	; 0x953b
    1184:	130e0000 	movwne	r0, #57344	; 0xe000
    1188:	0b0e0301 	bleq	381d94 <__bss_end+0x37ef0c>
    118c:	3b0b3a0b 	blcc	2cf9c0 <__bss_end+0x2ccb38>
    1190:	00130105 	andseq	r0, r3, r5, lsl #2
    1194:	01130f00 	tsteq	r3, r0, lsl #30
    1198:	050b0e03 	streq	r0, [fp, #-3587]	; 0xe03
    119c:	053b0b3a 	ldreq	r0, [fp, #-2874]!	; 0xb3a
    11a0:	00001301 	andeq	r1, r0, r1, lsl #6
    11a4:	03000d10 	movweq	r0, #3344	; 0xd10
    11a8:	3b0b3a0e 	blcc	2cf9e8 <__bss_end+0x2ccb60>
    11ac:	38134905 	ldmdacc	r3, {r0, r2, r8, fp, lr}
    11b0:	1100000a 	tstne	r0, sl
    11b4:	0803000d 	stmdaeq	r3, {r0, r2, r3}
    11b8:	053b0b3a 	ldreq	r0, [fp, #-2874]!	; 0xb3a
    11bc:	0a381349 	beq	e05ee8 <__bss_end+0xe03060>
    11c0:	0d120000 	ldceq	0, cr0, [r2, #-0]
    11c4:	3a0e0300 	bcc	381dcc <__bss_end+0x37ef44>
    11c8:	490b3b0b 	stmdbmi	fp, {r0, r1, r3, r8, r9, fp, ip, sp}
    11cc:	000a3813 	andeq	r3, sl, r3, lsl r8
    11d0:	000f1300 	andeq	r1, pc, r0, lsl #6
    11d4:	13490b0b 	movtne	r0, #39691	; 0x9b0b
    11d8:	0d140000 	ldceq	0, cr0, [r4, #-0]
    11dc:	3a080300 	bcc	201de4 <__bss_end+0x1fef5c>
    11e0:	490b3b0b 	stmdbmi	fp, {r0, r1, r3, r8, r9, fp, ip, sp}
    11e4:	000a3813 	andeq	r3, sl, r3, lsl r8
    11e8:	012e1500 	teqeq	lr, r0, lsl #10
    11ec:	0e030c3f 	mcreq	12, 0, r0, cr3, cr15, {1}
    11f0:	0b3b0b3a 	bleq	ec3ee0 <__bss_end+0xec1058>
    11f4:	13490c27 	movtne	r0, #39975	; 0x9c27
    11f8:	01120111 	tsteq	r2, r1, lsl r1
    11fc:	13010a40 	movwne	r0, #6720	; 0x1a40
    1200:	05160000 	ldreq	r0, [r6, #-0]
    1204:	3a0e0300 	bcc	381e0c <__bss_end+0x37ef84>
    1208:	490b3b0b 	stmdbmi	fp, {r0, r1, r3, r8, r9, fp, ip, sp}
    120c:	00060213 	andeq	r0, r6, r3, lsl r2
    1210:	012e1700 	teqeq	lr, r0, lsl #14
    1214:	0e030c3f 	mcreq	12, 0, r0, cr3, cr15, {1}
    1218:	0b3b0b3a 	bleq	ec3f08 <__bss_end+0xec1080>
    121c:	13490c27 	movtne	r0, #39975	; 0x9c27
    1220:	01120111 	tsteq	r2, r1, lsl r1
    1224:	13010640 	movwne	r0, #5696	; 0x1640
    1228:	2e180000 	cdpcs	0, 1, cr0, cr8, cr0, {0}
    122c:	030c3f01 	movweq	r3, #52993	; 0xcf01
    1230:	3b0b3a0e 	blcc	2cfa70 <__bss_end+0x2ccbe8>
    1234:	490c2705 	stmdbmi	ip, {r0, r2, r8, r9, sl, sp}
    1238:	12011113 	andne	r1, r1, #-1073741820	; 0xc0000004
    123c:	010a4001 	tsteq	sl, r1
    1240:	19000013 	stmdbne	r0, {r0, r1, r4}
    1244:	0e030005 	cdpeq	0, 0, cr0, cr3, cr5, {0}
    1248:	053b0b3a 	ldreq	r0, [fp, #-2874]!	; 0xb3a
    124c:	06021349 	streq	r1, [r2], -r9, asr #6
    1250:	341a0000 	ldrcc	r0, [sl], #-0
    1254:	3a0e0300 	bcc	381e5c <__bss_end+0x37efd4>
    1258:	490b3b0b 	stmdbmi	fp, {r0, r1, r3, r8, r9, fp, ip, sp}
    125c:	000a0213 	andeq	r0, sl, r3, lsl r2
	...

Disassembly of section .debug_line:

00000000 <.debug_line>:
       0:	00000039 	andeq	r0, r0, r9, lsr r0
       4:	00330002 	eorseq	r0, r3, r2
       8:	01020000 	mrseq	r0, (UNDEF: 2)
       c:	000d0efb 	strdeq	r0, [sp], -fp
      10:	01010101 	tsteq	r1, r1, lsl #2
      14:	01000000 	mrseq	r0, (UNDEF: 0)
      18:	2e010000 	cdpcs	0, 0, cr0, cr1, cr0, {0}
      1c:	7075732f 	rsbsvc	r7, r5, pc, lsr #6
      20:	722f7265 	eorvc	r7, pc, #1342177286	; 0x50000006
      24:	6d757365 	ldclvs	3, cr7, [r5, #-404]!	; 0xfffffe6c
      28:	72000065 	andvc	r0, r0, #101	; 0x65
      2c:	6d757365 	ldclvs	3, cr7, [r5, #-404]!	; 0xfffffe6c
      30:	65685f65 	strbvs	r5, [r8, #-3941]!	; 0xf65
      34:	632e6461 	teqvs	lr, #1627389952	; 0x61000000
      38:	00000100 	andeq	r0, r0, r0, lsl #2
      3c:	00005e00 	andeq	r5, r0, r0, lsl #28
      40:	2f000200 	svccs	0x00000200
      44:	02000000 	andeq	r0, r0, #0
      48:	0d0efb01 	vstreq	d15, [lr, #-4]
      4c:	01010100 	mrseq	r0, (UNDEF: 17)
      50:	00000001 	andeq	r0, r0, r1
      54:	01000001 	tsteq	r0, r1
      58:	75732f2e 	ldrbvc	r2, [r3, #-3886]!	; 0xf2e
      5c:	2f726570 	svccs	0x00726570
      60:	75736572 	ldrbvc	r6, [r3, #-1394]!	; 0x572
      64:	0000656d 	andeq	r6, r0, sp, ror #10
      68:	75736572 	ldrbvc	r6, [r3, #-1394]!	; 0x572
      6c:	2e31656d 	cdpcs	5, 3, cr6, cr1, cr13, {3}
      70:	00010053 	andeq	r0, r1, r3, asr r0
      74:	05000000 	streq	r0, [r0, #-0]
      78:	00003002 	andeq	r3, r0, r2
      7c:	00c10300 	sbceq	r0, r1, r0, lsl #6
      80:	2f2f2f01 	svccs	0x002f2f01
      84:	2f332f2f 	svccs	0x00332f2f
      88:	302f2f2f 	eorcc	r2, pc, pc, lsr #30
      8c:	2f2f302f 	svccs	0x002f302f
      90:	2f2f312f 	svccs	0x002f312f
      94:	03302f32 	teqeq	r0, #200	; 0xc8
      98:	02022e71 	andeq	r2, r2, #1808	; 0x710
      9c:	4e010100 	adfmis	f0, f1, f0
      a0:	02000000 	andeq	r0, r0, #0
      a4:	00002700 	andeq	r2, r0, r0, lsl #14
      a8:	fb010200 	blx	408b2 <__bss_end+0x3da2a>
      ac:	01000d0e 	tsteq	r0, lr, lsl #26
      b0:	00010101 	andeq	r0, r1, r1, lsl #2
      b4:	00010000 	andeq	r0, r1, r0
      b8:	2f2e0100 	svccs	0x002e0100
      bc:	65707573 	ldrbvs	r7, [r0, #-1395]!	; 0x573
      c0:	63000072 	movwvs	r0, #114	; 0x72
      c4:	6f6d6d6f 	svcvs	0x006d6d6f
      c8:	00632e6e 	rsbeq	r2, r3, lr, ror #28
      cc:	00000001 	andeq	r0, r0, r1
      d0:	90020500 	andls	r0, r2, r0, lsl #10
      d4:	03000000 	movweq	r0, #0
      d8:	09030123 	stmdbeq	r3, {r0, r1, r5, r8}
      dc:	4a760301 	bmi	1d80ce8 <__bss_end+0x1d7de60>
      e0:	02040200 	andeq	r0, r4, #0
      e4:	004a0b03 	subeq	r0, sl, r3, lsl #22
      e8:	49020402 	stmdbmi	r2, {r1, sl}
      ec:	01000602 	tsteq	r0, r2, lsl #12
      f0:	00001901 	andeq	r1, r0, r1, lsl #18
      f4:	13000200 	movwne	r0, #512	; 0x200
      f8:	02000000 	andeq	r0, r0, #0
      fc:	0d0efb01 	vstreq	d15, [lr, #-4]
     100:	01010100 	mrseq	r0, (UNDEF: 17)
     104:	00000001 	andeq	r0, r0, r1
     108:	01000001 	tsteq	r0, r1
     10c:	004a0000 	subeq	r0, sl, r0
     110:	00020000 	andeq	r0, r2, r0
     114:	0000002c 	andeq	r0, r0, ip, lsr #32
     118:	0efb0102 	cdpeq	1, 15, cr0, cr11, cr2, {0}
     11c:	0101000d 	tsteq	r1, sp
     120:	00000101 	andeq	r0, r0, r1, lsl #2
     124:	00000100 	andeq	r0, r0, r0, lsl #2
     128:	732f2e01 	teqvc	pc, #16
     12c:	72657075 	rsbvc	r7, r5, #117	; 0x75
     130:	75730000 	ldrbvc	r0, [r3, #-0]!
     134:	5f726570 	svcpl	0x00726570
     138:	616c6564 	cmnvs	ip, r4, ror #10
     13c:	00532e79 	subseq	r2, r3, r9, ror lr
     140:	00000001 	andeq	r0, r0, r1
     144:	b4020500 	strlt	r0, [r2], #-1280	; 0x500
     148:	03000000 	movweq	r0, #0
     14c:	2f2f010d 	svccs	0x002f010d
     150:	2f2f2f30 	svccs	0x002f2f30
     154:	022f302f 	eoreq	r3, pc, #47	; 0x2f
     158:	01010002 	tsteq	r1, r2
     15c:	00000019 	andeq	r0, r0, r9, lsl r0
     160:	00130002 	andseq	r0, r3, r2
     164:	01020000 	mrseq	r0, (UNDEF: 2)
     168:	000d0efb 	strdeq	r0, [sp], -fp
     16c:	01010101 	tsteq	r1, r1, lsl #2
     170:	01000000 	mrseq	r0, (UNDEF: 0)
     174:	00010000 	andeq	r0, r1, r0
     178:	00001900 	andeq	r1, r0, r0, lsl #18
     17c:	13000200 	movwne	r0, #512	; 0x200
     180:	02000000 	andeq	r0, r0, #0
     184:	0d0efb01 	vstreq	d15, [lr, #-4]
     188:	01010100 	mrseq	r0, (UNDEF: 17)
     18c:	00000001 	andeq	r0, r0, r1
     190:	01000001 	tsteq	r0, r1
     194:	009b0000 	addseq	r0, fp, r0
     198:	00020000 	andeq	r0, r2, r0
     19c:	00000047 	andeq	r0, r0, r7, asr #32
     1a0:	0efb0102 	cdpeq	1, 15, cr0, cr11, cr2, {0}
     1a4:	0101000d 	tsteq	r1, sp
     1a8:	00000101 	andeq	r0, r0, r1, lsl #2
     1ac:	00000100 	andeq	r0, r0, r0, lsl #2
     1b0:	732f2e01 	teqvc	pc, #16
     1b4:	72657075 	rsbvc	r7, r5, #117	; 0x75
     1b8:	732f2e00 	teqvc	pc, #0
     1bc:	72657075 	rsbvc	r7, r5, #117	; 0x75
     1c0:	2f2e2e2f 	svccs	0x002e2e2f
     1c4:	00002e2e 	andeq	r2, r0, lr, lsr #28
     1c8:	65707573 	ldrbvs	r7, [r0, #-1395]!	; 0x573
     1cc:	70635f72 	rsbvc	r5, r3, r2, ror pc
     1d0:	632e7375 	teqvs	lr, #-738197503	; 0xd4000001
     1d4:	00000100 	andeq	r0, r0, r0, lsl #2
     1d8:	745f6d70 	ldrbvc	r6, [pc], #-3440	; 1e0 <resume1_c_part+0x14>
     1dc:	73657079 	cmnvc	r5, #121	; 0x79
     1e0:	0200682e 	andeq	r6, r0, #3014656	; 0x2e0000
     1e4:	00000000 	andeq	r0, r0, r0
     1e8:	00dc0205 	sbcseq	r0, ip, r5, lsl #4
     1ec:	20030000 	andcs	r0, r3, r0
     1f0:	322a1601 	eorcc	r1, sl, #1048576	; 0x100000
     1f4:	2e7a0334 	mrccs	3, 3, r0, cr10, cr4, {1}
     1f8:	4d676767 	stclmi	7, cr6, [r7, #-412]!	; 0xfffffe64
     1fc:	2e0c034d 	cdpcs	3, 0, cr0, cr12, cr13, {2}
     200:	354a7903 	strbcc	r7, [sl, #-2307]	; 0x903
     204:	032e7903 	teqeq	lr, #49152	; 0xc000
     208:	71034a0f 	tstvc	r3, pc, lsl #20
     20c:	2e0a032e 	cdpcs	3, 0, cr0, cr10, cr14, {1}
     210:	7a03362b 	bvc	cdac4 <__bss_end+0xcac3c>
     214:	3329342e 	teqcc	r9, #771751936	; 0x2e000000
     218:	322a3361 	eorcc	r3, sl, #-2080374783	; 0x84000001
     21c:	01040200 	mrseq	r0, R12_usr
     220:	0200694b 	andeq	r6, r0, #1228800	; 0x12c000
     224:	684b0104 	stmdavs	fp, {r2, r8}^
     228:	4b2b314e 	blmi	acc768 <__bss_end+0xac98e0>
     22c:	4c312f2f 	ldcmi	15, cr2, [r1], #-188	; 0xffffff44
     230:	01000202 	tsteq	r0, r2, lsl #4
     234:	0001cf01 	andeq	ip, r1, r1, lsl #30
     238:	fe000200 	cdp2	2, 0, cr0, cr0, cr0, {0}
     23c:	02000000 	andeq	r0, r0, #0
     240:	0d0efb01 	vstreq	d15, [lr, #-4]
     244:	01010100 	mrseq	r0, (UNDEF: 17)
     248:	00000001 	andeq	r0, r0, r1
     24c:	01000001 	tsteq	r0, r1
     250:	75732f2e 	ldrbvc	r2, [r3, #-3886]!	; 0xf2e
     254:	2f726570 	svccs	0x00726570
     258:	75736572 	ldrbvc	r6, [r3, #-1394]!	; 0x572
     25c:	2e00656d 	cfsh32cs	mvfx6, mvfx0, #61
     260:	7075732f 	rsbsvc	r7, r5, pc, lsr #6
     264:	722f7265 	eorvc	r7, pc, #1342177286	; 0x50000006
     268:	6d757365 	ldclvs	3, cr7, [r5, #-404]!	; 0xfffffe6c
     26c:	2f2e2f65 	svccs	0x002e2f65
     270:	2e2f2e2e 	cdpcs	14, 2, cr2, cr15, cr14, {1}
     274:	2e2e2f2e 	cdpcs	15, 2, cr2, cr14, cr14, {1}
     278:	6f682f00 	svcvs	0x00682f00
     27c:	642f656d 	strtvs	r6, [pc], #-1389	; 284 <resume1_c_part+0xb8>
     280:	6b676e61 	blvs	19dbc0c <__bss_end+0x19d8d84>
     284:	796d2f75 	stmdbvc	sp!, {r0, r2, r4, r5, r6, r8, r9, sl, fp, sp}^
     288:	696f7264 	stmdbvs	pc!, {r2, r5, r6, r9, ip, sp, lr}^	; <UNPREDICTABLE>
     28c:	61622f64 	cmnvs	r2, r4, ror #30
     290:	616e616e 	cmnvs	lr, lr, ror #2
     294:	6d2f6950 	stcvs	9, cr6, [pc, #-320]!	; 15c <super_enable_aw_cpu+0x3c>
     298:	6f732f32 	svcvs	0x00732f32
     29c:	65637275 	strbvs	r7, [r3, #-629]!	; 0x275
     2a0:	646e612f 	strbtvs	r6, [lr], #-303	; 0x12f
     2a4:	64696f72 	strbtvs	r6, [r9], #-3954	; 0xf72
     2a8:	4950422f 	ldmdbmi	r0, {r0, r1, r2, r3, r5, r9, lr}^
     2ac:	2d324d2d 	ldccs	13, cr4, [r2, #-180]!	; 0xffffff4c
     2b0:	72646e41 	rsbvc	r6, r4, #1040	; 0x410
     2b4:	3464696f 	strbtcc	r6, [r4], #-2415	; 0x96f
     2b8:	6c2f342e 	cfstrsvs	mvf3, [pc], #-184	; 208 <resume1_c_part+0x3c>
     2bc:	65686369 	strbvs	r6, [r8, #-873]!	; 0x369
     2c0:	696c2f65 	stmdbvs	ip!, {r0, r2, r5, r6, r8, r9, sl, fp, sp}^
     2c4:	2d78756e 	cfldr64cs	mvdx7, [r8, #-440]!	; 0xfffffe48
     2c8:	2f332e33 	svccs	0x00332e33
     2cc:	68637261 	stmdavs	r3!, {r0, r5, r6, r9, ip, sp, lr}^
     2d0:	6d72612f 	ldfvse	f6, [r2, #-188]!	; 0xffffff44
     2d4:	63616d2f 	cmnvs	r1, #3008	; 0xbc0
     2d8:	75732d68 	ldrbvc	r2, [r3, #-3432]!	; 0xd68
     2dc:	2f69366e 	svccs	0x0069366e
     2e0:	6c636e69 	stclvs	14, cr6, [r3], #-420	; 0xfffffe5c
     2e4:	2f656475 	svccs	0x00656475
     2e8:	6863616d 	stmdavs	r3!, {r0, r2, r3, r5, r6, r8, sp, lr}^
     2ec:	65720000 	ldrbvs	r0, [r2, #-0]!
     2f0:	656d7573 	strbvs	r7, [sp, #-1395]!	; 0x573
     2f4:	5f635f31 	svcpl	0x00635f31
     2f8:	74726170 	ldrbtvc	r6, [r2], #-368	; 0x170
     2fc:	0100632e 	tsteq	r0, lr, lsr #6
     300:	6d700000 	ldclvs	0, cr0, [r0, #-0]
     304:	7079745f 	rsbsvc	r7, r9, pc, asr r4
     308:	682e7365 	stmdavs	lr!, {r0, r2, r5, r6, r8, r9, ip, sp, lr}
     30c:	00000200 	andeq	r0, r0, r0, lsl #4
     310:	5f6d656d 	svcpl	0x006d656d
     314:	2e757063 	cdpcs	0, 7, cr7, cr5, cr3, {3}
     318:	00020068 	andeq	r0, r2, r8, rrx
     31c:	6d636300 	stclvs	3, cr6, [r3, #-0]
     320:	00682e75 	rsbeq	r2, r8, r5, ror lr
     324:	6d000003 	stcvs	0, cr0, [r0, #-12]
     328:	635f6d65 	cmpvs	pc, #6464	; 0x1940
     32c:	682e6b6c 	stmdavs	lr!, {r2, r3, r5, r6, r8, r9, fp, sp, lr}
     330:	00000200 	andeq	r0, r0, r0, lsl #4
     334:	682e6d70 	stmdavs	lr!, {r4, r5, r6, r8, sl, fp, sp, lr}
     338:	00000200 	andeq	r0, r0, r0, lsl #4
     33c:	02050000 	andeq	r0, r5, #0
     340:	000001cc 	andeq	r0, r0, ip, asr #3
     344:	31012b03 	tstcc	r1, r3, lsl #22
     348:	032e0c03 	teqeq	lr, #768	; 0x300
     34c:	032f2e74 	teqeq	pc, #1856	; 0x740
     350:	6d4c2e09 	stclvs	14, cr2, [ip, #-36]	; 0xffffffdc
     354:	4c4b4b4b 	mcrrmi	11, 4, r4, fp, cr11
     358:	504b4d6b 	subpl	r4, fp, fp, ror #26
     35c:	4d6b364b 	stclmi	6, cr3, [fp, #-300]!	; 0xfffffed4
     360:	2e59032b 	cdpcs	3, 5, cr0, cr9, cr11, {1}
     364:	03662303 	cmneq	r6, #201326592	; 0xc000000
     368:	2b036668 	blcs	d9d10 <__bss_end+0xd6e88>
     36c:	09035808 	stmdbeq	r3, {r3, fp, ip, lr}
     370:	4868302e 	stmdami	r8!, {r1, r2, r3, r5, ip, sp}^
     374:	01040200 	mrseq	r0, R12_usr
     378:	06660630 			; <UNDEFINED> instruction: 0x06660630
     37c:	2e0a0335 	mcrcs	3, 0, r0, cr10, cr5, {1}
     380:	4d2e7603 	stcmi	6, cr7, [lr, #-12]!
     384:	322a324d 	eorcc	r3, sl, #-805306364	; 0xd0000004
     388:	314c6b85 	smlalbbcc	r6, ip, r5, fp
     38c:	302c4f47 	eorcc	r4, ip, r7, asr #30
     390:	034c4b4b 	movteq	r4, #52043	; 0xcb4b
     394:	2f686614 	svccs	0x00686614
     398:	4b31312f 	blmi	c4c85c <__bss_end+0xc499d4>
     39c:	4c2f4f4b 	stcmi	15, cr4, [pc], #-300	; 278 <resume1_c_part+0xac>
     3a0:	01040200 	mrseq	r0, R12_usr
     3a4:	04020067 	streq	r0, [r2], #-103	; 0x67
     3a8:	2d4c2d01 	stclcs	13, cr2, [ip, #-4]
     3ac:	36304d4d 	ldrtcc	r4, [r0], -sp, asr #26
     3b0:	032a322a 	teqeq	sl, #-1610612734	; 0xa0000002
     3b4:	6d032e17 	stcvs	14, cr2, [r3, #-92]	; 0xffffffa4
     3b8:	0402009e 	streq	r0, [r2], #-158	; 0x9e
     3bc:	069e0601 	ldreq	r0, [lr], r1, lsl #12
     3c0:	2c314dbb 	ldccs	13, cr4, [r1], #-748	; 0xfffffd14
     3c4:	4d302f2f 	ldcmi	15, cr2, [r0, #-188]!	; 0xffffff44
     3c8:	2f2f2b31 	svccs	0x002f2b31
     3cc:	2e31032f 	cdpcs	3, 3, cr0, cr1, cr15, {1}
     3d0:	2c312d2f 	ldccs	13, cr2, [r1], #-188	; 0xffffff44
     3d4:	2e7f8c03 	cdpcs	12, 7, cr8, cr15, cr3, {0}
     3d8:	2fa0314b 	svccs	0x00a0314b
     3dc:	4a00d103 	bmi	347f0 <__bss_end+0x31968>
     3e0:	2e7faf03 	cdpcs	15, 7, cr10, cr15, cr3, {0}
     3e4:	4a00cf03 	bmi	33ff8 <__bss_end+0x31170>
     3e8:	4f6b4b2f 	svcmi	0x006b4b2f
     3ec:	00303031 	eorseq	r3, r0, r1, lsr r0
     3f0:	4d010402 	cfstrsmi	mvf0, [r1, #-8]
     3f4:	4a7f9003 	bmi	1fe4408 <__bss_end+0x1fe1580>
     3f8:	9f4a6f03 	svcls	0x004a6f03
     3fc:	6600db03 	strvs	sp, [r0], -r3, lsl #22
     400:	0283834b 	addeq	r8, r3, #738197505	; 0x2c000001
     404:	0101001a 	tsteq	r1, sl, lsl r0
     408:	00000088 	andeq	r0, r0, r8, lsl #1
     40c:	00340002 	eorseq	r0, r4, r2
     410:	01020000 	mrseq	r0, (UNDEF: 2)
     414:	000d0efb 	strdeq	r0, [sp], -fp
     418:	01010101 	tsteq	r1, r1, lsl #2
     41c:	01000000 	mrseq	r0, (UNDEF: 0)
     420:	2e010000 	cdpcs	0, 0, cr0, cr1, cr0, {0}
     424:	002e2e2f 	eoreq	r2, lr, pc, lsr #28
     428:	5f6d7000 	svcpl	0x006d7000
     42c:	75626564 	strbvc	r6, [r2, #-1380]!	; 0x564
     430:	00632e67 	rsbeq	r2, r3, r7, ror #28
     434:	70000001 	andvc	r0, r0, r1
     438:	79745f6d 	ldmdbvc	r4!, {r0, r2, r3, r5, r6, r8, r9, sl, fp, ip, lr}^
     43c:	2e736570 	mrccs	5, 3, r6, cr3, cr0, {3}
     440:	00010068 	andeq	r0, r1, r8, rrx
     444:	05000000 	streq	r0, [r0, #-0]
     448:	00056802 	andeq	r6, r5, r2, lsl #16
     44c:	010c0300 	mrseq	r0, LR_mon
     450:	04020030 	streq	r0, [r2], #-48	; 0x30
     454:	4d6a4b01 	fstmdbxmi	sl!, {d20-d19}	;@ Deprecated
     458:	04020030 	streq	r0, [r2], #-48	; 0x30
     45c:	516a4b01 	cmnpl	sl, r1, lsl #22
     460:	3219361a 	andscc	r3, r9, #27262976	; 0x1a00000
     464:	682f2d2f 	stmdavs	pc!, {r0, r1, r2, r3, r5, r8, sl, fp, sp}	; <UNPREDICTABLE>
     468:	3167134d 	cmncc	r7, sp, asr #6
     46c:	4c2f2d2f 	stcmi	13, cr2, [pc], #-188	; 3b8 <set_pll+0x114>
     470:	2f2d2f4d 	svccs	0x002d2f4d
     474:	4a09034c 	bmi	2411ac <__bss_end+0x23e324>
     478:	1631a114 			; <UNDEFINED> instruction: 0x1631a114
     47c:	31312f67 	teqcc	r1, r7, ror #30
     480:	312f6815 	teqcc	pc, r5, lsl r8	; <UNPREDICTABLE>
     484:	4c4c3034 	mcrrmi	0, 3, r3, ip, cr4
     488:	312f302a 	teqcc	pc, sl, lsr #32
     48c:	0231312c 	eorseq	r3, r1, #11
     490:	01010002 	tsteq	r1, r2
     494:	000000ec 	andeq	r0, r0, ip, ror #1
     498:	004b0002 	subeq	r0, fp, r2
     49c:	01020000 	mrseq	r0, (UNDEF: 2)
     4a0:	000d0efb 	strdeq	r0, [sp], -fp
     4a4:	01010101 	tsteq	r1, r1, lsl #2
     4a8:	01000000 	mrseq	r0, (UNDEF: 0)
     4ac:	2e010000 	cdpcs	0, 0, cr0, cr1, cr0, {0}
     4b0:	002e2e2f 	eoreq	r2, lr, pc, lsr #28
     4b4:	2e2e2f2e 	cdpcs	15, 2, cr2, cr14, cr14, {1}
     4b8:	00002e2f 	andeq	r2, r0, pc, lsr #28
     4bc:	5f6d656d 	svcpl	0x006d656d
     4c0:	696d6974 	stmdbvs	sp!, {r2, r4, r5, r6, r8, fp, sp, lr}^
     4c4:	632e676e 	teqvs	lr, #28835840	; 0x1b80000
     4c8:	00000100 	andeq	r0, r0, r0, lsl #2
     4cc:	745f6d70 	ldrbvc	r6, [pc], #-3440	; 4d4 <set_pll+0x230>
     4d0:	73657079 	cmnvc	r5, #121	; 0x79
     4d4:	0100682e 	tsteq	r0, lr, lsr #16
     4d8:	6d700000 	ldclvs	0, cr0, [r0, #-0]
     4dc:	6265645f 	rsbvs	r6, r5, #1593835520	; 0x5f000000
     4e0:	682e6775 	stmdavs	lr!, {r0, r2, r4, r5, r6, r8, r9, sl, sp, lr}
     4e4:	00000200 	andeq	r0, r0, r0, lsl #4
     4e8:	02050000 	andeq	r0, r5, #0
     4ec:	00000694 	muleq	r0, r4, r6
     4f0:	14010e03 	strne	r0, [r1], #-3587	; 0xe03
     4f4:	2f660903 	svccs	0x00660903
     4f8:	4d323130 	ldfmis	f3, [r2, #-192]!	; 0xffffff40
     4fc:	85143131 	ldrhi	r3, [r4, #-305]	; 0x131
     500:	8515314c 	ldrhi	r3, [r5, #-332]	; 0x14c
     504:	30153184 	andscc	r3, r5, r4, lsl #3
     508:	4b4e1531 	blmi	13859d4 <__bss_end+0x1382b4c>
     50c:	78031a31 	stmdavc	r3, {r0, r4, r5, r9, fp, ip}
     510:	78033682 	stmdavc	r3, {r1, r7, r9, sl, ip, sp}
     514:	3048362e 	subcc	r3, r8, lr, lsr #12
     518:	68033048 	stmdavs	r3, {r3, r6, ip, sp}
     51c:	4a25034a 	bmi	94124c <__bss_end+0x93e3c4>
     520:	292f4e2a 	stmdbcs	pc!, {r1, r3, r5, r9, sl, fp, lr}	; <UNPREDICTABLE>
     524:	4c674b33 	stclmi	11, cr4, [r7], #-204	; 0xffffff34
     528:	484c3248 	stmdami	ip, {r3, r6, r9, ip, sp}^
     52c:	04020031 	streq	r0, [r2], #-49	; 0x31
     530:	06660601 	strbteq	r0, [r6], -r1, lsl #12
     534:	03660d03 	cmneq	r6, #192	; 0xc0
     538:	03344a75 	teqeq	r4, #479232	; 0x75000
     53c:	2f2f2e7a 	svccs	0x002f2e7a
     540:	4b2f2c2f 	blmi	bcb604 <__bss_end+0xbc877c>
     544:	d60b0331 			; <UNDEFINED> instruction: 0xd60b0331
     548:	0383352e 	orreq	r3, r3, #192937984	; 0xb800000
     54c:	034a7fb6 	movteq	r7, #44982	; 0xafb6
     550:	032e00d1 	teqeq	lr, #209	; 0xd1
     554:	4d352e79 	ldcmi	14, cr2, [r5, #-484]!	; 0xfffffe1c
     558:	667fac03 	ldrbtvs	sl, [pc], -r3, lsl #24
     55c:	2e00d403 	cdpcs	4, 0, cr13, cr0, cr3, {0}
     560:	139e2503 	orrsne	r2, lr, #12582912	; 0xc00000
     564:	21030f4d 	tstcs	r3, sp, asr #30
     568:	0903142e 	stmdbeq	r3, {r1, r2, r3, r5, sl, ip}
     56c:	31302f66 	teqcc	r0, r6, ror #30
     570:	31314d32 	teqcc	r1, r2, lsr sp
     574:	2f3031a4 	svccs	0x003031a4
     578:	31a44e31 			; <UNDEFINED> instruction: 0x31a44e31
     57c:	02312f30 	eorseq	r2, r1, #192	; 0xc0
     580:	01010004 	tsteq	r1, r4
     584:	00000072 	andeq	r0, r0, r2, ror r0
     588:	00450002 	subeq	r0, r5, r2
     58c:	01020000 	mrseq	r0, (UNDEF: 2)
     590:	000d0efb 	strdeq	r0, [sp], -fp
     594:	01010101 	tsteq	r1, r1, lsl #2
     598:	01000000 	mrseq	r0, (UNDEF: 0)
     59c:	2e010000 	cdpcs	0, 0, cr0, cr1, cr0, {0}
     5a0:	002e2e2f 	eoreq	r2, lr, pc, lsr #28
     5a4:	2e2e2f2e 	cdpcs	15, 2, cr2, cr14, cr14, {1}
     5a8:	00002e2f 	andeq	r2, r0, pc, lsr #28
     5ac:	5f6d656d 	svcpl	0x006d656d
     5b0:	5f756d6d 	svcpl	0x00756d6d
     5b4:	632e6370 	teqvs	lr, #-1073741823	; 0xc0000001
     5b8:	00000100 	andeq	r0, r0, r0, lsl #2
     5bc:	682e6d70 	stmdavs	lr!, {r4, r5, r6, r8, sl, fp, sp, lr}
     5c0:	00000200 	andeq	r0, r0, r0, lsl #4
     5c4:	745f6d70 	ldrbvc	r6, [pc], #-3440	; 5cc <save_mem_status+0x1c>
     5c8:	73657079 	cmnvc	r5, #121	; 0x79
     5cc:	0100682e 	tsteq	r0, lr, lsr #16
     5d0:	00000000 	andeq	r0, r0, r0
     5d4:	09000205 	stmdbeq	r0, {r0, r2, r9}
     5d8:	14190000 	ldrne	r0, [r9], #-0
     5dc:	4b4f4d4c 	blmi	13d3b14 <__bss_end+0x13d0c8c>
     5e0:	314d4d4b 	cmpcc	sp, fp, asr #26
     5e4:	4e4c4c16 	mcrmi	12, 2, r4, cr12, cr6, {0}
     5e8:	bb4b2f4b 	bllt	12cc31c <__bss_end+0x12c9494>
     5ec:	32131313 	andscc	r1, r3, #1275068416	; 0x4c000000
     5f0:	2f2f2f4c 	svccs	0x002f2f4c
     5f4:	00020231 	andeq	r0, r2, r1, lsr r2
     5f8:	01990101 	orrseq	r0, r9, r1, lsl #2
     5fc:	00020000 	andeq	r0, r2, r0
     600:	0000002c 	andeq	r0, r0, ip, lsr #32
     604:	0efb0102 	cdpeq	1, 15, cr0, cr11, cr2, {0}
     608:	0101000d 	tsteq	r1, sp
     60c:	00000101 	andeq	r0, r0, r1, lsl #2
     610:	00000100 	andeq	r0, r0, r0, lsl #2
     614:	2e2f2e01 	cdpcs	14, 2, cr2, cr15, cr1, {0}
     618:	6d00002e 	stcvs	0, cr0, [r0, #-184]	; 0xffffff48
     61c:	6d5f6d65 	ldclvs	13, cr6, [pc, #-404]	; 490 <set_pll+0x1ec>
     620:	705f756d 	subsvc	r7, pc, sp, ror #10
     624:	73615f63 	cmnvc	r1, #396	; 0x18c
     628:	00532e6d 	subseq	r2, r3, sp, ror #28
     62c:	00000001 	andeq	r0, r0, r1
     630:	a0020500 	andge	r0, r2, r0, lsl #10
     634:	03000009 	movweq	r0, #9
     638:	2f2f010e 	svccs	0x002f010e
     63c:	332f2f33 	teqcc	pc, #204	; 0xcc
     640:	032f332f 	teqeq	pc, #-1140850688	; 0xbc000000
     644:	2f2f6613 	svccs	0x002f6613
     648:	302f2f2f 	eorcc	r2, pc, pc, lsr #30
     64c:	2f2f2f2f 	svccs	0x002f2f2f
     650:	2f2f2f2f 	svccs	0x002f2f2f
     654:	2f2f2f2f 	svccs	0x002f2f2f
     658:	30302f2f 	eorscc	r2, r0, pc, lsr #30
     65c:	2f2f2f2f 	svccs	0x002f2f2f
     660:	2f302f2f 	svccs	0x00302f2f
     664:	2f30302f 	svccs	0x0030302f
     668:	2f33302f 	svccs	0x0033302f
     66c:	2f2f2f2f 	svccs	0x002f2f2f
     670:	2f2f2f33 	svccs	0x002f2f33
     674:	302f2f2f 	eorcc	r2, pc, pc, lsr #30
     678:	2f2f2f2f 	svccs	0x002f2f2f
     67c:	2f2f2f2f 	svccs	0x002f2f2f
     680:	2f2f2f2f 	svccs	0x002f2f2f
     684:	30302f2f 	eorscc	r2, r0, pc, lsr #30
     688:	2f2f2f2f 	svccs	0x002f2f2f
     68c:	2f302f2f 	svccs	0x00302f2f
     690:	2f30302f 	svccs	0x0030302f
     694:	342f2f2f 	strtcc	r2, [pc], #-3887	; 69c <init_perfcounters+0x8>
     698:	2f2f2f2f 	svccs	0x002f2f2f
     69c:	2f2f2f2f 	svccs	0x002f2f2f
     6a0:	2f2f2f33 	svccs	0x002f2f33
     6a4:	2f2f2f2f 	svccs	0x002f2f2f
     6a8:	2f2f2f33 	svccs	0x002f2f33
     6ac:	332f2f2f 	teqcc	pc, #188	; 0xbc
     6b0:	2f2f2f2f 	svccs	0x002f2f2f
     6b4:	2f342f2f 	svccs	0x00342f2f
     6b8:	2f2f2f2f 	svccs	0x002f2f2f
     6bc:	2f2f332f 	svccs	0x002f332f
     6c0:	2f2f2f2f 	svccs	0x002f2f2f
     6c4:	2f2f332f 	svccs	0x002f332f
     6c8:	2f2f2f2f 	svccs	0x002f2f2f
     6cc:	2f2e0a03 	svccs	0x002e0a03
     6d0:	2f2f2f2f 	svccs	0x002f2f2f
     6d4:	2f2f2f34 	svccs	0x002f2f34
     6d8:	332f2f2f 	teqcc	pc, #188	; 0xbc
     6dc:	2f2f2f2f 	svccs	0x002f2f2f
     6e0:	09032f2f 	stmdbeq	r3, {r0, r1, r2, r3, r5, r8, r9, sl, fp, sp}
     6e4:	30302f2e 	eorscc	r2, r0, lr, lsr #30
     6e8:	2f2f2f30 	svccs	0x002f2f30
     6ec:	2f30332f 	svccs	0x0030332f
     6f0:	2f2f2f2f 	svccs	0x002f2f2f
     6f4:	2f2f2f2f 	svccs	0x002f2f2f
     6f8:	2f2f2f2f 	svccs	0x002f2f2f
     6fc:	2f312f2f 	svccs	0x00312f2f
     700:	2f2f2f2f 	svccs	0x002f2f2f
     704:	2f2f2f2f 	svccs	0x002f2f2f
     708:	2f2f2f2f 	svccs	0x002f2f2f
     70c:	2f2f2f2f 	svccs	0x002f2f2f
     710:	2f2f2f2f 	svccs	0x002f2f2f
     714:	2f2f2f2f 	svccs	0x002f2f2f
     718:	2f2f2f2f 	svccs	0x002f2f2f
     71c:	2f2f2f2f 	svccs	0x002f2f2f
     720:	2f2f2f2f 	svccs	0x002f2f2f
     724:	2f302f2f 	svccs	0x00302f2f
     728:	2f2f2f2f 	svccs	0x002f2f2f
     72c:	2f2f2f2f 	svccs	0x002f2f2f
     730:	2f302f2f 	svccs	0x00302f2f
     734:	0a032f30 	beq	cc3fc <__bss_end+0xc9574>
     738:	2f2f2f2e 	svccs	0x002f2f2e
     73c:	2f2f3088 	svccs	0x002f3088
     740:	2f2f3430 	svccs	0x002f3430
     744:	2f30f82f 	svccs	0x0030f82f
     748:	0d03302f 	stceq	0, cr3, [r3, #-188]	; 0xffffff44
     74c:	302f2f2e 	eorcc	r2, pc, lr, lsr #30
     750:	2f820c03 	svccs	0x00820c03
     754:	2f2f2f2f 	svccs	0x002f2f2f
     758:	6d2f502f 	stcvs	0, cr5, [pc, #-188]!	; 6a4 <init_perfcounters+0x10>
     75c:	30302f2f 	eorscc	r2, r0, pc, lsr #30
     760:	2f302f2f 	svccs	0x00302f2f
     764:	7ca70330 	stcvc	3, cr0, [r7], #192	; 0xc0
     768:	3103352e 	tstcc	r3, lr, lsr #10
     76c:	e803312e 	stmda	r3, {r1, r2, r3, r5, r8, ip, sp}
     770:	30302e01 	eorscc	r2, r0, r1, lsl #28
     774:	30303030 	eorscc	r3, r0, r0, lsr r0
     778:	30303032 	eorscc	r3, r0, r2, lsr r0
     77c:	30303030 	eorscc	r3, r0, r0, lsr r0
     780:	30303030 	eorscc	r3, r0, r0, lsr r0
     784:	30303030 	eorscc	r3, r0, r0, lsr r0
     788:	30303030 	eorscc	r3, r0, r0, lsr r0
     78c:	30303031 	eorscc	r3, r0, r1, lsr r0
     790:	02023030 	andeq	r3, r2, #48	; 0x30
     794:	e7010100 	str	r0, [r1, -r0, lsl #2]
     798:	02000000 	andeq	r0, r0, #0
     79c:	00004700 	andeq	r4, r0, r0, lsl #14
     7a0:	fb010200 	blx	40faa <__bss_end+0x3e122>
     7a4:	01000d0e 	tsteq	r0, lr, lsl #26
     7a8:	00010101 	andeq	r0, r1, r1, lsl #2
     7ac:	00010000 	andeq	r0, r1, r0
     7b0:	2f2e0100 	svccs	0x002e0100
     7b4:	2e002e2e 	cdpcs	14, 0, cr2, cr0, cr14, {1}
     7b8:	2f2e2e2f 	svccs	0x002e2e2f
     7bc:	6d00002e 	stcvs	0, cr0, [r0, #-184]	; 0xffffff48
     7c0:	635f6d65 	cmpvs	pc, #6464	; 0x1940
     7c4:	632e7570 	teqvs	lr, #469762048	; 0x1c000000
     7c8:	00000100 	andeq	r0, r0, r0, lsl #2
     7cc:	5f6d656d 	svcpl	0x006d656d
     7d0:	2e757063 	cdpcs	0, 7, cr7, cr5, cr3, {3}
     7d4:	00020068 	andeq	r0, r2, r8, rrx
     7d8:	5f6d7000 	svcpl	0x006d7000
     7dc:	65707974 	ldrbvs	r7, [r0, #-2420]!	; 0x974
     7e0:	00682e73 	rsbeq	r2, r8, r3, ror lr
     7e4:	00000001 	andeq	r0, r0, r1
     7e8:	00020500 	andeq	r0, r2, r0, lsl #10
     7ec:	0300000f 	movweq	r0, #15
     7f0:	16010195 			; <UNDEFINED> instruction: 0x16010195
     7f4:	4b4a1003 	blmi	1284808 <__bss_end+0x1281980>
     7f8:	4e4b4b50 	vmovmi.8	d11[2], r4
     7fc:	4b4b4b4e 	blmi	12d353c <__bss_end+0x12d06b4>
     800:	4e4e4b4e 	vmlsmi.f64	d20, d14, d14
     804:	034b4b4b 	movteq	r4, #47947	; 0xbb4b
     808:	4b4b4a0b 	blmi	12d303c <__bss_end+0x12d01b4>
     80c:	4b4b4b4b 	blmi	12d3540 <__bss_end+0x12d06b8>
     810:	4b4a1403 	blmi	1285824 <__bss_end+0x128299c>
     814:	4b4a1603 	blmi	1286028 <__bss_end+0x12831a0>
     818:	4b4b4b52 	blmi	12d3568 <__bss_end+0x12d06e0>
     81c:	03143451 	tsteq	r4, #1358954496	; 0x51000000
     820:	4b4e4a0e 	blmi	1393060 <__bss_end+0x13901d8>
     824:	2f4b2f2f 	svccs	0x004b2f2f
     828:	322f4b2f 	eorcc	r4, pc, #48128	; 0xbc00
     82c:	4b4b4d4c 	blmi	12d3d64 <__bss_end+0x12d0edc>
     830:	4b4b4b4b 	blmi	12d3564 <__bss_end+0x12d06dc>
     834:	16034b52 			; <UNDEFINED> instruction: 0x16034b52
     838:	4b504b4a 	blmi	1413568 <__bss_end+0x14106e0>
     83c:	2f514b4b 	svccs	0x00514b4b
     840:	6814332f 	ldmdavs	r4, {r0, r1, r2, r3, r5, r8, r9, ip, sp}
     844:	1534312f 	ldrne	r3, [r4, #-303]!	; 0x12f
     848:	674a0b03 	strbvs	r0, [sl, -r3, lsl #22]
     84c:	2f2f4b4b 	svccs	0x002f4b4b
     850:	302f3032 	eorcc	r3, pc, r2, lsr r0	; <UNPREDICTABLE>
     854:	2f2f2f30 	svccs	0x002f2f30
     858:	31302f30 	teqcc	r0, r0, lsr pc
     85c:	0d032f2f 	stceq	15, cr2, [r3, #-188]	; 0xffffff44
     860:	1203672e 	andne	r6, r3, #12058624	; 0xb80000
     864:	2f344b66 	svccs	0x00344b66
     868:	2f302f2f 	svccs	0x00302f2f
     86c:	4b133231 	blmi	4cd138 <__bss_end+0x4ca2b0>
     870:	4b133311 	blmi	4cd4bc <__bss_end+0x4ca634>
     874:	84133211 	ldrhi	r3, [r3], #-529	; 0x211
     878:	2f301531 	svccs	0x00301531
     87c:	00020230 	andeq	r0, r2, r0, lsr r2
     880:	02050101 	andeq	r0, r5, #1073741824	; 0x40000000
     884:	00020000 	andeq	r0, r2, r0
     888:	000000b4 	strheq	r0, [r0], -r4
     88c:	0efb0102 	cdpeq	1, 15, cr0, cr11, cr2, {0}
     890:	0101000d 	tsteq	r1, sp
     894:	00000101 	andeq	r0, r0, r1, lsl #2
     898:	00000100 	andeq	r0, r0, r0, lsl #2
     89c:	2e2f2e01 	cdpcs	14, 2, cr2, cr15, cr1, {0}
     8a0:	682f002e 	stmdavs	pc!, {r1, r2, r3, r5}	; <UNPREDICTABLE>
     8a4:	2f656d6f 	svccs	0x00656d6f
     8a8:	676e6164 	strbvs	r6, [lr, -r4, ror #2]!
     8ac:	6d2f756b 	cfstr32vs	mvfx7, [pc, #-428]!	; 708 <reset_counter>
     8b0:	6f726479 	svcvs	0x00726479
     8b4:	622f6469 	eorvs	r6, pc, #1761607680	; 0x69000000
     8b8:	6e616e61 	cdpvs	14, 6, cr6, cr1, cr1, {3}
     8bc:	2f695061 	svccs	0x00695061
     8c0:	732f326d 	teqvc	pc, #-805306362	; 0xd0000006
     8c4:	6372756f 	cmnvs	r2, #465567744	; 0x1bc00000
     8c8:	6e612f65 	cdpvs	15, 6, cr2, cr1, cr5, {3}
     8cc:	696f7264 	stmdbvs	pc!, {r2, r5, r6, r9, ip, sp, lr}^	; <UNPREDICTABLE>
     8d0:	50422f64 	subpl	r2, r2, r4, ror #30
     8d4:	324d2d49 	subcc	r2, sp, #4672	; 0x1240
     8d8:	646e412d 	strbtvs	r4, [lr], #-301	; 0x12d
     8dc:	64696f72 	strbtvs	r6, [r9], #-3954	; 0xf72
     8e0:	2f342e34 	svccs	0x00342e34
     8e4:	6863696c 	stmdavs	r3!, {r2, r3, r5, r6, r8, fp, sp, lr}^
     8e8:	6c2f6565 	cfstr32vs	mvfx6, [pc], #-404	; 75c <change_runtime_env+0x40>
     8ec:	78756e69 	ldmdavc	r5!, {r0, r3, r5, r6, r9, sl, fp, sp, lr}^
     8f0:	332e332d 	teqcc	lr, #-1275068416	; 0xb4000000
     8f4:	6372612f 	cmnvs	r2, #-1073741813	; 0xc000000b
     8f8:	72612f68 	rsbvc	r2, r1, #416	; 0x1a0
     8fc:	616d2f6d 	cmnvs	sp, sp, ror #30
     900:	732d6863 	teqvc	sp, #6488064	; 0x630000
     904:	69366e75 	ldmdbvs	r6!, {r0, r2, r4, r5, r6, r9, sl, fp, sp, lr}
     908:	636e692f 	cmnvs	lr, #770048	; 0xbc000
     90c:	6564756c 	strbvs	r7, [r4, #-1388]!	; 0x56c
     910:	63616d2f 	cmnvs	r1, #3008	; 0xbc0
     914:	6d000068 	stcvs	0, cr0, [r0, #-416]	; 0xfffffe60
     918:	735f6d65 	cmpvc	pc, #6464	; 0x1940
     91c:	61697265 	cmnvs	r9, r5, ror #4
     920:	00632e6c 	rsbeq	r2, r3, ip, ror #28
     924:	70000001 	andvc	r0, r0, r1
     928:	79745f6d 	ldmdbvc	r4!, {r0, r2, r3, r5, r6, r8, r9, sl, fp, ip, lr}^
     92c:	2e736570 	mrccs	5, 3, r6, cr3, cr0, {3}
     930:	00010068 	andeq	r0, r1, r8, rrx
     934:	6d636300 	stclvs	3, cr6, [r3, #-0]
     938:	00682e75 	rsbeq	r2, r8, r5, ror lr
     93c:	00000002 	andeq	r0, r0, r2
     940:	dc020500 	cfstr32le	mvfx0, [r2], {-0}
     944:	03000011 	movweq	r0, #17
     948:	362e0124 	strtcc	r0, [lr], -r4, lsr #2
     94c:	ba0f034e 	blt	3c168c <__bss_end+0x3be804>
     950:	2e7903dd 	mrccs	3, 3, r0, cr9, cr13, {6}
     954:	2e180335 	mrccs	3, 0, r0, cr8, cr5, {1}
     958:	67842b31 			; <UNDEFINED> instruction: 0x67842b31
     95c:	03364d2f 	teqeq	r6, #3008	; 0xbc0
     960:	6c4c2e78 	mcrrvs	14, 7, r2, ip, cr8
     964:	032e5b03 	teqeq	lr, #3072	; 0xc00
     968:	7503660b 	strvc	r6, [r3, #-1547]	; 0x60b
     96c:	4e4c4c2e 	cdpmi	12, 4, cr4, cr12, cr14, {1}
     970:	4d2f6768 	stcmi	7, cr6, [pc, #-416]!	; 7d8 <change_runtime_env+0xbc>
     974:	032e1603 	teqeq	lr, #3145728	; 0x300000
     978:	034c2e6a 	movteq	r2, #52842	; 0xce6a
     97c:	1c036614 	stcne	6, cr6, [r3], {20}
     980:	2e760366 	cdpcs	3, 7, cr0, cr6, cr6, {3}
     984:	032e1003 	teqeq	lr, #3
     988:	03a02e70 	moveq	r2, #1792	; 0x700
     98c:	6731820e 	ldrvs	r8, [r1, -lr, lsl #4]!
     990:	034b2f2d 	movteq	r2, #48941	; 0xbf2d
     994:	74034a0d 	strvc	r4, [r3], #-2573	; 0xa0d
     998:	2f2c314a 	svccs	0x002c314a
     99c:	302f2f2c 	eorcc	r2, pc, ip, lsr #30
     9a0:	4c312f2d 	ldcmi	15, cr2, [r1], #-180	; 0xffffff4c
     9a4:	1403304d 	strne	r3, [r3], #-77	; 0x4d
     9a8:	312b152e 	teqcc	fp, lr, lsr #10
     9ac:	02002d4b 	andeq	r2, r0, #4800	; 0x12c0
     9b0:	03320104 	teqeq	r2, #1
     9b4:	0f036669 	svceq	0x00036669
     9b8:	2e71032e 	cdpcs	3, 7, cr0, cr1, cr14, {1}
     9bc:	2e18032f 	cdpcs	3, 1, cr0, cr8, cr15, {1}
     9c0:	2e610350 	mcrcs	3, 3, r0, cr1, cr0, {2}
     9c4:	2e16039f 	mrccs	3, 0, r0, cr6, cr15, {4}
     9c8:	2f660b03 	svccs	0x00660b03
     9cc:	9f4a5d03 	svcls	0x004a5d03
     9d0:	16662503 	strbtne	r2, [r6], -r3, lsl #10
     9d4:	2d4b322a 	sfmcs	f3, 2, [fp, #-168]	; 0xffffff58
     9d8:	002e0b03 	eoreq	r0, lr, r3, lsl #22
     9dc:	03010402 	movweq	r0, #5122	; 0x1402
     9e0:	5b034a79 	blpl	d33cc <__bss_end+0xd0544>
     9e4:	2e250366 	cdpcs	3, 2, cr0, cr5, cr6, {3}
     9e8:	032e5b03 	teqeq	lr, #3072	; 0xc00
     9ec:	5b032e25 	blpl	cc288 <__bss_end+0xc9400>
     9f0:	24039f4a 	strcs	r9, [r3], #-3914	; 0xf4a
     9f4:	4a5e034a 	bmi	1781724 <__bss_end+0x177e89c>
     9f8:	4c4a2403 	cfstrdmi	mvd2, [sl], {3}
     9fc:	9e0a032a 	cdpls	3, 0, cr0, cr10, cr10, {1}
     a00:	2e7fa003 	cdpcs	0, 7, cr10, cr15, cr3, {0}
     a04:	4a00e703 	bmi	3a618 <__bss_end+0x37790>
     a08:	2e7f9903 	cdpcs	9, 7, cr9, cr15, cr3, {0}
     a0c:	00e50384 	rsceq	r0, r5, r4, lsl #7
     a10:	2d673182 	stfcse	f3, [r7, #-520]!	; 0xfffffdf8
     a14:	0e034b2f 	vmlaeq.f64	d4, d3, d31
     a18:	4a73034a 	bmi	1cc1748 <__bss_end+0x1cbe8c0>
     a1c:	2c2f2c31 	stccs	12, cr2, [pc], #-196	; 960 <restore_mmu_state+0x24>
     a20:	2d302f2f 	ldccs	15, cr2, [r0, #-188]!	; 0xffffff44
     a24:	4d4d312f 	stfmie	f3, [sp, #-188]	; 0xffffff44
     a28:	bc143130 	ldflts	f3, [r4], {48}	; 0x30
     a2c:	034c4d4c 	movteq	r4, #52556	; 0xcd4c
     a30:	2b152e22 	blcs	54c2c0 <__bss_end+0x549438>
     a34:	002d4b31 	eoreq	r4, sp, r1, lsr fp
     a38:	32010402 	andcc	r0, r1, #33554432	; 0x2000000
     a3c:	03665d03 	cmneq	r6, #192	; 0xc0
     a40:	65032e1b 	strvs	r2, [r3, #-3611]	; 0xe1b
     a44:	24032f2e 	strcs	r2, [r3], #-3886	; 0xf2e
     a48:	5503502e 	strpl	r5, [r3, #-46]	; 0x2e
     a4c:	22039f2e 	andcs	r9, r3, #184	; 0xb8
     a50:	660b032e 	strvs	r0, [fp], -lr, lsr #6
     a54:	4a51032f 	bmi	1441718 <__bss_end+0x143e890>
     a58:	6632039f 			; <UNDEFINED> instruction: 0x6632039f
     a5c:	4b322a16 	blmi	c8b2bc <__bss_end+0xc88434>
     a60:	2e0b032d 	cdpcs	3, 0, cr0, cr11, cr13, {1}
     a64:	01040200 	mrseq	r0, R12_usr
     a68:	034a7903 	movteq	r7, #43267	; 0xa903
     a6c:	3203664e 	andcc	r6, r3, #81788928	; 0x4e00000
     a70:	2e4e032e 	cdpcs	3, 4, cr0, cr14, cr14, {1}
     a74:	032e3203 	teqeq	lr, #805306368	; 0x30000000
     a78:	039f4a4e 	orrseq	r4, pc, #319488	; 0x4e000
     a7c:	51034a31 	tstpl	r3, r1, lsr sl
     a80:	4a31034a 	bmi	c417b0 <__bss_end+0xc3e928>
     a84:	0a022a4c 	beq	8b3bc <__bss_end+0x88534>
     a88:	9f010100 	svcls	0x00010100
     a8c:	02000003 	andeq	r0, r0, #3
     a90:	0000ec00 	andeq	lr, r0, r0, lsl #24
     a94:	fb010200 	blx	4129e <__bss_end+0x3e416>
     a98:	01000d0e 	tsteq	r0, lr, lsl #26
     a9c:	00010101 	andeq	r0, r1, r1, lsl #2
     aa0:	00010000 	andeq	r0, r1, r0
     aa4:	2f2e0100 	svccs	0x002e0100
     aa8:	2f002e2e 	svccs	0x00002e2e
     aac:	656d6f68 	strbvs	r6, [sp, #-3944]!	; 0xf68
     ab0:	6e61642f 	cdpvs	4, 6, cr6, cr1, cr15, {1}
     ab4:	2f756b67 	svccs	0x00756b67
     ab8:	7264796d 	rsbvc	r7, r4, #1785856	; 0x1b4000
     abc:	2f64696f 	svccs	0x0064696f
     ac0:	616e6162 	cmnvs	lr, r2, ror #2
     ac4:	6950616e 	ldmdbvs	r0, {r1, r2, r3, r5, r6, r8, sp, lr}^
     ac8:	2f326d2f 	svccs	0x00326d2f
     acc:	72756f73 	rsbsvc	r6, r5, #460	; 0x1cc
     ad0:	612f6563 	teqvs	pc, r3, ror #10
     ad4:	6f72646e 	svcvs	0x0072646e
     ad8:	422f6469 	eormi	r6, pc, #1761607680	; 0x69000000
     adc:	4d2d4950 	stcmi	9, cr4, [sp, #-320]!	; 0xfffffec0
     ae0:	6e412d32 	mcrvs	13, 2, r2, cr1, cr2, {1}
     ae4:	696f7264 	stmdbvs	pc!, {r2, r5, r6, r9, ip, sp, lr}^	; <UNPREDICTABLE>
     ae8:	342e3464 	strtcc	r3, [lr], #-1124	; 0x464
     aec:	63696c2f 	cmnvs	r9, #12032	; 0x2f00
     af0:	2f656568 	svccs	0x00656568
     af4:	6c697562 	cfstr64vs	mvdx7, [r9], #-392	; 0xfffffe78
     af8:	6f6f7264 	svcvs	0x006f7264
     afc:	756f2f74 	strbvc	r2, [pc, #-3956]!	; fffffb90 <__bss_end+0xffffcd08>
     b00:	74757074 	ldrbtvc	r7, [r5], #-116	; 0x74
     b04:	7478652f 	ldrbtvc	r6, [r8], #-1327	; 0x52f
     b08:	616e7265 	cmnvs	lr, r5, ror #4
     b0c:	6f742d6c 	svcvs	0x00742d6c
     b10:	68636c6f 	stmdavs	r3!, {r0, r1, r2, r3, r5, r6, sl, fp, sp, lr}^
     b14:	2f6e6961 	svccs	0x006e6961
     b18:	2f6e6962 	svccs	0x006e6962
     b1c:	6c2f2e2e 	stcvs	14, cr2, [pc], #-184	; a6c <invalidate_icache+0x8>
     b20:	672f6269 	strvs	r6, [pc, -r9, ror #4]!
     b24:	612f6363 	teqvs	pc, r3, ror #6
     b28:	6c2d6d72 	stcvs	13, cr6, [sp], #-456	; 0xfffffe38
     b2c:	78756e69 	ldmdavc	r5!, {r0, r3, r5, r6, r9, sl, fp, sp, lr}^
     b30:	756e672d 	strbvc	r6, [lr, #-1837]!	; 0x72d
     b34:	69626165 	stmdbvs	r2!, {r0, r2, r5, r6, r8, sp, lr}^
     b38:	362e342f 	strtcc	r3, [lr], -pc, lsr #8
     b3c:	692f332e 	stmdbvs	pc!, {r1, r2, r3, r5, r8, r9, ip, sp}	; <UNPREDICTABLE>
     b40:	756c636e 	strbvc	r6, [ip, #-878]!	; 0x36e
     b44:	00006564 	andeq	r6, r0, r4, ror #10
     b48:	5f6d656d 	svcpl	0x006d656d
     b4c:	6e697270 	mcrvs	2, 3, r7, cr9, cr0, {3}
     b50:	632e6b74 	teqvs	lr, #118784	; 0x1d000
     b54:	00000100 	andeq	r0, r0, r0, lsl #2
     b58:	745f6d70 	ldrbvc	r6, [pc], #-3440	; b60 <disable_dcache+0x4>
     b5c:	73657079 	cmnvc	r5, #121	; 0x79
     b60:	0100682e 	tsteq	r0, lr, lsr #16
     b64:	74730000 	ldrbtvc	r0, [r3], #-0
     b68:	67726164 	ldrbvs	r6, [r2, -r4, ror #2]!
     b6c:	0200682e 	andeq	r6, r0, #3014656	; 0x2e0000
     b70:	623c0000 	eorsvs	r0, ip, #0
     b74:	746c6975 	strbtvc	r6, [ip], #-2421	; 0x975
     b78:	3e6e692d 	cdpcc	9, 6, cr6, cr14, cr13, {1}
     b7c:	00000000 	andeq	r0, r0, r0
     b80:	02050000 	andeq	r0, r5, #0
     b84:	0000169c 	muleq	r0, ip, r6
     b88:	15012703 	strne	r2, [r1, #-1795]	; 0x703
     b8c:	02040200 	andeq	r0, r4, #0
     b90:	06668206 	strbteq	r8, [r6], -r6, lsl #4
     b94:	3211366c 	andscc	r3, r1, #113246208	; 0x6c00000
     b98:	01040200 	mrseq	r0, R12_usr
     b9c:	88062e06 	stmdahi	r6, {r1, r2, r9, sl, fp, sp}
     ba0:	34461531 	strbcc	r1, [r6], #-1329	; 0x531
     ba4:	0a032a68 	beq	cb54c <__bss_end+0xc86c4>
     ba8:	9a15324a 	bls	54d4d8 <__bss_end+0x54a650>
     bac:	00322a32 	eorseq	r2, r2, r2, lsr sl
     bb0:	46010402 	strmi	r0, [r1], -r2, lsl #8
     bb4:	01040200 	mrseq	r0, R12_usr
     bb8:	15328736 	ldrne	r8, [r2, #-1846]!	; 0x736
     bbc:	0200312b 	andeq	r3, r0, #-1073741814	; 0xc000000a
     bc0:	06300104 	ldrteq	r0, [r0], -r4, lsl #2
     bc4:	7a030682 	bvc	c25d4 <__bss_end+0xbf74c>
     bc8:	7a03342e 	bvc	cdc88 <__bss_end+0xcae00>
     bcc:	0200342e 	andeq	r3, r0, #771751936	; 0x2e000000
     bd0:	7a030104 	bvc	c0fe8 <__bss_end+0xbe160>
     bd4:	4a0a034a 	bmi	281904 <__bss_end+0x27ea7c>
     bd8:	01040200 	mrseq	r0, R12_usr
     bdc:	a0062e06 	andge	r2, r6, r6, lsl #28
     be0:	174d344c 	strbne	r3, [sp, -ip, asr #8]
     be4:	4f4e2f2f 	svcmi	0x004e2f2f
     be8:	2e78032f 	cdpcs	3, 7, cr0, cr8, cr15, {1}
     bec:	15820c03 	strne	r0, [r2, #3075]	; 0xc03
     bf0:	032e0903 	teqeq	lr, #49152	; 0xc000
     bf4:	2f2f2e77 	svccs	0x002f2e77
     bf8:	77034c2f 	strvc	r4, [r3, -pc, lsr #24]
     bfc:	4a09032e 	bmi	2418bc <__bss_end+0x23ea34>
     c00:	4c2f2f46 	stcmi	15, cr2, [pc], #-280	; af0 <loop3+0x18>
     c04:	4a090345 	bmi	241920 <__bss_end+0x23ea98>
     c08:	2d2f8745 	stccs	7, cr8, [pc, #-276]!	; afc <skip+0x8>
     c0c:	354a0d03 	strbcc	r0, [sl, #-3331]	; 0xd03
     c10:	8787292c 	strhi	r2, [r7, ip, lsr #18]
     c14:	2e7a032f 	cdpcs	3, 7, cr0, cr10, cr15, {1}
     c18:	0c032b33 	stceq	11, cr2, [r3], {51}	; 0x33
     c1c:	70032d2e 	andvc	r2, r3, lr, lsr #26
     c20:	2e14032e 	cdpcs	3, 1, cr0, cr4, cr14, {1}
     c24:	02040200 	andeq	r0, r4, #0
     c28:	04020085 	streq	r0, [r2], #-133	; 0x85
     c2c:	02008302 	andeq	r8, r0, #134217728	; 0x8000000
     c30:	002d0204 	eoreq	r0, sp, r4, lsl #4
     c34:	4b020402 	blmi	81c44 <__bss_end+0x7edbc>
     c38:	02040200 	andeq	r0, r4, #0
     c3c:	0402002d 	streq	r0, [r2], #-45	; 0x2d
     c40:	02002f02 	andeq	r2, r0, #8
     c44:	032a0204 	teqeq	sl, #1073741824	; 0x40000000
     c48:	77036609 	strvc	r6, [r3, -r9, lsl #12]
     c4c:	2e0c032e 	cdpcs	3, 0, cr0, cr12, cr14, {1}
     c50:	03665d03 	cmneq	r6, #192	; 0xc0
     c54:	02006625 	andeq	r6, r0, #38797312	; 0x2500000
     c58:	2e060204 	cdpcs	2, 0, cr0, cr6, cr4, {0}
     c5c:	02040200 	andeq	r0, r4, #0
     c60:	02003006 	andeq	r3, r0, #6
     c64:	032c0204 	teqeq	ip, #1073741824	; 0x40000000
     c68:	2a034a5b 	bcs	d35dc <__bss_end+0xd0754>
     c6c:	3485692e 	strcc	r6, [r5], #2350	; 0x92e
     c70:	2c882a2c 	vstmiacs	r8, {s4-s47}
     c74:	7a032fa3 	bvc	ccb08 <__bss_end+0xc9c80>
     c78:	522b332e 	eorpl	r3, fp, #-1207959552	; 0xb8000000
     c7c:	02040200 	andeq	r0, r4, #0
     c80:	04020031 	streq	r0, [r2], #-49	; 0x31
     c84:	02008302 	andeq	r8, r0, #134217728	; 0x8000000
     c88:	002d0204 	eoreq	r0, sp, r4, lsl #4
     c8c:	4b020402 	blmi	81c9c <__bss_end+0x7ee14>
     c90:	02040200 	andeq	r0, r4, #0
     c94:	0402002d 	streq	r0, [r2], #-45	; 0x2d
     c98:	02002f02 	andeq	r2, r0, #8
     c9c:	032a0204 	teqeq	sl, #1073741824	; 0x40000000
     ca0:	17036671 	smlsdxne	r3, r1, r6, r6
     ca4:	04020066 	streq	r0, [r2], #-102	; 0x66
     ca8:	002e0602 	eoreq	r0, lr, r2, lsl #12
     cac:	06020402 	streq	r0, [r2], -r2, lsl #8
     cb0:	04020030 	streq	r0, [r2], #-48	; 0x30
     cb4:	69332c02 	ldmdbvs	r3!, {r1, sl, fp, sp}
     cb8:	8200fe03 	andhi	pc, r0, #48	; 0x30
     cbc:	032b2d32 	teqeq	fp, #3200	; 0xc80
     cc0:	7803820b 	stmdavc	r3, {r0, r1, r3, r9, pc}
     cc4:	a3319f2e 	teqge	r1, #184	; 0xb8
     cc8:	827f8e03 	rsbshi	r8, pc, #48	; 0x30
     ccc:	03660c03 	cmneq	r6, #768	; 0x300
     cd0:	0c032e74 	stceq	14, cr2, [r3], {116}	; 0x74
     cd4:	30642f2e 	rsbcc	r2, r4, lr, lsr #30
     cd8:	2e00c103 	mvfcss	f4, f3
     cdc:	032e6803 	teqeq	lr, #196608	; 0x30000
     ce0:	cb032e57 	blgt	cc644 <__bss_end+0xc97bc>
     ce4:	b5036600 	strlt	r6, [r3, #-1536]	; 0x600
     ce8:	034c2e7f 	movteq	r2, #52863	; 0xce7f
     cec:	032e00c6 	teqeq	lr, #198	; 0xc6
     cf0:	312e7fba 			; <UNDEFINED> instruction: 0x312e7fba
     cf4:	03292f69 	teqeq	r9, #420	; 0x1a4
     cf8:	342a2e09 	strtcc	r2, [sl], #-3593	; 0xe09
     cfc:	0200c103 	andeq	ip, r0, #-1073741824	; 0xc0000000
     d00:	2c300134 	ldfcss	f0, [r0], #-208	; 0xffffff30
     d04:	54033130 	strpl	r3, [r3], #-304	; 0x130
     d08:	7de6039e 	stclvc	3, cr0, [r6, #632]!	; 0x278
     d0c:	029b03d6 	addseq	r0, fp, #1476395011	; 0x58000003
     d10:	7de50366 	stclvc	3, cr0, [r5, #408]!	; 0x198
     d14:	029c032e 	addseq	r0, ip, #-1207959552	; 0xb8000000
     d18:	7df50382 	ldclvc	3, cr0, [r5, #520]!	; 0x208
     d1c:	028d03d6 	addeq	r0, sp, #1476395011	; 0x58000003
     d20:	0b032f82 	bleq	ccb30 <__bss_end+0xc9ca8>
     d24:	7fb9032e 	svcvc	0x00b9032e
     d28:	00c7032e 	sbceq	r0, r7, lr, lsr #6
     d2c:	7fb9032e 	svcvc	0x00b9032e
     d30:	7eae0366 	cdpvc	3, 10, cr0, cr14, cr6, {3}
     d34:	826f032e 	rsbhi	r0, pc, #-1207959552	; 0xb8000000
     d38:	f202ac03 			; <UNDEFINED> instruction: 0xf202ac03
     d3c:	2e63032f 	cdpcs	3, 6, cr0, cr3, cr15, {1}
     d40:	d67df003 	ldrbtle	pc, [sp], -r3	; <UNPREDICTABLE>
     d44:	66029103 	strvs	r9, [r2], -r3, lsl #2
     d48:	2e7def03 	cdpcs	15, 7, cr14, cr13, cr3, {0}
     d4c:	82029203 	andhi	r9, r2, #805306368	; 0x30000000
     d50:	d67dff03 	ldrbtle	pc, [sp], -r3, lsl #30	; <UNPREDICTABLE>
     d54:	82028d03 	andhi	r8, r2, #192	; 0xc0
     d58:	0d039f50 	stceq	15, cr9, [r3, #-320]	; 0xfffffec0
     d5c:	52032f2e 	andpl	r2, r3, #184	; 0xb8
     d60:	7dfb0382 	ldclvc	3, cr0, [fp, #520]!	; 0x208
     d64:	028603d6 	addeq	r0, r6, #1476395011	; 0x58000003
     d68:	7dfa0366 	ldclvc	3, cr0, [sl, #408]!	; 0x198
     d6c:	0287032e 	addeq	r0, r7, #-1207959552	; 0xb8000000
     d70:	7e8a0382 	cdpvc	3, 8, cr0, cr10, cr2, {4}
     d74:	028d03d6 	addeq	r0, sp, #1476395011	; 0x58000003
     d78:	663b0382 	ldrtvs	r0, [fp], -r2, lsl #7
     d7c:	03660c03 	cmneq	r6, #768	; 0x300
     d80:	0c032e74 	stceq	14, cr2, [r3], {116}	; 0x74
     d84:	30642f2e 	rsbcc	r2, r4, lr, lsr #30
     d88:	2e00c103 	mvfcss	f4, f3
     d8c:	032e6803 	teqeq	lr, #196608	; 0x30000
     d90:	cb032e57 	blgt	cc6f4 <__bss_end+0xc986c>
     d94:	b5036600 	strlt	r6, [r3, #-1536]	; 0x600
     d98:	034c2e7f 	movteq	r2, #52863	; 0xce7f
     d9c:	032e00c6 	teqeq	lr, #198	; 0xc6
     da0:	312e7fba 			; <UNDEFINED> instruction: 0x312e7fba
     da4:	03292f69 	teqeq	r9, #420	; 0x1a4
     da8:	342a2e09 	strtcc	r2, [sl], #-3593	; 0xe09
     dac:	0200c103 	andeq	ip, r0, #-1073741824	; 0xc0000000
     db0:	2c300134 	ldfcss	f0, [r0], #-208	; 0xffffff30
     db4:	54033130 	strpl	r3, [r3], #-304	; 0x130
     db8:	7cf1039e 	ldclvc	3, cr0, [r1], #632	; 0x278
     dbc:	039003d6 	orrseq	r0, r0, #1476395011	; 0x58000003
     dc0:	7cf00366 	ldclvc	3, cr0, [r0], #408	; 0x198
     dc4:	0391032e 	orrseq	r0, r1, #-1207959552	; 0xb8000000
     dc8:	7d800382 	stcvc	3, cr0, [r0, #520]	; 0x208
     dcc:	038203d6 	orreq	r0, r2, #1476395011	; 0x58000003
     dd0:	0b032f82 	bleq	ccbe0 <__bss_end+0xc9d58>
     dd4:	7fb9032e 	svcvc	0x00b9032e
     dd8:	00c7032e 	sbceq	r0, r7, lr, lsr #6
     ddc:	7fb9032e 	svcvc	0x00b9032e
     de0:	7db90366 	ldcvc	3, cr0, [r9, #408]!	; 0x198
     de4:	826f032e 	rsbhi	r0, pc, #-1207959552	; 0xb8000000
     de8:	f203a103 	vrhadd.s8	d10, d3, d3
     dec:	2e63032f 	cdpcs	3, 6, cr0, cr3, cr15, {1}
     df0:	d67cfb03 	ldrbtle	pc, [ip], -r3, lsl #22	; <UNPREDICTABLE>
     df4:	66038603 	strvs	r8, [r3], -r3, lsl #12
     df8:	2e7cfa03 	vaddcs.f32	s31, s24, s6
     dfc:	82038703 	andhi	r8, r3, #786432	; 0xc0000
     e00:	d67d8a03 	ldrbtle	r8, [sp], -r3, lsl #20
     e04:	82038203 	andhi	r8, r3, #805306368	; 0x30000000
     e08:	0d039f50 	stceq	15, cr9, [r3, #-320]	; 0xfffffec0
     e0c:	52032f2e 	andpl	r2, r3, #184	; 0xb8
     e10:	7d860382 	stcvc	3, cr0, [r6, #520]	; 0x208
     e14:	02fb03d6 	rscseq	r0, fp, #1476395011	; 0x58000003
     e18:	7d850366 	stcvc	3, cr0, [r5, #408]	; 0x198
     e1c:	02fc032e 	rscseq	r0, ip, #-1207959552	; 0xb8000000
     e20:	7d950382 	ldcvc	3, cr0, [r5, #520]	; 0x208
     e24:	038203d6 	orreq	r0, r2, #1476395011	; 0x58000003
     e28:	00060282 	andeq	r0, r6, r2, lsl #5
     e2c:	008c0101 	addeq	r0, ip, r1, lsl #2
     e30:	00020000 	andeq	r0, r2, r0
     e34:	00000028 	andeq	r0, r0, r8, lsr #32
     e38:	0efb0102 	cdpeq	1, 15, cr0, cr11, cr2, {0}
     e3c:	0101000d 	tsteq	r1, sp
     e40:	00000101 	andeq	r0, r0, r1, lsl #2
     e44:	00000100 	andeq	r0, r0, r0, lsl #2
     e48:	2e2f2e01 	cdpcs	14, 2, cr2, cr15, cr1, {0}
     e4c:	6d00002e 	stcvs	0, cr0, [r0, #-184]	; 0xffffff48
     e50:	645f6d65 	ldrbvs	r6, [pc], #-3429	; e58 <jump_to_resume0_nommu+0x18>
     e54:	696c7669 	stmdbvs	ip!, {r0, r3, r5, r6, r9, sl, ip, sp, lr}^
     e58:	00532e62 	subseq	r2, r3, r2, ror #28
     e5c:	00000001 	andeq	r0, r0, r1
     e60:	00020500 	andeq	r0, r2, r0, lsl #10
     e64:	03000020 	movweq	r0, #32
     e68:	2f2f010e 	svccs	0x002f010e
     e6c:	2f2f2f30 	svccs	0x002f2f30
     e70:	342f302f 	strtcc	r3, [pc], #-47	; e78 <jump_to_resume0_nommu+0x38>
     e74:	d5032f2f 	strle	r2, [r3, #-3887]	; 0xf2f
     e78:	2f2f2e00 	svccs	0x002f2e00
     e7c:	2f2f332f 	svccs	0x002f332f
     e80:	2f2f2f2f 	svccs	0x002f2f2f
     e84:	142e0230 	strtne	r0, [lr], #-560	; 0x230
     e88:	2f2f302f 	svccs	0x002f302f
     e8c:	342f4c30 	strtcc	r4, [pc], #-3120	; e94 <jump_to_resume0_nommu+0x54>
     e90:	2f2f2f2f 	svccs	0x002f2f2f
     e94:	2f2f2f2f 	svccs	0x002f2f2f
     e98:	302f2f2f 	eorcc	r2, pc, pc, lsr #30
     e9c:	2f142e02 	svccs	0x00142e02
     ea0:	2f2f302f 	svccs	0x002f302f
     ea4:	2f2f2f30 	svccs	0x002f2f30
     ea8:	2f2f4c30 	svccs	0x002f4c30
     eac:	2f2f332f 	svccs	0x002f332f
     eb0:	332f2f2f 	teqcc	pc, #188	; 0xbc
     eb4:	2f2f2f2f 	svccs	0x002f2f2f
     eb8:	0002022f 	andeq	r0, r2, pc, lsr #4
     ebc:	00670101 	rsbeq	r0, r7, r1, lsl #2
     ec0:	00020000 	andeq	r0, r2, r0
     ec4:	00000037 	andeq	r0, r0, r7, lsr r0
     ec8:	0efb0102 	cdpeq	1, 15, cr0, cr11, cr2, {0}
     ecc:	0101000d 	tsteq	r1, sp
     ed0:	00000101 	andeq	r0, r0, r1, lsl #2
     ed4:	00000100 	andeq	r0, r0, r0, lsl #2
     ed8:	2e2f2e01 	cdpcs	14, 2, cr2, cr15, cr1, {0}
     edc:	6d00002e 	stcvs	0, cr0, [r0, #-184]	; 0xffffff48
     ee0:	645f6d65 	ldrbvs	r6, [pc], #-3429	; ee8 <jump_to_resume0_nommu+0xa8>
     ee4:	696c7669 	stmdbvs	ip!, {r0, r3, r5, r6, r9, sl, ip, sp, lr}^
     ee8:	632e6362 	teqvs	lr, #-2013265919	; 0x88000001
     eec:	00000100 	andeq	r0, r0, r0, lsl #2
     ef0:	745f6d70 	ldrbvc	r6, [pc], #-3440	; ef8 <jump_to_resume0_nommu+0xb8>
     ef4:	73657079 	cmnvc	r5, #121	; 0x79
     ef8:	0100682e 	tsteq	r0, lr, lsr #16
     efc:	00000000 	andeq	r0, r0, r0
     f00:	21dc0205 	bicscs	r0, ip, r5, lsl #4
     f04:	13170000 	tstne	r7, #0
     f08:	0903114b 	stmdbeq	r3, {r0, r1, r3, r6, r8, ip}
     f0c:	2b31172e 	blcs	c46bcc <__bss_end+0xc43d44>
     f10:	01040200 	mrseq	r0, R12_usr
     f14:	064a0634 			; <UNDEFINED> instruction: 0x064a0634
     f18:	0b032b31 	bleq	cbbe4 <__bss_end+0xc8d5c>
     f1c:	33302b4a 	teqcc	r0, #75776	; 0x12800
     f20:	4d30342a 	cfldrsmi	mvf3, [r0, #-168]!	; 0xffffff58
     f24:	01000402 	tsteq	r0, r2, lsl #8
     f28:	0000d701 	andeq	sp, r0, r1, lsl #14
     f2c:	40000200 	andmi	r0, r0, r0, lsl #4
     f30:	02000000 	andeq	r0, r0, #0
     f34:	0d0efb01 	vstreq	d15, [lr, #-4]
     f38:	01010100 	mrseq	r0, (UNDEF: 17)
     f3c:	00000001 	andeq	r0, r0, r1
     f40:	01000001 	tsteq	r0, r1
     f44:	2e2e2f2e 	cdpcs	15, 2, cr2, cr14, cr14, {1}
     f48:	656d0000 	strbvs	r0, [sp, #-0]!
     f4c:	6e695f6d 	cdpvs	15, 6, cr5, cr9, cr13, {3}
     f50:	00632e74 	rsbeq	r2, r3, r4, ror lr
     f54:	70000001 	andvc	r0, r0, r1
     f58:	79745f6d 	ldmdbvc	r4!, {r0, r2, r3, r5, r6, r8, r9, sl, fp, ip, lr}^
     f5c:	2e736570 	mrccs	5, 3, r6, cr3, cr0, {3}
     f60:	00010068 	andeq	r0, r1, r8, rrx
     f64:	6d656d00 	stclvs	13, cr6, [r5, #-0]
     f68:	746e695f 	strbtvc	r6, [lr], #-2399	; 0x95f
     f6c:	0100682e 	tsteq	r0, lr, lsr #16
     f70:	00000000 	andeq	r0, r0, r0
     f74:	22340205 	eorscs	r0, r4, #1342177280	; 0x50000000
     f78:	28030000 	stmdacs	r3, {}	; <UNPREDICTABLE>
     f7c:	032f1401 	teqeq	pc, #16777216	; 0x1000000
     f80:	73032e0a 	movwvc	r2, #15882	; 0x3e0a
     f84:	2f2d312e 	svccs	0x002d312e
     f88:	2d2e0b03 	fstmdbxcs	lr!, {d0}	;@ Deprecated
     f8c:	2f2e7503 	svccs	0x002e7503
     f90:	02040200 	andeq	r0, r4, #0
     f94:	004a0b03 	subeq	r0, sl, r3, lsl #22
     f98:	2d020402 	cfstrscs	mvf0, [r2, #-8]
     f9c:	03064a06 	movweq	r4, #27142	; 0x6a06
     fa0:	75032e0b 	strvc	r2, [r3, #-3595]	; 0xe0b
     fa4:	2e0c032e 	cdpcs	3, 0, cr0, cr12, cr14, {1}
     fa8:	0402002d 	streq	r0, [r2], #-45	; 0x2d
     fac:	02002f02 	andeq	r2, r0, #8
     fb0:	4e2d0204 	cdpmi	2, 2, cr0, cr13, cr4, {0}
     fb4:	4c4c2c30 	mcrrmi	12, 3, r2, ip, cr0
     fb8:	0f034f2f 	svceq	0x00034f2f
     fbc:	332c1482 	teqcc	ip, #-2113929216	; 0x82000000
     fc0:	0402002b 	streq	r0, [r2], #-43	; 0x2b
     fc4:	0200a202 	andeq	sl, r0, #536870912	; 0x20000000
     fc8:	004b0204 	subeq	r0, fp, r4, lsl #4
     fcc:	80020402 	andhi	r0, r2, r2, lsl #8
     fd0:	820f036c 	andhi	r0, pc, #-1342177279	; 0xb0000001
     fd4:	32322d13 	eorscc	r2, r2, #1216	; 0x4c0
     fd8:	2d2b322a 	sfmcs	f3, 4, [fp, #-168]!	; 0xffffff58
     fdc:	2b322a32 	blcs	c8b8ac <__bss_end+0xc88a24>
     fe0:	2e7a0331 	mrccs	3, 3, r0, cr10, cr1, {1}
     fe4:	2e0b0330 	mcrcs	3, 0, r0, cr11, cr0, {1}
     fe8:	312e7603 	teqcc	lr, r3, lsl #12
     fec:	4a0f036d 	bmi	3c1da8 <__bss_end+0x3bef20>
     ff0:	2b4d3114 	blcs	134d448 <__bss_end+0x134a5c0>
     ff4:	302f2b31 	eorcc	r2, pc, r1, lsr fp	; <UNPREDICTABLE>
     ff8:	3329302c 	teqcc	r9, #44	; 0x2c
     ffc:	024b352c 	subeq	r3, fp, #184549376	; 0xb000000
    1000:	01010008 	tsteq	r1, r8
    1004:	000000a8 	andeq	r0, r0, r8, lsr #1
    1008:	00400002 	subeq	r0, r0, r2
    100c:	01020000 	mrseq	r0, (UNDEF: 2)
    1010:	000d0efb 	strdeq	r0, [sp], -fp
    1014:	01010101 	tsteq	r1, r1, lsl #2
    1018:	01000000 	mrseq	r0, (UNDEF: 0)
    101c:	2e010000 	cdpcs	0, 0, cr0, cr1, cr0, {0}
    1020:	002e2e2f 	eoreq	r2, lr, pc, lsr #28
    1024:	6d656d00 	stclvs	13, cr6, [r5, #-0]
    1028:	726d745f 	rsbvc	r7, sp, #1593835520	; 0x5f000000
    102c:	0100632e 	tsteq	r0, lr, lsr #6
    1030:	6d700000 	ldclvs	0, cr0, [r0, #-0]
    1034:	7079745f 	rsbsvc	r7, r9, pc, asr r4
    1038:	682e7365 	stmdavs	lr!, {r0, r2, r5, r6, r8, r9, ip, sp, lr}
    103c:	00000100 	andeq	r0, r0, r0, lsl #2
    1040:	5f6d656d 	svcpl	0x006d656d
    1044:	2e726d74 	mrccs	13, 3, r6, cr2, cr4, {3}
    1048:	00010068 	andeq	r0, r1, r8, rrx
    104c:	05000000 	streq	r0, [r0, #-0]
    1050:	0023c002 	eoreq	ip, r3, r2
    1054:	01120300 	tsteq	r2, r0, lsl #6
    1058:	2e7a0318 	mrccs	3, 3, r0, cr10, cr8, {0}
    105c:	2b312b34 	blcs	c4bd34 <__bss_end+0xc48eac>
    1060:	03820c03 	orreq	r0, r2, #768	; 0x300
    1064:	4b2f2e77 	blmi	bcca48 <__bss_end+0xbc9bc0>
    1068:	4b4b4b4b 	blmi	12d3d9c <__bss_end+0x12d0f14>
    106c:	2e0f034d 	cdpcs	3, 0, cr0, cr15, cr13, {2}
    1070:	03306414 	teqeq	r0, #335544320	; 0x14000000
    1074:	77032e09 	strvc	r2, [r3, -r9, lsl #28]
    1078:	4b4b2f2e 	blmi	12ccd38 <__bss_end+0x12c9eb0>
    107c:	4d4b4b4b 	vstrmi	d20, [fp, #-300]	; 0xfffffed4
    1080:	162e0f03 	strtne	r0, [lr], -r3, lsl #30
    1084:	302c302c 	eorcc	r3, ip, ip, lsr #32
    1088:	2f29512c 	svccs	0x0029512c
    108c:	0f034d4b 	svceq	0x00034d4b
    1090:	2933132e 	ldmdbcs	r3!, {r1, r2, r3, r5, r8, r9, ip}
    1094:	2f2c2f4b 	svccs	0x002c2f4b
    1098:	1203312f 	andne	r3, r3, #-1073741813	; 0xc000000b
    109c:	68bb152e 	ldmvs	fp!, {r1, r2, r3, r5, r8, sl, ip}
    10a0:	0369694d 	cmneq	r9, #1261568	; 0x134000
    10a4:	bb142e12 	bllt	50c8f4 <__bss_end+0x509a6c>
    10a8:	02676969 	rsbeq	r6, r7, #1720320	; 0x1a4000
    10ac:	01010002 	tsteq	r1, r2
    10b0:	00000197 	muleq	r0, r7, r1
    10b4:	00be0002 	adcseq	r0, lr, r2
    10b8:	01020000 	mrseq	r0, (UNDEF: 2)
    10bc:	000d0efb 	strdeq	r0, [sp], -fp
    10c0:	01010101 	tsteq	r1, r1, lsl #2
    10c4:	01000000 	mrseq	r0, (UNDEF: 0)
    10c8:	2e010000 	cdpcs	0, 0, cr0, cr1, cr0, {0}
    10cc:	002e2e2f 	eoreq	r2, lr, pc, lsr #28
    10d0:	6d6f682f 	stclvs	8, cr6, [pc, #-188]!	; 101c <__restore_processor_state+0x10>
    10d4:	61642f65 	cmnvs	r4, r5, ror #30
    10d8:	756b676e 	strbvc	r6, [fp, #-1902]!	; 0x76e
    10dc:	64796d2f 	ldrbtvs	r6, [r9], #-3375	; 0xd2f
    10e0:	64696f72 	strbtvs	r6, [r9], #-3954	; 0xf72
    10e4:	6e61622f 	cdpvs	2, 6, cr6, cr1, cr15, {1}
    10e8:	50616e61 	rsbpl	r6, r1, r1, ror #28
    10ec:	326d2f69 	rsbcc	r2, sp, #420	; 0x1a4
    10f0:	756f732f 	strbvc	r7, [pc, #-815]!	; dc9 <enable_mmu+0x15>
    10f4:	2f656372 	svccs	0x00656372
    10f8:	72646e61 	rsbvc	r6, r4, #1552	; 0x610
    10fc:	2f64696f 	svccs	0x0064696f
    1100:	2d495042 	stclcs	0, cr5, [r9, #-264]	; 0xfffffef8
    1104:	412d324d 	teqmi	sp, sp, asr #4
    1108:	6f72646e 	svcvs	0x0072646e
    110c:	2e346469 	cdpcs	4, 3, cr6, cr4, cr9, {3}
    1110:	696c2f34 	stmdbvs	ip!, {r2, r4, r5, r8, r9, sl, fp, sp}^
    1114:	65656863 	strbvs	r6, [r5, #-2147]!	; 0x863
    1118:	6e696c2f 	cdpvs	12, 6, cr6, cr9, cr15, {1}
    111c:	332d7875 	teqcc	sp, #7667712	; 0x750000
    1120:	612f332e 	teqvs	pc, lr, lsr #6
    1124:	2f686372 	svccs	0x00686372
    1128:	2f6d7261 	svccs	0x006d7261
    112c:	6863616d 	stmdavs	r3!, {r0, r2, r3, r5, r6, r8, sp, lr}^
    1130:	6e75732d 	cdpvs	3, 7, cr7, cr5, cr13, {1}
    1134:	692f6936 	stmdbvs	pc!, {r1, r2, r4, r5, r8, fp, sp, lr}	; <UNPREDICTABLE>
    1138:	756c636e 	strbvc	r6, [ip, #-878]!	; 0x36e
    113c:	6d2f6564 	cfstr32vs	mvfx6, [pc, #-400]!	; fb4 <__save_processor_state+0xb4>
    1140:	00686361 	rsbeq	r6, r8, r1, ror #6
    1144:	6d656d00 	stclvs	13, cr6, [r5, #-0]
    1148:	6b6c635f 	blvs	1b19ecc <__bss_end+0x1b17044>
    114c:	0100632e 	tsteq	r0, lr, lsr #6
    1150:	6d700000 	ldclvs	0, cr0, [r0, #-0]
    1154:	7079745f 	rsbsvc	r7, r9, pc, asr r4
    1158:	682e7365 	stmdavs	lr!, {r0, r2, r5, r6, r8, r9, ip, sp, lr}
    115c:	00000100 	andeq	r0, r0, r0, lsl #2
    1160:	756d6363 	strbvc	r6, [sp, #-867]!	; 0x363
    1164:	0200682e 	andeq	r6, r0, #3014656	; 0x2e0000
    1168:	656d0000 	strbvs	r0, [sp, #-0]!
    116c:	6c635f6d 	stclvs	15, cr5, [r3], #-436	; 0xfffffe4c
    1170:	00682e6b 	rsbeq	r2, r8, fp, ror #28
    1174:	00000001 	andeq	r0, r0, r1
    1178:	58020500 	stmdapl	r2, {r8, sl}
    117c:	03000025 	movweq	r0, #37	; 0x25
    1180:	2d13011c 	ldfcss	f0, [r3, #-112]	; 0xffffff90
    1184:	032b4d2f 	teqeq	fp, #3008	; 0xbc0
    1188:	68034a18 	stmdavs	r3, {r3, r4, r9, fp, lr}
    118c:	4b2f312e 	blmi	bcd64c <__bss_end+0xbca7c4>
    1190:	4b4b4b4d 	blmi	12d3ecc <__bss_end+0x12d1044>
    1194:	4d4b4b4b 	vstrmi	d20, [fp, #-300]	; 0xfffffed4
    1198:	4b4b4b4b 	blmi	12d3ecc <__bss_end+0x12d1044>
    119c:	2e12034d 	cdpcs	3, 1, cr0, cr2, cr13, {2}
    11a0:	036a302e 	cmneq	sl, #46	; 0x2e
    11a4:	6f032e0d 	svcvs	0x00032e0d
    11a8:	5035322e 	eorspl	r3, r5, lr, lsr #4
    11ac:	2e220330 	mcrcs	3, 1, r0, cr2, cr0, {1}
    11b0:	512e5e03 	teqpl	lr, r3, lsl #28
    11b4:	50515151 	subspl	r5, r1, r1, asr r1
    11b8:	7a033430 	bvc	ce280 <__bss_end+0xcb3f8>
    11bc:	0903502e 	stmdbeq	r3, {r1, r2, r3, r5, ip, lr}
    11c0:	29334b2e 	ldmdbcs	r3!, {r1, r2, r3, r5, r8, r9, fp, lr}
    11c4:	29332f4f 	ldmdbcs	r3!, {r0, r1, r2, r3, r6, r8, r9, sl, fp, sp}
    11c8:	0b032f4f 	bleq	ccf0c <__bss_end+0xca084>
    11cc:	2e75032e 	cdpcs	3, 7, cr0, cr5, cr14, {1}
    11d0:	2f4a0b03 	svccs	0x004a0b03
    11d4:	2e7a0334 	mrccs	3, 3, r0, cr10, cr4, {1}
    11d8:	15032f50 	strne	r2, [r3, #-3920]	; 0xf50
    11dc:	2e6b032e 	cdpcs	3, 6, cr0, cr11, cr14, {1}
    11e0:	314a1503 	cmpcc	sl, r3, lsl #10
    11e4:	134a1203 	movtne	r1, #41475	; 0xa203
    11e8:	3048682f 	subcc	r6, r8, pc, lsr #16
    11ec:	0332302c 	teqeq	r2, #44	; 0x2c
    11f0:	4f134a0e 	svcmi	0x00134a0e
    11f4:	79033269 	stmdbvc	r3, {r0, r3, r5, r6, r9, ip, sp}
    11f8:	4c68312e 	stfmie	f3, [r8], #-184	; 0xffffff48
    11fc:	032e7603 	teqeq	lr, #3145728	; 0x300000
    1200:	0e032e0b 	cdpeq	14, 0, cr2, cr3, cr11, {0}
    1204:	3133134a 	teqcc	r3, sl, asr #6
    1208:	312e7a03 	teqcc	lr, r3, lsl #20
    120c:	10034d83 	andne	r4, r3, r3, lsl #27
    1210:	2b84134a 	blcs	fe105f40 <__bss_end+0xfe1030b8>
    1214:	2e09032f 	cdpcs	3, 0, cr0, cr9, cr15, {1}
    1218:	672e7903 	strvs	r7, [lr, -r3, lsl #18]!
    121c:	0f038783 	svceq	0x00038783
    1220:	2f2d132e 	svccs	0x002d132e
    1224:	2e790335 	mrccs	3, 3, r0, cr9, cr5, {1}
    1228:	036b6783 	cmneq	fp, #34340864	; 0x20c0000
    122c:	2f012e0e 	svccs	0x00012e0e
    1230:	29892c30 	stmibcs	r9, {r4, r5, sl, fp, sp}
    1234:	034d4b2f 	movteq	r4, #56111	; 0xdb2f
    1238:	2d132e0f 	ldccs	14, cr2, [r3, #-60]	; 0xffffffc4
    123c:	7a03342f 	bvc	ce300 <__bss_end+0xcb478>
    1240:	2c2f4b2e 	stccs	11, cr4, [pc], #-184	; 1190 <set_copro_default+0x98>
    1244:	02023230 	andeq	r3, r2, #3
    1248:	Address 0x00001248 is out of bounds.


Disassembly of section .debug_str:

00000000 <.debug_str>:
       0:	33755f5f 	cmncc	r5, #380	; 0x17c
       4:	5f5f0032 	svcpl	0x005f0032
       8:	5f003875 	svcpl	0x00003875
       c:	75736552 	ldrbvc	r6, [r3, #-1362]!	; 0x552
      10:	665f656d 	ldrbvs	r6, [pc], -sp, ror #10
      14:	5f656c69 	svcpl	0x00656c69
      18:	64616568 	strbtvs	r6, [r1], #-1384	; 0x568
      1c:	6c696600 	stclvs	6, cr6, [r9], #-0
      20:	65685f65 	strbvs	r5, [r8, #-3941]!	; 0xf65
      24:	765f6461 	ldrbvc	r6, [pc], -r1, ror #8
      28:	6c006e73 	stcvs	14, cr6, [r0], {115}	; 0x73
      2c:	74676e65 	strbtvc	r6, [r7], #-3685	; 0xe65
      30:	75700068 	ldrbvc	r0, [r0, #-104]!	; 0x68
      34:	65685f62 	strbvs	r5, [r8, #-3938]!	; 0xf62
      38:	765f6461 	ldrbvc	r6, [pc], -r1, ror #8
      3c:	65006e73 	strvs	r6, [r0, #-3699]	; 0xe73
      40:	5f4e4f47 	svcpl	0x004e4f47
      44:	006e7376 	rsbeq	r7, lr, r6, ror r3
      48:	75736552 	ldrbvc	r6, [r3, #-1362]!	; 0x552
      4c:	765f656d 	ldrbvc	r6, [pc], -sp, ror #10
      50:	6d006e73 	stcvs	14, cr6, [r0, #-460]	; 0xfffffe34
      54:	63696761 	cmnvs	r9, #25427968	; 0x1840000
      58:	6d756a00 	vldmdbvs	r5!, {s13-s12}
      5c:	6e695f70 	mcrvs	15, 3, r5, cr9, cr0, {3}
      60:	75727473 	ldrbvc	r7, [r2, #-1139]!	; 0x473
      64:	6f697463 	svcvs	0x00697463
      68:	7570006e 	ldrbvc	r0, [r0, #-110]!	; 0x6e
      6c:	65685f62 	strbvs	r5, [r8, #-3938]!	; 0xf62
      70:	735f6461 	cmpvc	pc, #1627389952	; 0x61000000
      74:	00657a69 	rsbeq	r7, r5, r9, ror #20
      78:	69736e75 	ldmdbvs	r3!, {r0, r2, r4, r5, r6, r9, sl, fp, sp, lr}^
      7c:	64656e67 	strbtvs	r6, [r5], #-3687	; 0xe67
      80:	61686320 	cmnvs	r8, r0, lsr #6
      84:	68630072 	stmdavs	r3!, {r1, r4, r5, r6}^
      88:	5f6b6365 	svcpl	0x006b6365
      8c:	006d7573 	rsbeq	r7, sp, r3, ror r5
      90:	726f6873 	rsbvc	r6, pc, #7536640	; 0x730000
      94:	6e692074 	mcrvs	0, 3, r2, cr9, cr4, {3}
      98:	4e470074 	mcrmi	0, 2, r0, cr7, cr4, {3}
      9c:	20432055 	subcs	r2, r3, r5, asr r0
      a0:	2e362e34 	mrccs	14, 1, r2, cr6, cr4, {1}
      a4:	30322033 	eorscc	r2, r2, r3, lsr r0
      a8:	32303231 	eorscc	r3, r0, #268435459	; 0x10000003
      ac:	28203130 	stmdacs	r0!, {r4, r5, r8, ip, sp}
      b0:	72657270 	rsbvc	r7, r5, #7
      b4:	61656c65 	cmnvs	r5, r5, ror #24
      b8:	00296573 	eoreq	r6, r9, r3, ror r5
      bc:	6d6f682f 	stclvs	8, cr6, [pc, #-188]!	; 8 <__resume1_start+0x8>
      c0:	61642f65 	cmnvs	r4, r5, ror #30
      c4:	756b676e 	strbvc	r6, [fp, #-1902]!	; 0x76e
      c8:	64796d2f 	ldrbtvs	r6, [r9], #-3375	; 0xd2f
      cc:	64696f72 	strbtvs	r6, [r9], #-3954	; 0xf72
      d0:	6e61622f 	cdpvs	2, 6, cr6, cr1, cr15, {1}
      d4:	50616e61 	rsbpl	r6, r1, r1, ror #28
      d8:	326d2f69 	rsbcc	r2, sp, #420	; 0x1a4
      dc:	756f732f 	strbvc	r7, [pc, #-815]!	; fffffdb5 <__bss_end+0xffffcf2d>
      e0:	2f656372 	svccs	0x00656372
      e4:	72646e61 	rsbvc	r6, r4, #1552	; 0x610
      e8:	2f64696f 	svccs	0x0064696f
      ec:	2d495042 	stclcs	0, cr5, [r9, #-264]	; 0xfffffef8
      f0:	412d324d 	teqmi	sp, sp, asr #4
      f4:	6f72646e 	svcvs	0x0072646e
      f8:	2e346469 	cdpcs	4, 3, cr6, cr4, cr9, {3}
      fc:	696c2f34 	stmdbvs	ip!, {r2, r4, r5, r8, r9, sl, fp, sp}^
     100:	65656863 	strbvs	r6, [r5, #-2147]!	; 0x863
     104:	6e696c2f 	cdpvs	12, 6, cr6, cr9, cr15, {1}
     108:	332d7875 	teqcc	sp, #7667712	; 0x750000
     10c:	612f332e 	teqvs	pc, lr, lsr #6
     110:	2f686372 	svccs	0x00686372
     114:	2f6d7261 	svccs	0x006d7261
     118:	6863616d 	stmdavs	r3!, {r0, r2, r3, r5, r6, r8, sp, lr}^
     11c:	6e75732d 	cdpvs	3, 7, cr7, cr5, cr13, {1}
     120:	702f6936 	eorvc	r6, pc, r6, lsr r9	; <UNPREDICTABLE>
     124:	74732f6d 	ldrbtvc	r2, [r3], #-3949	; 0xf6d
     128:	62646e61 	rsbvs	r6, r4, #1552	; 0x610
     12c:	68730079 	ldmdavs	r3!, {r0, r3, r4, r5, r6}^
     130:	2074726f 	rsbscs	r7, r4, pc, ror #4
     134:	69736e75 	ldmdbvs	r3!, {r0, r2, r4, r5, r6, r9, sl, fp, sp, lr}^
     138:	64656e67 	strbtvs	r6, [r5], #-3687	; 0xe67
     13c:	746e6920 	strbtvc	r6, [lr], #-2336	; 0x920
     140:	616c7000 	cmnvs	ip, r0
     144:	726f6674 	rsbvc	r6, pc, #121634816	; 0x7400000
     148:	2f2e006d 	svccs	0x002e006d
     14c:	65707573 	ldrbvs	r7, [r0, #-1395]!	; 0x573
     150:	65722f72 	ldrbvs	r2, [r2, #-3954]!	; 0xf72
     154:	656d7573 	strbvs	r7, [sp, #-1395]!	; 0x573
     158:	7365722f 	cmnvc	r5, #-268435454	; 0xf0000002
     15c:	5f656d75 	svcpl	0x00656d75
     160:	64616568 	strbtvs	r6, [r1], #-1384	; 0x568
     164:	7200632e 	andvc	r6, r0, #-1207959552	; 0xb8000000
     168:	6d757365 	ldclvs	3, cr7, [r5, #-404]!	; 0xfffffe6c
     16c:	65685f65 	strbvs	r5, [r8, #-3941]!	; 0xf65
     170:	72006461 	andvc	r6, r0, #1627389952	; 0x61000000
     174:	6d757365 	ldclvs	3, cr7, [r5, #-404]!	; 0xfffffe6c
     178:	69665f65 	stmdbvs	r6!, {r0, r2, r5, r6, r8, r9, sl, fp, ip, lr}^
     17c:	685f656c 	ldmdavs	pc, {r2, r3, r5, r6, r8, sl, sp, lr}^	; <UNPREDICTABLE>
     180:	5f646165 	svcpl	0x00646165
     184:	6f6c0074 	svcvs	0x006c0074
     188:	6c20676e 	stcvs	7, cr6, [r0], #-440	; 0xfffffe48
     18c:	20676e6f 	rsbcs	r6, r7, pc, ror #28
     190:	00746e69 	rsbseq	r6, r4, r9, ror #28
     194:	5f706d74 	svcpl	0x00706d74
     198:	00747364 	rsbseq	r7, r4, r4, ror #6
     19c:	676e6f6c 	strbvs	r6, [lr, -ip, ror #30]!
     1a0:	6e6f6c20 	cdpvs	12, 6, cr6, cr15, cr0, {1}
     1a4:	6e752067 	cdpvs	0, 7, cr2, cr5, cr7, {3}
     1a8:	6e676973 	mcrvs	9, 3, r6, cr7, cr3, {3}
     1ac:	69206465 	stmdbvs	r0!, {r0, r2, r5, r6, sl, sp, lr}
     1b0:	2e00746e 	cdpcs	4, 0, cr7, cr0, cr14, {3}
     1b4:	7075732f 	rsbsvc	r7, r5, pc, lsr #6
     1b8:	632f7265 	teqvs	pc, #1342177286	; 0x50000006
     1bc:	6f6d6d6f 	svcvs	0x006d6d6f
     1c0:	00632e6e 	rsbeq	r2, r3, lr, ror #28
     1c4:	5f706d74 	svcpl	0x00706d74
     1c8:	00637273 	rsbeq	r7, r3, r3, ror r2
     1cc:	5f6d656d 	svcpl	0x006d656d
     1d0:	636d656d 	cmnvs	sp, #457179136	; 0x1b400000
     1d4:	2e007970 	mcrcs	9, 0, r7, cr0, cr0, {3}
     1d8:	7075732f 	rsbsvc	r7, r5, pc, lsr #6
     1dc:	732f7265 	teqvc	pc, #1342177286	; 0x50000006
     1e0:	72657075 	rsbvc	r7, r5, #117	; 0x75
     1e4:	6977745f 	ldmdbvs	r7!, {r0, r1, r2, r3, r4, r6, sl, ip, sp, lr}^
     1e8:	2e00632e 	cdpcs	3, 0, cr6, cr0, cr14, {1}
     1ec:	7075732f 	rsbsvc	r7, r5, pc, lsr #6
     1f0:	732f7265 	teqvc	pc, #1342177286	; 0x50000006
     1f4:	72657075 	rsbvc	r7, r5, #117	; 0x75
     1f8:	6f6c635f 	svcvs	0x006c635f
     1fc:	632e6b63 	teqvs	lr, #101376	; 0x18c00
     200:	732f2e00 	teqvc	pc, #0
     204:	72657075 	rsbvc	r7, r5, #117	; 0x75
     208:	7075732f 	rsbsvc	r7, r5, pc, lsr #6
     20c:	705f7265 	subsvc	r7, pc, r5, ror #4
     210:	7265776f 	rsbvc	r7, r5, #29097984	; 0x1bc0000
     214:	7000632e 	andvc	r6, r0, lr, lsr #6
     218:	72646461 	rsbvc	r6, r4, #1627389952	; 0x61000000
     21c:	70757300 	rsbsvc	r7, r5, r0, lsl #6
     220:	655f7265 	ldrbvs	r7, [pc, #-613]	; ffffffc3 <__bss_end+0xffffd13b>
     224:	6c62616e 	stfvse	f6, [r2], #-440	; 0xfffffe48
     228:	77615f65 	strbvc	r5, [r1, -r5, ror #30]!
     22c:	7570635f 	ldrbvc	r6, [r0, #-863]!	; 0x35f
     230:	72777000 	rsbsvc	r7, r7, #0
     234:	6765725f 			; <UNDEFINED> instruction: 0x6765725f
     238:	735f5f00 	cmpvc	pc, #0
     23c:	63003233 	movwvs	r3, #563	; 0x233
     240:	66637570 			; <UNDEFINED> instruction: 0x66637570
     244:	65735f67 	ldrbvs	r5, [r3, #-3943]!	; 0xf67
     248:	70635f74 	rsbvc	r5, r3, r4, ror pc
     24c:	65725f75 	ldrbvs	r5, [r2, #-3957]!	; 0xf75
     250:	5f746573 	svcpl	0x00746573
     254:	74617473 	strbtvc	r7, [r1], #-1139	; 0x473
     258:	2f2e0065 	svccs	0x002e0065
     25c:	65707573 	ldrbvs	r7, [r0, #-1395]!	; 0x573
     260:	75732f72 	ldrbvc	r2, [r3, #-3954]!	; 0xf72
     264:	5f726570 	svcpl	0x00726570
     268:	73757063 	cmnvc	r5, #99	; 0x63
     26c:	6300632e 	movwvs	r6, #814	; 0x32e
     270:	6e5f7570 	mrcvs	5, 2, r7, cr15, cr0, {3}
     274:	50006d75 	andpl	r6, r0, r5, ror sp
     278:	34326c6c 	ldrtcc	r6, [r2], #-3180	; 0xc6c
     27c:	74754f4d 	ldrbtvc	r4, [r5], #-3917	; 0xf4d
     280:	5f006e45 	svcpl	0x00006e45
     284:	4d43435f 	stclmi	3, cr4, [r3, #-380]	; 0xfffffe84
     288:	48415f55 	stmdami	r1, {r0, r2, r4, r6, r8, r9, sl, fp, ip, lr}^
     28c:	525f3142 	subspl	r3, pc, #-2147483632	; 0x80000010
     290:	4f495441 	svcmi	0x00495441
     294:	4745525f 	smlsldmi	r5, r5, pc, r2	; <UNPREDICTABLE>
     298:	34353030 	ldrtcc	r3, [r5], #-48	; 0x30
     29c:	635f5f00 	cmpvs	pc, #0
     2a0:	5f756d63 	svcpl	0x00756d63
     2a4:	31626861 	cmncc	r2, r1, ror #16
     2a8:	7461675f 	strbtvc	r6, [r1], #-1887	; 0x75f
     2ac:	725f3065 	subsvc	r3, pc, #101	; 0x65
     2b0:	30306765 	eorscc	r6, r0, r5, ror #14
     2b4:	745f3036 	ldrbvc	r3, [pc], #-54	; 2bc <set_pll+0x18>
     2b8:	435f5f00 	cmpmi	pc, #0
     2bc:	5f554d43 	svcpl	0x00554d43
     2c0:	5f444f4d 	svcpl	0x00444f4d
     2c4:	5f545352 	svcpl	0x00545352
     2c8:	30474552 	subcc	r4, r7, r2, asr r5
     2cc:	00304432 	eorseq	r4, r0, r2, lsr r4
     2d0:	31757063 	cmncc	r5, r3, rrx
     2d4:	7365725f 	cmnvc	r5, #-268435451	; 0xf0000005
     2d8:	64007465 	strvs	r7, [r0], #-1125	; 0x465
     2dc:	67756265 	ldrbvs	r6, [r5, -r5, ror #4]!
     2e0:	73616d5f 	cmnvc	r1, #6080	; 0x17c0
     2e4:	5f5f006b 	svcpl	0x005f006b
     2e8:	756d6363 	strbvc	r6, [sp, #-867]!	; 0x363
     2ec:	646f6d5f 	strbtvs	r6, [pc], #-3423	; 2f4 <set_pll+0x50>
     2f0:	7473725f 	ldrbtvc	r7, [r3], #-607	; 0x25f
     2f4:	6765725f 			; <UNDEFINED> instruction: 0x6765725f
     2f8:	30643230 	rsbcc	r3, r4, r0, lsr r2
     2fc:	4400745f 	strmi	r7, [r0], #-1119	; 0x45f
     300:	0063696d 	rsbeq	r6, r3, sp, ror #18
     304:	63635f5f 	cmnvs	r3, #380	; 0x17c
     308:	6d5f756d 	cfldr64vs	mvdx7, [pc, #-436]	; 15c <super_enable_aw_cpu+0x3c>
     30c:	5f697069 	svcpl	0x00697069
     310:	5f6c6c70 	svcpl	0x006c6c70
     314:	30676572 	rsbcc	r6, r7, r2, ror r5
     318:	5f303430 	svcpl	0x00303430
     31c:	5f640074 	svcpl	0x00640074
     320:	00727366 	rsbseq	r7, r2, r6, ror #6
     324:	43435f5f 	movtmi	r5, #16223	; 0x3f5f
     328:	4d5f554d 	cfldr64mi	mvdx5, [pc, #-308]	; 1fc <resume1_c_part+0x30>
     32c:	525f444f 	subspl	r4, pc, #1325400064	; 0x4f000000
     330:	525f5453 	subspl	r5, pc, #1392508928	; 0x53000000
     334:	32304745 	eorscc	r4, r0, #18087936	; 0x1140000
     338:	4d003844 	stcmi	8, cr3, [r0, #-272]	; 0xfffffef0
     33c:	446b6c43 	strbtmi	r6, [fp], #-3139	; 0xc43
     340:	48007669 	stmdami	r0, {r0, r3, r5, r6, r9, sl, ip, sp, lr}
     344:	00696d64 	rsbeq	r6, r9, r4, ror #26
     348:	43435f5f 	movtmi	r5, #16223	; 0x3f5f
     34c:	4d5f554d 	cfldr64mi	mvdx5, [pc, #-308]	; 220 <resume1_c_part+0x54>
     350:	41494445 	cmpmi	r9, r5, asr #8
     354:	4c4c505f 	mcrrmi	0, 5, r5, ip, cr15
     358:	635f5f00 	cmpvs	pc, #0
     35c:	5f756d63 	svcpl	0x00756d63
     360:	5f646f6d 	svcpl	0x00646f6d
     364:	5f747372 	svcpl	0x00747372
     368:	30676572 	rsbcc	r6, r7, r2, ror r5
     36c:	5f346332 	svcpl	0x00346332
     370:	61730074 	cmnvs	r3, r4, ror r0
     374:	5f646576 	svcpl	0x00646576
     378:	746e7572 	strbtvc	r7, [lr], #-1394	; 0x572
     37c:	5f656d69 	svcpl	0x00656d69
     380:	746e6f63 	strbtvc	r6, [lr], #-3939	; 0xf63
     384:	5f747865 	svcpl	0x00747865
     388:	00637673 	rsbeq	r7, r3, r3, ror r6
     38c:	43435f5f 	movtmi	r5, #16223	; 0x3f5f
     390:	415f554d 	cmpmi	pc, sp, asr #10
     394:	5f314248 	svcpl	0x00314248
     398:	45544147 	ldrbmi	r4, [r4, #-327]	; 0x147
     39c:	45525f31 	ldrbmi	r5, [r2, #-3889]	; 0xf31
     3a0:	36303047 	ldrtcc	r3, [r0], -r7, asr #32
     3a4:	5f640034 	svcpl	0x00640034
     3a8:	72736661 	rsbsvc	r6, r3, #101711872	; 0x6100000
     3ac:	67734d00 	ldrbvs	r4, [r3, -r0, lsl #26]!
     3b0:	00786f42 	rsbseq	r6, r8, r2, asr #30
     3b4:	63635f5f 	cmnvs	r3, #380	; 0x17c
     3b8:	615f756d 	cmpvs	pc, sp, ror #10
     3bc:	5f316270 	svcpl	0x00316270
     3c0:	65746167 	ldrbvs	r6, [r4, #-359]!	; 0x167
     3c4:	6765725f 			; <UNDEFINED> instruction: 0x6765725f
     3c8:	38363030 	ldmdacc	r6!, {r4, r5, ip, sp}
     3cc:	7000745f 	andvc	r7, r0, pc, asr r4
     3d0:	6e6f636d 	cdpvs	3, 6, cr6, cr15, cr13, {3}
     3d4:	6c6f7274 	sfmvs	f7, 2, [pc], #-464	; 20c <resume1_c_part+0x40>
     3d8:	634c0072 	movtvs	r0, #49266	; 0xc072
     3dc:	68433064 	stmdavs	r3, {r2, r5, r6, ip, sp}^
     3e0:	634c0030 	movtvs	r0, #49200	; 0xc030
     3e4:	68433064 	stmdavs	r3, {r2, r5, r6, ip, sp}^
     3e8:	63730031 	cmnvs	r3, #49	; 0x31
     3ec:	72676663 	rsbvc	r6, r7, #103809024	; 0x6300000
     3f0:	69786100 	ldmdbvs	r8!, {r8, sp, lr}^
     3f4:	7669645f 			; <UNDEFINED> instruction: 0x7669645f
     3f8:	706d7400 	rsbvc	r7, sp, r0, lsl #8
     3fc:	00727450 	rsbseq	r7, r2, r0, asr r4
     400:	43435f5f 	movtmi	r5, #16223	; 0x3f5f
     404:	445f554d 	ldrbmi	r5, [pc], #-1357	; 40c <set_pll+0x168>
     408:	5f4d4152 	svcpl	0x004d4152
     40c:	45544147 	ldrbmi	r4, [r4, #-327]	; 0x147
     410:	4745525f 	smlsldmi	r5, r5, pc, r2	; <UNPREDICTABLE>
     414:	30303130 	eorscc	r3, r0, r0, lsr r1
     418:	635f5f00 	cmpvs	pc, #0
     41c:	5f756d63 	svcpl	0x00756d63
     420:	6d617264 	sfmvs	f7, 2, [r1, #-400]!	; 0xfffffe70
     424:	7461675f 	strbtvc	r6, [r1], #-1887	; 0x75f
     428:	65725f65 	ldrbvs	r5, [r2, #-3941]!	; 0xf65
     42c:	30313067 	eorscc	r3, r1, r7, rrx
     430:	00745f30 	rsbseq	r5, r4, r0, lsr pc
     434:	63635f5f 	cmnvs	r3, #380	; 0x17c
     438:	645f756d 	ldrbvs	r7, [pc], #-1389	; 440 <set_pll+0x19c>
     43c:	5f707369 	svcpl	0x00707369
     440:	5f6b6c63 	svcpl	0x006b6c63
     444:	5f5f0074 	svcpl	0x005f0074
     448:	4d43435f 	stclmi	3, cr4, [r3, #-380]	; 0xfffffe84
     44c:	4c505f55 	mrrcmi	15, 5, r5, r0, cr5
     450:	525f314c 	subspl	r3, pc, #19
     454:	30304745 	eorscc	r4, r0, r5, asr #14
     458:	43003030 	movwmi	r3, #48	; 0x30
     45c:	754f6b6c 	strbvc	r6, [pc, #-2924]	; fffff8f8 <__bss_end+0xffffca70>
     460:	43004174 	movwmi	r4, #372	; 0x174
     464:	754f6b6c 	strbvc	r6, [pc, #-2924]	; fffff900 <__bss_end+0xffffca78>
     468:	69004274 	stmdbvs	r0, {r2, r4, r5, r6, r9, lr}
     46c:	7261665f 	rsbvc	r6, r1, #99614720	; 0x5f00000
     470:	75424d00 	strbvc	r4, [r2, #-3328]	; 0xd00
     474:	50003073 	andpl	r3, r0, r3, ror r0
     478:	72536c6c 	subsvc	r6, r3, #27648	; 0x6c00
     47c:	424d0063 	submi	r0, sp, #99	; 0x63
     480:	00317375 	eorseq	r7, r1, r5, ror r3
     484:	65766173 	ldrbvs	r6, [r6, #-371]!	; 0x173
     488:	6d6d5f64 	stclvs	15, cr5, [sp, #-400]!	; 0xfffffe70
     48c:	74735f75 	ldrbtvc	r5, [r3], #-3957	; 0xf75
     490:	00657461 	rsbeq	r7, r5, r1, ror #8
     494:	6c727443 	cfldrdvs	mvd7, [r2], #-268	; 0xfffffef4
     498:	73527265 	cmpvc	r2, #1342177286	; 0x50000006
     49c:	63700074 	cmnvs	r0, #116	; 0x74
     4a0:	49007273 	stmdbmi	r0, {r0, r1, r4, r5, r6, r9, ip, sp, lr}
     4a4:	00317332 	eorseq	r7, r1, r2, lsr r3
     4a8:	706d6153 	rsbvc	r6, sp, r3, asr r1
     4ac:	436b6c43 	cmnmi	fp, #17152	; 0x4300
     4b0:	006c7274 	rsbeq	r7, ip, r4, ror r2
     4b4:	316c6c50 	cmncc	ip, r0, asr ip
     4b8:	6c744330 	ldclvs	3, cr4, [r4], #-192	; 0xffffff40
     4bc:	6c6c5000 	stclvs	0, cr5, [ip], #-0
     4c0:	6c744334 	ldclvs	3, cr4, [r4], #-208	; 0xffffff30
     4c4:	63684500 	cmnvs	r8, #0
     4c8:	45003069 	strmi	r3, [r0, #-105]	; 0x69
     4cc:	31696368 	cmncc	r9, r8, ror #6
     4d0:	635f5f00 	cmpvs	pc, #0
     4d4:	5f756d63 	svcpl	0x00756d63
     4d8:	366c6c70 			; <UNDEFINED> instruction: 0x366c6c70
     4dc:	6765725f 			; <UNDEFINED> instruction: 0x6765725f
     4e0:	38323030 	ldmdacc	r2!, {r4, r5, ip, sp}
     4e4:	4d00745f 	cfstrsmi	mvf7, [r0, #-380]	; 0xfffffe84
     4e8:	44697069 	strbtmi	r7, [r9], #-105	; 0x69
     4ec:	5f006973 	svcpl	0x00006973
     4f0:	4d43435f 	stclmi	3, cr4, [r3, #-380]	; 0xfffffe84
     4f4:	4f4d5f55 	svcmi	0x004d5f55
     4f8:	454c5544 	strbmi	r5, [ip, #-1348]	; 0x544
     4fc:	4c435f31 	mcrrmi	15, 3, r5, r3, cr1
     500:	4350004b 	cmpmi	r0, #75	; 0x4b
     504:	61476b6c 	cmpvs	r7, ip, ror #22
     508:	5f006574 	svcpl	0x00006574
     50c:	6d63635f 	stclvs	3, cr6, [r3, #-380]!	; 0xfffffe84
     510:	79735f75 	ldmdbvc	r3!, {r0, r2, r4, r5, r6, r8, r9, sl, fp, ip, lr}^
     514:	6b6c6373 	blvs	1b192e8 <__bss_end+0x1b16460>
     518:	7461725f 	strbtvc	r7, [r1], #-607	; 0x25f
     51c:	725f6f69 	subsvc	r6, pc, #420	; 0x1a4
     520:	30306765 	eorscc	r6, r0, r5, ror #14
     524:	745f3035 	ldrbvc	r3, [pc], #-53	; 52c <set_pll+0x288>
     528:	6f644c00 	svcvs	0x00644c00
     52c:	006e4532 	rsbeq	r4, lr, r2, lsr r5
     530:	33757063 	cmncc	r5, #99	; 0x63
     534:	7365725f 	cmnvc	r5, #-268435451	; 0xf0000005
     538:	47007465 	strmi	r7, [r0, -r5, ror #8]
     53c:	00736374 	rsbseq	r6, r3, r4, ror r3
     540:	5f6c6c70 	svcpl	0x006c6c70
     544:	74636166 	strbtvc	r6, [r3], #-358	; 0x166
     548:	745f726f 	ldrbvc	r7, [pc], #-623	; 550 <set_pll+0x2ac>
     54c:	6c6c5000 	stclvs	0, cr5, [ip], #-0
     550:	6c744332 	ldclvs	3, cr4, [r4], #-200	; 0xffffff38
     554:	69734300 	ldmdbvs	r3!, {r8, r9, lr}^
     558:	00707349 	rsbseq	r7, r0, r9, asr #6
     55c:	73625f5f 	cmnvc	r2, #380	; 0x17c
     560:	6e655f73 	mcrvs	15, 3, r5, cr5, cr3, {3}
     564:	4c500064 	mrrcmi	0, 6, r0, r0, cr4	; <UNPREDICTABLE>
     568:	6766434c 	strbvs	r4, [r6, -ip, asr #6]!
     56c:	61647055 	qdsubvs	r7, r5, r4
     570:	54006574 	strpl	r6, [r0], #-1396	; 0x574
     574:	00306977 	eorseq	r6, r0, r7, ror r9
     578:	31697754 	cmncc	r9, r4, asr r7
     57c:	69775400 	ldmdbvs	r7!, {sl, ip, lr}^
     580:	77540032 	smmlarvc	r4, r2, r0, r0
     584:	55003369 	strpl	r3, [r0, #-873]	; 0x369
     588:	33747261 	cmncc	r4, #268435462	; 0x10000006
     58c:	72615500 	rsbvc	r5, r1, #0
     590:	55003474 	strpl	r3, [r0, #-1140]	; 0x474
     594:	35747261 	ldrbcc	r7, [r4, #-609]!	; 0x261
     598:	635f5f00 	cmpvs	pc, #0
     59c:	5f756d63 	svcpl	0x00756d63
     5a0:	6d617264 	sfmvs	f7, 2, [r1, #-400]!	; 0xfffffe70
     5a4:	6766635f 			; <UNDEFINED> instruction: 0x6766635f
     5a8:	6765725f 			; <UNDEFINED> instruction: 0x6765725f
     5ac:	34663030 	strbtcc	r3, [r6], #-48	; 0x30
     5b0:	4d00745f 	cfstrsmi	mvf7, [r0, #-380]	; 0xfffffe84
     5b4:	63416374 	movtvs	r6, #4980	; 0x1374
     5b8:	5f5f0063 	svcpl	0x005f0063
     5bc:	756d6363 	strbvc	r6, [sp, #-867]!	; 0x363
     5c0:	6c6c705f 	stclvs	0, cr7, [ip], #-380	; 0xfffffe84
     5c4:	65725f35 	ldrbvs	r5, [r2, #-3893]!	; 0xf35
     5c8:	32303067 	eorscc	r3, r0, #103	; 0x67
     5cc:	00745f30 	rsbseq	r5, r4, r0, lsr pc
     5d0:	316c6c50 	cmncc	ip, r0, asr ip
     5d4:	006e7554 	rsbeq	r7, lr, r4, asr r5
     5d8:	63635f5f 	cmnvs	r3, #380	; 0x17c
     5dc:	6d5f756d 	cfldr64vs	mvdx7, [pc, #-436]	; 430 <set_pll+0x18c>
     5e0:	725f646f 	subsvc	r6, pc, #1862270976	; 0x6f000000
     5e4:	725f7473 	subsvc	r7, pc, #1929379840	; 0x73000000
     5e8:	32306765 	eorscc	r6, r0, #26476544	; 0x1940000
     5ec:	745f3864 	ldrbvc	r3, [pc], #-2148	; 5f4 <save_mem_status_nommu+0x14>
     5f0:	435f5f00 	cmpmi	pc, #0
     5f4:	5f554d43 	svcpl	0x00554d43
     5f8:	43414d47 	movtmi	r4, #7495	; 0x1d47
     5fc:	4b4c435f 	blmi	1311380 <__bss_end+0x130e4f8>
     600:	4745525f 	smlsldmi	r5, r5, pc, r2	; <UNPREDICTABLE>
     604:	30443030 	subcc	r3, r4, r0, lsr r0
     608:	62665600 	rsbvs	r5, r6, #0
     60c:	006c6553 	rsbeq	r6, ip, r3, asr r5
     610:	535f4d50 	cmppl	pc, #5120	; 0x1400
     614:	444e4154 	strbmi	r4, [lr], #-340	; 0x154
     618:	505f5942 	subspl	r5, pc, r2, asr #18
     61c:	544e4952 	strbpl	r4, [lr], #-2386	; 0x952
     620:	5543435f 	strbpl	r4, [r3, #-863]	; 0x35f
     624:	4154535f 	cmpmi	r4, pc, asr r3
     628:	00535554 	subseq	r5, r3, r4, asr r5
     62c:	535f4d50 	cmppl	pc, #5120	; 0x1400
     630:	444e4154 	strbmi	r4, [lr], #-340	; 0x154
     634:	505f5942 	subspl	r5, pc, r2, asr #18
     638:	544e4952 	strbpl	r4, [lr], #-2386	; 0x952
     63c:	5345525f 	movtpl	r5, #21087	; 0x525f
     640:	5f454d55 	svcpl	0x00454d55
     644:	535f4f49 	cmppl	pc, #292	; 0x124
     648:	55544154 	ldrbpl	r4, [r4, #-340]	; 0x154
     64c:	694d0053 	stmdbvs	sp, {r0, r1, r4, r6}^
     650:	6c506970 	mrrcvs	9, 7, r6, r0, cr0
     654:	6c74436c 	ldclvs	3, cr4, [r4], #-432	; 0xfffffe50
     658:	635f5f00 	cmpvs	pc, #0
     65c:	5f756d63 	svcpl	0x00756d63
     660:	5f627375 	svcpl	0x00627375
     664:	5f6b6c63 	svcpl	0x006b6c63
     668:	30676572 	rsbcc	r6, r7, r2, ror r5
     66c:	5f636330 	svcpl	0x00636330
     670:	4d500074 	ldclmi	0, cr0, [r0, #-464]	; 0xfffffe30
     674:	4154535f 	cmpmi	r4, pc, asr r3
     678:	5942444e 	stmdbpl	r2, {r1, r2, r3, r6, sl, lr}^
     67c:	4952505f 	ldmdbmi	r2, {r0, r1, r2, r3, r4, r6, ip, lr}^
     680:	535f544e 	cmppl	pc, #1308622848	; 0x4e000000
     684:	444e4154 	strbmi	r4, [lr], #-340	; 0x154
     688:	46005942 	strmi	r5, [r0], -r2, asr #18
     68c:	6f746361 	svcvs	0x00746361
     690:	46004b72 			; <UNDEFINED> instruction: 0x46004b72
     694:	6f746361 	svcvs	0x00746361
     698:	46004d72 			; <UNDEFINED> instruction: 0x46004d72
     69c:	6f746361 	svcvs	0x00746361
     6a0:	41004e72 	tstmi	r0, r2, ror lr
     6a4:	44326270 	ldrtmi	r6, [r2], #-624	; 0x270
     6a8:	46007669 	strmi	r7, [r0], -r9, ror #12
     6ac:	6f746361 	svcvs	0x00746361
     6b0:	72005072 	andvc	r5, r0, #114	; 0x72
     6b4:	72657365 	rsbvc	r7, r5, #-1811939327	; 0x94000001
     6b8:	32646576 	rsbcc	r6, r4, #494927872	; 0x1d800000
     6bc:	72003230 	andvc	r3, r0, #3
     6c0:	72657365 	rsbvc	r7, r5, #-1811939327	; 0x94000001
     6c4:	32646576 	rsbcc	r6, r4, #494927872	; 0x1d800000
     6c8:	72003330 	andvc	r3, r0, #-1073741824	; 0xc0000000
     6cc:	72657365 	rsbvc	r7, r5, #-1811939327	; 0x94000001
     6d0:	32646576 	rsbcc	r6, r4, #494927872	; 0x1d800000
     6d4:	47003430 	smladxmi	r0, r0, r4, r3
     6d8:	0063616d 	rsbeq	r6, r3, sp, ror #2
     6dc:	65736572 	ldrbvs	r6, [r3, #-1394]!	; 0x572
     6e0:	64657672 	strbtvs	r7, [r5], #-1650	; 0x672
     6e4:	00363032 	eorseq	r3, r6, r2, lsr r0
     6e8:	63635f5f 	cmnvs	r3, #380	; 0x17c
     6ec:	6d5f756d 	cfldr64vs	mvdx7, [pc, #-436]	; 540 <set_pll+0x29c>
     6f0:	6c75646f 	cfldrdvs	mvd6, [r5], #-444	; 0xfffffe44
     6f4:	635f3165 	cmpvs	pc, #1073741849	; 0x40000019
     6f8:	745f6b6c 	ldrbvc	r6, [pc], #-2924	; 700 <get_cyclecount>
     6fc:	73757300 	cmnvc	r5, #0
     700:	646e6570 	strbtvs	r6, [lr], #-1392	; 0x570
     704:	6c65645f 	cfstrdvs	mvd6, [r5], #-380	; 0xfffffe84
     708:	6d5f7961 	ldclvs	9, cr7, [pc, #-388]	; 58c <fake_busy_waiting+0x4>
     70c:	72470073 	subvc	r0, r7, #115	; 0x73
     710:	00636478 	rsbeq	r6, r3, r8, ror r4
     714:	43435f5f 	movtmi	r5, #16223	; 0x3f5f
     718:	415f554d 	cmpmi	pc, sp, asr #10
     71c:	5f324250 	svcpl	0x00324250
     720:	45544147 	ldrbmi	r4, [r4, #-327]	; 0x147
     724:	4745525f 	smlsldmi	r5, r5, pc, r2	; <UNPREDICTABLE>
     728:	43363030 	teqmi	r6, #48	; 0x30
     72c:	6c435000 	marvs	acc0, r5, r3
     730:	6372536b 	cmnvs	r2, #-1409286143	; 0xac000001
     734:	79685000 	stmdbvc	r8!, {ip, lr}^
     738:	74614730 	strbtvc	r4, [r1], #-1840	; 0x730
     73c:	70470065 	subvc	r0, r7, r5, rrx
     740:	6d654d75 	stclvs	13, cr4, [r5, #-468]!	; 0xfffffe2c
     744:	75704700 	ldrbvc	r4, [r0, #-1792]!	; 0x700
     748:	65726f43 	ldrbvs	r6, [r2, #-3907]!	; 0xf43
     74c:	62704100 	rsbsvs	r4, r0, #0
     750:	74614732 	strbtvc	r4, [r1], #-1842	; 0x732
     754:	43530065 	cmpmi	r3, #101	; 0x65
     758:	61476b6c 	cmpvs	r7, ip, ror #22
     75c:	63006574 	movwvs	r6, #1396	; 0x574
     760:	645f6b6c 	ldrbvs	r6, [pc], #-2924	; 768 <change_runtime_env+0x4c>
     764:	5f007669 	svcpl	0x00007669
     768:	4d43435f 	stclmi	3, cr4, [r3, #-380]	; 0xfffffe84
     76c:	50415f55 	subpl	r5, r1, r5, asr pc
     770:	475f3142 	ldrbmi	r3, [pc, -r2, asr #2]
     774:	5f455441 	svcpl	0x00455441
     778:	30474552 	subcc	r4, r7, r2, asr r5
     77c:	00383630 	eorseq	r3, r8, r0, lsr r6
     780:	4d766944 	ldclmi	9, cr6, [r6, #-272]!	; 0xfffffef0
     784:	76694400 	strbtvc	r4, [r9], -r0, lsl #8
     788:	766d004e 	strbtvc	r0, [sp], -lr, asr #32
     78c:	64615f61 	strbtvs	r5, [r1], #-3937	; 0xf61
     790:	41007264 	tstmi	r0, r4, ror #4
     794:	52326270 	eorspl	r6, r2, #7
     798:	74657365 	strbtvc	r7, [r5], #-869	; 0x365
     79c:	62684100 	rsbvs	r4, r8, #0
     7a0:	65746147 	ldrbvs	r6, [r4, #-327]!	; 0x147
     7a4:	434d0031 	movtmi	r0, #53297	; 0xd031
     7a8:	61476b6c 	cmpvs	r7, ip, ror #22
     7ac:	69006574 	stmdbvs	r0, {r2, r4, r5, r6, r8, sl, sp, lr}
     7b0:	7273665f 	rsbsvc	r6, r3, #99614720	; 0x5f00000
     7b4:	62686100 	rsbvs	r6, r8, #0
     7b8:	6270615f 	rsbsvs	r6, r0, #-1073741801	; 0xc0000017
     7bc:	7669645f 			; <UNDEFINED> instruction: 0x7669645f
     7c0:	5f4d5000 	svcpl	0x004d5000
     7c4:	4e415453 	mcrmi	4, 2, r5, cr1, cr3, {2}
     7c8:	5f594244 	svcpl	0x00594244
     7cc:	4e495250 	mcrmi	2, 2, r5, cr9, cr0, {2}
     7d0:	4f495f54 	svcmi	0x00495f54
     7d4:	4154535f 	cmpmi	r4, pc, asr r3
     7d8:	00535554 	subseq	r5, r3, r4, asr r5
     7dc:	4c6c6c50 	stclmi	12, cr6, [ip], #-320	; 0xfffffec0
     7e0:	006b636f 	rsbeq	r6, fp, pc, ror #6
     7e4:	69647053 	stmdbvs	r4!, {r0, r1, r4, r6, ip, sp, lr}^
     7e8:	73550066 	cmpvc	r5, #102	; 0x66
     7ec:	79685062 	stmdbvc	r8!, {r1, r5, r6, ip, lr}^
     7f0:	74735230 	ldrbtvc	r5, [r3], #-560	; 0x230
     7f4:	6c6c7000 	stclvs	0, cr7, [ip], #-0
     7f8:	75745f31 	ldrbvc	r5, [r4, #-3889]!	; 0xf31
     7fc:	684f006e 	stmdavs	pc, {r1, r2, r3, r5, r6}^	; <UNPREDICTABLE>
     800:	47316963 	ldrmi	r6, [r1, -r3, ror #18]!
     804:	00657461 	rsbeq	r7, r5, r1, ror #8
     808:	44706549 	ldrbtmi	r6, [r0], #-1353	; 0x549
     80c:	00306372 	eorseq	r6, r0, r2, ror r3
     810:	44706549 	ldrbtmi	r6, [r0], #-1353	; 0x549
     814:	00316372 	eorseq	r6, r1, r2, ror r3
     818:	63635f5f 	cmnvs	r3, #380	; 0x17c
     81c:	615f756d 	cmpvs	pc, sp, ror #10
     820:	675f6978 			; <UNDEFINED> instruction: 0x675f6978
     824:	5f657461 	svcpl	0x00657461
     828:	30676572 	rsbcc	r6, r7, r2, ror r5
     82c:	5f633530 	svcpl	0x00633530
     830:	63660074 	cmnvs	r6, #116	; 0x74
     834:	5f006573 	svcpl	0x00006573
     838:	6d63635f 	stclvs	3, cr6, [r3, #-380]!	; 0xfffffe84
     83c:	696d5f75 	stmdbvs	sp!, {r0, r2, r4, r5, r6, r8, r9, sl, fp, ip, lr}^
     840:	635f6970 	cmpvs	pc, #1835008	; 0x1c0000
     844:	745f6b6c 	ldrbvc	r6, [pc], #-2924	; 84c <delay_us+0x34>
     848:	635f5f00 	cmpvs	pc, #0
     84c:	5f756d63 	svcpl	0x00756d63
     850:	5f697363 	svcpl	0x00697363
     854:	5f6b6c63 	svcpl	0x006b6c63
     858:	65490074 	strbvs	r0, [r9, #-116]	; 0x74
     85c:	75654470 	strbvc	r4, [r5, #-1136]!	; 0x470
     860:	65490030 	strbvs	r0, [r9, #-48]	; 0x30
     864:	75654470 	strbvc	r4, [r5, #-1136]!	; 0x470
     868:	5f5f0031 	svcpl	0x005f0031
     86c:	5f737362 	svcpl	0x00737362
     870:	72617473 	rsbvc	r7, r1, #1929379840	; 0x73000000
     874:	61640074 	smcvs	16388	; 0x4004
     878:	5f007263 	svcpl	0x00007263
     87c:	4d43435f 	stclmi	3, cr4, [r3, #-380]	; 0xfffffe84
     880:	48415f55 	stmdami	r1, {r0, r2, r4, r6, r8, r9, sl, fp, ip, lr}^
     884:	475f3142 	ldrbmi	r3, [pc, -r2, asr #2]
     888:	30455441 	subcc	r5, r5, r1, asr #8
     88c:	4745525f 	smlsldmi	r5, r5, pc, r2	; <UNPREDICTABLE>
     890:	30363030 	eorscc	r3, r6, r0, lsr r0
     894:	6b6c4300 	blvs	1b1149c <__bss_end+0x1b0e614>
     898:	30637253 	rsbcc	r7, r3, r3, asr r2
     89c:	63656300 	cmnvs	r5, #0
     8a0:	6c430072 	mcrrvs	0, 7, r0, r3, cr2
     8a4:	6372536b 	cmnvs	r2, #-1409286143	; 0xac000001
     8a8:	2f2e0031 	svccs	0x002e0031
     8ac:	65707573 	ldrbvs	r7, [r0, #-1395]!	; 0x573
     8b0:	65722f72 	ldrbvs	r2, [r2, #-3954]!	; 0xf72
     8b4:	656d7573 	strbvs	r7, [sp, #-1395]!	; 0x573
     8b8:	7365722f 	cmnvc	r5, #-268435454	; 0xf0000002
     8bc:	31656d75 	smccc	22229	; 0x56d5
     8c0:	705f635f 	subsvc	r6, pc, pc, asr r3	; <UNPREDICTABLE>
     8c4:	2e747261 	cdpcs	2, 7, cr7, cr4, cr1, {3}
     8c8:	5f5f0063 	svcpl	0x005f0063
     8cc:	554d4343 	strbpl	r4, [sp, #-835]	; 0x343
     8d0:	444f4d5f 	strbmi	r4, [pc], #-3423	; 8d8 <get_event_counter+0x4>
     8d4:	5453525f 	ldrbpl	r5, [r3], #-607	; 0x25f
     8d8:	4745525f 	smlsldmi	r5, r5, pc, r2	; <UNPREDICTABLE>
     8dc:	30433230 	subcc	r3, r3, r0, lsr r2
     8e0:	62684100 	rsbvs	r4, r8, #0
     8e4:	65746147 	ldrbvs	r6, [r4, #-327]!	; 0x147
     8e8:	5f5f0030 	svcpl	0x005f0030
     8ec:	554d4343 	strbpl	r4, [sp, #-835]	; 0x343
     8f0:	444f4d5f 	strbmi	r4, [pc], #-3423	; 8f8 <get_event_counter+0x24>
     8f4:	5453525f 	ldrbpl	r5, [r3], #-607	; 0x25f
     8f8:	4745525f 	smlsldmi	r5, r5, pc, r2	; <UNPREDICTABLE>
     8fc:	34433230 	strbcc	r3, [r3], #-560	; 0x230
     900:	435f5f00 	cmpmi	pc, #0
     904:	5f554d43 	svcpl	0x00554d43
     908:	5f444f4d 	svcpl	0x00444f4d
     90c:	5f545352 	svcpl	0x00545352
     910:	30474552 	subcc	r4, r7, r2, asr r5
     914:	00384332 	eorseq	r4, r8, r2, lsr r3
     918:	43435f5f 	movtmi	r5, #16223	; 0x3f5f
     91c:	435f554d 	cmpmi	pc, #322961408	; 0x13400000
     920:	435f4953 	cmpmi	pc, #1359872	; 0x14c000
     924:	5f004b4c 	svcpl	0x00004b4c
     928:	6d63635f 	stclvs	3, cr6, [r3, #-380]!	; 0xfffffe84
     92c:	6d675f75 	stclvs	15, cr5, [r7, #-468]!	; 0xfffffe2c
     930:	635f6361 	cmpvs	pc, #-2080374783	; 0x84000001
     934:	725f6b6c 	subsvc	r6, pc, #110592	; 0x1b000
     938:	30306765 	eorscc	r6, r0, r5, ror #14
     93c:	745f3064 	ldrbvc	r3, [pc], #-100	; 944 <restore_mmu_state+0x8>
     940:	635f5f00 	cmpvs	pc, #0
     944:	5f756d63 	svcpl	0x00756d63
     948:	32627061 	rsbcc	r7, r2, #97	; 0x61
     94c:	7461675f 	strbtvc	r6, [r1], #-1887	; 0x75f
     950:	65725f65 	ldrbvs	r5, [r2, #-3941]!	; 0xf65
     954:	36303067 	ldrtcc	r3, [r0], -r7, rrx
     958:	00745f63 	rsbseq	r5, r4, r3, ror #30
     95c:	316c6c50 	cmncc	ip, r0, asr ip
     960:	006c7443 	rsbeq	r7, ip, r3, asr #8
     964:	6162766d 	cmnvs	r2, sp, ror #12
     968:	72750072 	rsbsvc	r0, r5, #114	; 0x72
     96c:	6970746f 	ldmdbvs	r0!, {r0, r1, r2, r3, r5, r6, sl, ip, sp, lr}^
     970:	64410064 	strbvs	r0, [r1], #-100	; 0x64
     974:	6e006164 	adfvssz	f6, f0, f4
     978:	63736e6f 	cmnvs	r3, #1776	; 0x6f0
     97c:	74636361 	strbtvc	r6, [r3], #-865	; 0x361
     980:	00726c72 	rsbseq	r6, r2, r2, ror ip
     984:	66615f69 	strbtvs	r5, [r1], -r9, ror #30
     988:	63007273 	movwvs	r7, #627	; 0x273
     98c:	00727365 	rsbseq	r7, r2, r5, ror #6
     990:	61726453 	cmnvs	r2, r3, asr r4
     994:	4353006d 	cmpmi	r3, #109	; 0x6d
     998:	69446b6c 	stmdbvs	r4, {r2, r3, r5, r6, r8, r9, fp, sp, lr}^
     99c:	6c500076 	mrrcvs	0, 7, r0, r0, cr6	; <UNPREDICTABLE>
     9a0:	7443386c 	strbvc	r3, [r3], #-2156	; 0x86c
     9a4:	754f006c 	strbvc	r0, [pc, #-108]	; 940 <restore_mmu_state+0x4>
     9a8:	6b6c4374 	blvs	1b11780 <__bss_end+0x1b0e8f8>
     9ac:	6c727443 	cfldrdvs	mvd7, [r2], #-268	; 0xfffffef4
     9b0:	73657200 	cmnvc	r5, #0
     9b4:	65767265 	ldrbvs	r7, [r6, #-613]!	; 0x265
     9b8:	00303164 	eorseq	r3, r0, r4, ror #2
     9bc:	43435f5f 	movtmi	r5, #16223	; 0x3f5f
     9c0:	505f554d 	subspl	r5, pc, sp, asr #10
     9c4:	4f4c4c4c 	svcmi	0x004c4c4c
     9c8:	525f4b43 	subspl	r4, pc, #68608	; 0x10c00
     9cc:	32304745 	eorscc	r4, r0, #18087936	; 0x1140000
     9d0:	72003030 	andvc	r3, r0, #48	; 0x30
     9d4:	72657365 	rsbvc	r7, r5, #-1811939327	; 0x94000001
     9d8:	31646576 	smccc	18006	; 0x4656
     9dc:	65720032 	ldrbvs	r0, [r2, #-50]!	; 0x32
     9e0:	76726573 			; <UNDEFINED> instruction: 0x76726573
     9e4:	33316465 	teqcc	r1, #1694498816	; 0x65000000
     9e8:	435f5f00 	cmpmi	pc, #0
     9ec:	5f554d43 	svcpl	0x00554d43
     9f0:	5f425355 	svcpl	0x00425355
     9f4:	5f4b4c43 	svcpl	0x004b4c43
     9f8:	30474552 	subcc	r4, r7, r2, asr r5
     9fc:	00434330 	subeq	r4, r3, r0, lsr r3
     a00:	65736572 	ldrbvs	r6, [r3, #-1394]!	; 0x572
     a04:	64657672 	strbtvs	r7, [r5], #-1650	; 0x672
     a08:	72003531 	andvc	r3, r0, #205520896	; 0xc400000
     a0c:	72657365 	rsbvc	r7, r5, #-1811939327	; 0x94000001
     a10:	31646576 	smccc	18006	; 0x4656
     a14:	44440036 	strbmi	r0, [r4], #-54	; 0x36
     a18:	74614743 	strbtvc	r4, [r1], #-1859	; 0x743
     a1c:	65720065 	ldrbvs	r0, [r2, #-101]!	; 0x65
     a20:	76726573 			; <UNDEFINED> instruction: 0x76726573
     a24:	38316465 	ldmdacc	r1!, {r0, r2, r5, r6, sl, sp, lr}
     a28:	6b6c6300 	blvs	1b19630 <__bss_end+0x1b167a8>
     a2c:	73696d5f 	cmnvc	r9, #6080	; 0x17c0
     a30:	69530063 	ldmdbvs	r3, {r0, r1, r5, r6}^
     a34:	45616d67 	strbmi	r6, [r1, #-3431]!	; 0xd67
     a38:	5f5f006e 	svcpl	0x005f006e
     a3c:	756d6363 	strbvc	r6, [sp, #-867]!	; 0x363
     a40:	646f6d5f 	strbtvs	r6, [pc], #-3423	; a48 <inv_skip+0x4>
     a44:	7473725f 	ldrbtvc	r7, [r3], #-607	; 0x25f
     a48:	6765725f 			; <UNDEFINED> instruction: 0x6765725f
     a4c:	30633230 	rsbcc	r3, r3, r0, lsr r2
     a50:	5300745f 	movwpl	r7, #1119	; 0x45f
     a54:	616d6769 	cmnvs	sp, r9, ror #14
     a58:	746c6544 	strbtvc	r6, [ip], #-1348	; 0x544
     a5c:	006e4561 	rsbeq	r4, lr, r1, ror #10
     a60:	63646364 	cmnvs	r4, #-1879048191	; 0x90000001
     a64:	74430033 	strbvc	r0, [r3], #-51	; 0x33
     a68:	646f4d6c 	strbtvs	r4, [pc], #-3436	; a70 <invalidate_icache+0xc>
     a6c:	5f5f0065 	svcpl	0x005f0065
     a70:	756d6363 	strbvc	r6, [sp, #-867]!	; 0x363
     a74:	6268615f 	rsbvs	r6, r8, #-1073741801	; 0xc0000017
     a78:	61675f31 	cmnvs	r7, r1, lsr pc
     a7c:	5f316574 	svcpl	0x00316574
     a80:	30676572 	rsbcc	r6, r7, r2, ror r5
     a84:	5f343630 	svcpl	0x00343630
     a88:	634c0074 	movtvs	r0, #49268	; 0xc074
     a8c:	55003064 	strpl	r3, [r0, #-100]	; 0x64
     a90:	68506273 	ldmdavs	r0, {r0, r1, r4, r5, r6, r9, sp, lr}^
     a94:	73523279 	cmpvc	r2, #-1879048185	; 0x90000007
     a98:	684f0074 	stmdavs	pc, {r2, r4, r5, r6}^	; <UNPREDICTABLE>
     a9c:	47306963 	ldrmi	r6, [r0, -r3, ror #18]!
     aa0:	00657461 	rsbeq	r7, r5, r1, ror #8
     aa4:	63646364 	cmnvs	r4, #-1879048191	; 0x90000001
     aa8:	644d0032 	strbvs	r0, [sp], #-50	; 0x32
     aac:	72007366 	andvc	r7, r0, #-1744830463	; 0x98000001
     ab0:	6d757365 	ldclvs	3, cr7, [r5, #-404]!	; 0xfffffe6c
     ab4:	635f3165 	cmpvs	pc, #1073741849	; 0x40000019
     ab8:	7261705f 	rsbvc	r7, r1, #95	; 0x5f
     abc:	6c500074 	mrrcvs	0, 7, r0, r0, cr4	; <UNPREDICTABLE>
     ac0:	6942786c 	stmdbvs	r2, {r2, r3, r5, r6, fp, ip, sp, lr}^
     ac4:	5f007361 	svcpl	0x00007361
     ac8:	4d43435f 	stclmi	3, cr4, [r3, #-380]	; 0xfffffe84
     acc:	4f4d5f55 	svcmi	0x004d5f55
     ad0:	454c5544 	strbmi	r5, [ip, #-1348]	; 0x544
     ad4:	4c435f30 	mcrrmi	15, 3, r5, r3, cr0
     ad8:	694d004b 	stmdbvs	sp, {r0, r1, r3, r6}^
     adc:	6c506970 	mrrcvs	9, 7, r6, r0, cr0
     ae0:	6e75546c 	cdpvs	4, 7, cr5, cr5, cr12, {3}
     ae4:	76694400 	strbtvc	r4, [r9], -r0, lsl #8
     ae8:	5f004d31 	svcpl	0x00004d31
     aec:	4d43435f 	stclmi	3, cr4, [r3, #-380]	; 0xfffffe84
     af0:	4c435f55 	mcrrmi	15, 5, r5, r3, cr5
     af4:	554f5f4b 	strbpl	r5, [pc, #-3915]	; fffffbb1 <__bss_end+0xffffcd29>
     af8:	72440054 	subvc	r0, r4, #84	; 0x54
     afc:	72006d61 	andvc	r6, r0, #6208	; 0x1840
     b00:	72657365 	rsbvc	r7, r5, #-1811939327	; 0x94000001
     b04:	32646576 	rsbcc	r6, r4, #494927872	; 0x1d800000
     b08:	65720032 	ldrbvs	r0, [r2, #-50]!	; 0x32
     b0c:	76726573 			; <UNDEFINED> instruction: 0x76726573
     b10:	33326465 	teqcc	r2, #1694498816	; 0x65000000
     b14:	72645300 	rsbvc	r5, r4, #0
     b18:	556b6c43 	strbpl	r6, [fp, #-3139]!	; 0xc43
     b1c:	50006470 	andpl	r6, r0, r0, ror r4
     b20:	54356c6c 	ldrtpl	r6, [r5], #-3180	; 0xc6c
     b24:	55006e75 	strpl	r6, [r0, #-3701]	; 0xe75
     b28:	30747261 	rsbscc	r7, r4, r1, ror #4
     b2c:	73657200 	cmnvc	r5, #0
     b30:	65767265 	ldrbvs	r7, [r6, #-613]!	; 0x265
     b34:	00313164 	eorseq	r3, r1, r4, ror #2
     b38:	424c4c50 	submi	r4, ip, #20480	; 0x5000
     b3c:	73617079 	cmnvc	r1, #121	; 0x79
     b40:	65720073 	ldrbvs	r0, [r2, #-115]!	; 0x73
     b44:	76726573 			; <UNDEFINED> instruction: 0x76726573
     b48:	34316465 	ldrtcc	r6, [r1], #-1125	; 0x465
     b4c:	435f5f00 	cmpmi	pc, #0
     b50:	5f554d43 	svcpl	0x00554d43
     b54:	494d4448 	stmdbmi	sp, {r3, r6, sl, lr}^
     b58:	4b4c435f 	blmi	13118dc <__bss_end+0x130ea54>
     b5c:	4745525f 	smlsldmi	r5, r5, pc, r2	; <UNPREDICTABLE>
     b60:	30353130 	eorscc	r3, r5, r0, lsr r1
     b64:	62684100 	rsbvs	r4, r8, #0
     b68:	76694431 			; <UNDEFINED> instruction: 0x76694431
     b6c:	73657200 	cmnvc	r5, #0
     b70:	65767265 	ldrbvs	r7, [r6, #-613]!	; 0x265
     b74:	00373164 	eorseq	r3, r7, r4, ror #2
     b78:	65736572 	ldrbvs	r6, [r3, #-1394]!	; 0x572
     b7c:	64657672 	strbtvs	r7, [r5], #-1650	; 0x672
     b80:	73003931 	movwvc	r3, #2353	; 0x931
     b84:	67626463 	strbvs	r6, [r2, -r3, ror #8]!
     b88:	6c626e65 	stclvs	14, cr6, [r2], #-404	; 0xfffffe6c
     b8c:	6c500072 	mrrcvs	0, 7, r0, r0, cr2	; <UNPREDICTABLE>
     b90:	7443336c 	strbvc	r3, [r3], #-876	; 0x36c
     b94:	7953006c 	ldmdbvc	r3, {r2, r3, r5, r6}^
     b98:	6b6c4373 	blvs	1b1196c <__bss_end+0x1b0eae4>
     b9c:	00766944 	rsbseq	r6, r6, r4, asr #18
     ba0:	436c6c50 	cmnmi	ip, #20480	; 0x5000
     ba4:	754f6b6c 	strbvc	r6, [pc, #-2924]	; 40 <_start+0x10>
     ba8:	006e4574 	rsbeq	r4, lr, r4, ror r5
     bac:	32796850 	rsbscc	r6, r9, #5242880	; 0x500000
     bb0:	65746147 	ldrbvs	r6, [r4, #-327]!	; 0x147
     bb4:	6c434d00 	mcrrvs	13, 0, r4, r3, cr0
     bb8:	6372536b 	cmnvs	r2, #-1409286143	; 0xac000001
     bbc:	435f5f00 	cmpmi	pc, #0
     bc0:	5f554d43 	svcpl	0x00554d43
     bc4:	4950494d 	ldmdbmi	r0, {r0, r2, r3, r6, r8, fp, lr}^
     bc8:	4b4c435f 	blmi	131194c <__bss_end+0x130eac4>
     bcc:	635f5f00 	cmpvs	pc, #0
     bd0:	5f756d63 	svcpl	0x00756d63
     bd4:	32627061 	rsbcc	r7, r2, #97	; 0x61
     bd8:	7461725f 	strbtvc	r7, [r1], #-607	; 0x25f
     bdc:	725f6f69 	subsvc	r6, pc, #420	; 0x1a4
     be0:	30306765 	eorscc	r6, r0, r5, ror #14
     be4:	745f3835 	ldrbvc	r3, [pc], #-2101	; bec <invalidate_branch_predictor>
     be8:	6c435300 	mcrrvs	3, 0, r5, r3, cr0
     bec:	6372536b 	cmnvs	r2, #-1409286143	; 0xac000001
     bf0:	75704700 	ldrbvc	r4, [r0, #-1792]!	; 0x700
     bf4:	00647948 	rsbeq	r7, r4, r8, asr #18
     bf8:	69787247 	ldmdbvs	r8!, {r0, r1, r2, r6, r9, ip, sp, lr}^
     bfc:	68410065 	stmdavs	r1, {r0, r2, r5, r6}^
     c00:	73655262 	cmnvc	r5, #536870918	; 0x20000006
     c04:	00307465 	eorseq	r7, r0, r5, ror #8
     c08:	52626841 	rsbpl	r6, r2, #4259840	; 0x410000
     c0c:	74657365 	strbtvc	r7, [r5], #-869	; 0x365
     c10:	68410031 	stmdavs	r1, {r0, r4, r5}^
     c14:	73655262 	cmnvc	r5, #536870918	; 0x20000006
     c18:	00327465 	eorseq	r7, r2, r5, ror #8
     c1c:	32757063 	rsbscc	r7, r5, #99	; 0x63
     c20:	7365725f 	cmnvc	r5, #-268435451	; 0xf0000005
     c24:	53007465 	movwpl	r7, #1125	; 0x465
     c28:	6e456d64 	cdpvs	13, 4, cr6, cr5, cr4, {3}
     c2c:	635f5f00 	cmpvs	pc, #0
     c30:	5f756d63 	svcpl	0x00756d63
     c34:	5f6b6c63 	svcpl	0x006b6c63
     c38:	5f74756f 	svcpl	0x0074756f
     c3c:	5f5f0074 	svcpl	0x005f0074
     c40:	554d4343 	strbpl	r4, [sp, #-835]	; 0x343
     c44:	50494d5f 	subpl	r4, r9, pc, asr sp
     c48:	4c505f49 	mrrcmi	15, 4, r5, r0, cr9
     c4c:	45525f4c 	ldrbmi	r5, [r2, #-3916]	; 0xf4c
     c50:	34303047 	ldrtcc	r3, [r0], #-71	; 0x47
     c54:	72750030 	rsbsvc	r0, r5, #48	; 0x30
     c58:	69707477 	ldmdbvs	r0!, {r0, r1, r2, r4, r5, r6, sl, ip, sp, lr}^
     c5c:	6c500064 	mrrcvs	0, 6, r0, r0, cr4	; <UNPREDICTABLE>
     c60:	6f4c316c 	svcvs	0x004c316c
     c64:	43006b63 	movwmi	r6, #2915	; 0xb63
     c68:	754f6b6c 	strbvc	r6, [pc, #-2924]	; 104 <cpucfg_set_cpu_reset_state+0x28>
     c6c:	5f004374 	svcpl	0x00004374
     c70:	6d63635f 	stclvs	3, cr6, [r3, #-380]!	; 0xfffffe84
     c74:	6f6d5f75 	svcvs	0x006d5f75
     c78:	73725f64 	cmnvc	r2, #400	; 0x190
     c7c:	65725f74 	ldrbvs	r5, [r2, #-3956]!	; 0xf74
     c80:	63323067 	teqvs	r2, #103	; 0x67
     c84:	00745f38 	rsbseq	r5, r4, r8, lsr pc
     c88:	3164634c 	cmncc	r4, ip, asr #6
     c8c:	70786100 	rsbsvc	r6, r8, r0, lsl #2
     c90:	6576655f 	ldrbvs	r6, [r6, #-1375]!	; 0x55f
     c94:	4f00746e 	svcmi	0x0000746e
     c98:	30696368 	rsbcc	r6, r9, r8, ror #6
     c9c:	63684f00 	cmnvs	r8, #0
     ca0:	4f003169 	svcmi	0x00003169
     ca4:	32696368 	rsbcc	r6, r9, #-1610612735	; 0xa0000001
     ca8:	6c655300 	stclvs	3, cr5, [r5], #-0
     cac:	4f353236 	svcmi	0x00353236
     cb0:	30353772 	eorscc	r3, r5, r2, ror r7
     cb4:	635f5f00 	cmpvs	pc, #0
     cb8:	5f756d63 	svcpl	0x00756d63
     cbc:	326c6c70 	rsbcc	r6, ip, #28672	; 0x7000
     cc0:	6765725f 			; <UNDEFINED> instruction: 0x6765725f
     cc4:	38303030 	ldmdacc	r0!, {r4, r5, ip, sp}
     cc8:	4400745f 	strmi	r7, [r0], #-1119	; 0x45f
     ccc:	476d6172 			; <UNDEFINED> instruction: 0x476d6172
     cd0:	00657461 	rsbeq	r7, r5, r1, ror #8
     cd4:	75736572 	ldrbvc	r6, [r3, #-1394]!	; 0x572
     cd8:	705f656d 	subsvc	r6, pc, sp, ror #10
     cdc:	746e696f 	strbtvc	r6, [lr], #-2415	; 0x96f
     ce0:	72007265 	andvc	r7, r0, #1342177286	; 0x50000006
     ce4:	72657365 	rsbvc	r7, r5, #-1811939327	; 0x94000001
     ce8:	32646576 	rsbcc	r6, r4, #494927872	; 0x1d800000
     cec:	634c0031 	movtvs	r0, #49201	; 0xc031
     cf0:	68433164 	stmdavs	r3, {r2, r5, r6, r8, ip, sp}^
     cf4:	634c0030 	movtvs	r0, #49200	; 0xc030
     cf8:	68433164 	stmdavs	r3, {r2, r5, r6, r8, ip, sp}^
     cfc:	70410031 	subvc	r0, r1, r1, lsr r0
     d00:	69443162 	stmdbvs	r4, {r1, r5, r6, r8, ip, sp}^
     d04:	6f4d0076 	svcvs	0x004d0076
     d08:	65536564 	ldrbvs	r6, [r3, #-1380]	; 0x564
     d0c:	6572006c 	ldrbvs	r0, [r2, #-108]!	; 0x6c
     d10:	76726573 			; <UNDEFINED> instruction: 0x76726573
     d14:	30326465 	eorscc	r6, r2, r5, ror #8
     d18:	74470035 	strbvc	r0, [r7], #-53	; 0x35
     d1c:	00656978 	rsbeq	r6, r5, r8, ror r9
     d20:	43435f5f 	movtmi	r5, #16223	; 0x3f5f
     d24:	445f554d 	ldrbmi	r5, [pc], #-1357	; d2c <mem_preload_tlb+0xcc>
     d28:	5f4d4152 	svcpl	0x004d4152
     d2c:	5f474643 	svcpl	0x00474643
     d30:	30474552 	subcc	r4, r7, r2, asr r5
     d34:	00344630 	eorseq	r4, r4, r0, lsr r6
     d38:	43435f5f 	movtmi	r5, #16223	; 0x3f5f
     d3c:	445f554d 	ldrbmi	r5, [pc], #-1357	; d44 <mem_preload_tlb+0xe4>
     d40:	5f505349 	svcpl	0x00505349
     d44:	004b4c43 	subeq	r4, fp, r3, asr #24
     d48:	64656546 	strbtvs	r6, [r5], #-1350	; 0x546
     d4c:	6b636142 	blvs	18d925c <__bss_end+0x18d63d4>
     d50:	00766944 	rsbseq	r6, r6, r4, asr #18
     d54:	33697053 	cmncc	r9, #83	; 0x53
     d58:	635f5f00 	cmpvs	pc, #0
     d5c:	5f756d63 	svcpl	0x00756d63
     d60:	75646f6d 	strbvc	r6, [r4, #-3949]!	; 0xf6d
     d64:	5f30656c 	svcpl	0x0030656c
     d68:	5f6b6c63 	svcpl	0x006b6c63
     d6c:	6c500074 	mrrcvs	0, 7, r0, r0, cr4	; <UNPREDICTABLE>
     d70:	7443356c 	strbvc	r3, [r3], #-1388	; 0x56c
     d74:	5f5f006c 	svcpl	0x005f006c
     d78:	756d6363 	strbvc	r6, [sp, #-867]!	; 0x363
     d7c:	5f65765f 	svcpl	0x0065765f
     d80:	5f6b6c63 	svcpl	0x006b6c63
     d84:	30676572 	rsbcc	r6, r7, r2, ror r5
     d88:	5f633331 	svcpl	0x00633331
     d8c:	6c630074 	stclvs	0, cr0, [r3], #-464	; 0xfffffe30
     d90:	69645f6b 	stmdbvs	r4!, {r0, r1, r3, r5, r6, r8, r9, sl, fp, ip, lr}^
     d94:	00745f76 	rsbseq	r5, r4, r6, ror pc
     d98:	5f6b6c63 	svcpl	0x006b6c63
     d9c:	6373696d 	cmnvs	r3, #1785856	; 0x1b4000
     da0:	5f00745f 	svcpl	0x0000745f
     da4:	4d43435f 	stclmi	3, cr4, [r3, #-380]	; 0xfffffe84
     da8:	4c505f55 	mrrcmi	15, 5, r5, r0, cr5
     dac:	525f354c 	subspl	r3, pc, #318767104	; 0x13000000
     db0:	30304745 	eorscc	r4, r0, r5, asr #14
     db4:	53003032 	movwpl	r3, #50	; 0x32
     db8:	32766944 	rsbscc	r6, r6, #1114112	; 0x110000
     dbc:	4c4c5000 	marmi	acc0, r5, ip
     dc0:	5f006e45 	svcpl	0x00006e45
     dc4:	6d63635f 	stclvs	3, cr6, [r3, #-380]!	; 0xfffffe84
     dc8:	6c705f75 	ldclvs	15, cr5, [r0], #-468	; 0xfffffe2c
     dcc:	725f316c 	subsvc	r3, pc, #27
     dd0:	30306765 	eorscc	r6, r0, r5, ror #14
     dd4:	745f3030 	ldrbvc	r3, [pc], #-48	; ddc <enable_mmu+0x28>
     dd8:	435f5f00 	cmpmi	pc, #0
     ddc:	5f554d43 	svcpl	0x00554d43
     de0:	324c4c50 	subcc	r4, ip, #20480	; 0x5000
     de4:	4745525f 	smlsldmi	r5, r5, pc, r2	; <UNPREDICTABLE>
     de8:	38303030 	ldmdacc	r0!, {r4, r5, ip, sp}
     dec:	6c435000 	marvs	acc0, r5, r3
     df0:	7669446b 	strbtvc	r4, [r9], -fp, ror #8
     df4:	62744100 	rsbsvs	r4, r4, #0
     df8:	43627041 	cmnmi	r2, #65	; 0x41
     dfc:	69446b6c 	stmdbvs	r4, {r2, r3, r5, r6, r8, r9, fp, sp, lr}^
     e00:	666f0076 			; <UNDEFINED> instruction: 0x666f0076
     e04:	73007273 	movwvc	r7, #627	; 0x273
     e08:	705f7465 	subsvc	r7, pc, r5, ror #8
     e0c:	4d006c6c 	stcmi	12, cr6, [r0, #-432]	; 0xfffffe50
     e10:	43697069 	cmnmi	r9, #105	; 0x69
     e14:	41006973 	tstmi	r0, r3, ror r9
     e18:	52316270 	eorspl	r6, r1, #7
     e1c:	74657365 	strbtvc	r7, [r5], #-869	; 0x365
     e20:	6f644c00 	svcvs	0x00644c00
     e24:	006e4531 	rsbeq	r4, lr, r1, lsr r5
     e28:	65736572 	ldrbvs	r6, [r3, #-1394]!	; 0x572
     e2c:	64657672 	strbtvs	r7, [r5], #-1650	; 0x672
     e30:	65720030 	ldrbvs	r0, [r2, #-48]!	; 0x30
     e34:	76726573 			; <UNDEFINED> instruction: 0x76726573
     e38:	00316465 	eorseq	r6, r1, r5, ror #8
     e3c:	65736572 	ldrbvs	r6, [r3, #-1394]!	; 0x572
     e40:	64657672 	strbtvs	r7, [r5], #-1650	; 0x672
     e44:	65720032 	ldrbvs	r0, [r2, #-50]!	; 0x32
     e48:	76726573 			; <UNDEFINED> instruction: 0x76726573
     e4c:	00336465 	eorseq	r6, r3, r5, ror #8
     e50:	65736572 	ldrbvs	r6, [r3, #-1394]!	; 0x572
     e54:	64657672 	strbtvs	r7, [r5], #-1650	; 0x672
     e58:	65720034 	ldrbvs	r0, [r2, #-52]!	; 0x34
     e5c:	76726573 			; <UNDEFINED> instruction: 0x76726573
     e60:	00356465 	eorseq	r6, r5, r5, ror #8
     e64:	65736572 	ldrbvs	r6, [r3, #-1394]!	; 0x572
     e68:	64657672 	strbtvs	r7, [r5], #-1650	; 0x672
     e6c:	65720036 	ldrbvs	r0, [r2, #-54]!	; 0x36
     e70:	76726573 			; <UNDEFINED> instruction: 0x76726573
     e74:	00376465 	eorseq	r6, r7, r5, ror #8
     e78:	65736572 	ldrbvs	r6, [r3, #-1394]!	; 0x572
     e7c:	64657672 	strbtvs	r7, [r5], #-1650	; 0x672
     e80:	65720038 	ldrbvs	r0, [r2, #-56]!	; 0x38
     e84:	76726573 			; <UNDEFINED> instruction: 0x76726573
     e88:	00396465 	eorseq	r6, r9, r5, ror #8
     e8c:	43435f5f 	movtmi	r5, #16223	; 0x3f5f
     e90:	4d5f554d 	cfldr64mi	mvdx5, [pc, #-308]	; d64 <mem_preload_tlb+0x104>
     e94:	4c55444f 	cfldrdmi	mvd4, [r5], {79}	; 0x4f
     e98:	4c435f45 	mcrrmi	15, 4, r5, r3, cr5
     e9c:	6163004b 	cmnvs	r3, fp, asr #32
     ea0:	43007263 	movwmi	r7, #611	; 0x263
     ea4:	00306973 	eorseq	r6, r0, r3, ror r9
     ea8:	31697343 	cmncc	r9, r3, asr #6
     eac:	61724600 	cmnvs	r2, r0, lsl #12
     eb0:	646f4d63 	strbtvs	r4, [pc], #-3427	; eb8 <jump_to_resume0_nommu+0x78>
     eb4:	435f5f00 	cmpmi	pc, #0
     eb8:	5f554d43 	svcpl	0x00554d43
     ebc:	43535953 	cmpmi	r3, #1359872	; 0x14c000
     ec0:	525f4b4c 	subspl	r4, pc, #77824	; 0x13000
     ec4:	4f495441 	svcmi	0x00495441
     ec8:	4745525f 	smlsldmi	r5, r5, pc, r2	; <UNPREDICTABLE>
     ecc:	30353030 	eorscc	r3, r5, r0, lsr r0
     ed0:	54734800 	ldrbtpl	r4, [r3], #-2048	; 0x800
     ed4:	5300726d 	movwpl	r7, #621	; 0x26d
     ed8:	4c6e6970 	stclmi	9, cr6, [lr], #-448	; 0xfffffe40
     edc:	006b636f 	rsbeq	r6, fp, pc, ror #6
     ee0:	5f627474 	svcpl	0x00627474
     ee4:	69007230 	stmdbvs	r0, {r4, r5, r9, ip, sp, lr}
     ee8:	00726365 	rsbseq	r6, r2, r5, ror #6
     eec:	30697053 	rsbcc	r7, r9, r3, asr r0
     ef0:	69705300 	ldmdbvs	r0!, {r8, r9, ip, lr}^
     ef4:	70530031 	subsvc	r0, r3, r1, lsr r0
     ef8:	74003269 	strvc	r3, [r0], #-617	; 0x269
     efc:	72636274 	rsbvc	r6, r3, #1073741831	; 0x40000007
     f00:	6c6c5000 	stclvs	0, cr5, [ip], #-0
     f04:	6c744337 	ldclvs	3, cr4, [r4], #-220	; 0xffffff24
     f08:	756d4300 	strbvc	r4, [sp, #-768]!	; 0x300
     f0c:	00676552 	rsbeq	r6, r7, r2, asr r5
     f10:	63635f5f 	cmnvs	r3, #380	; 0x17c
     f14:	705f756d 	subsvc	r7, pc, sp, ror #10
     f18:	6f6c6c6c 	svcvs	0x006c6c6c
     f1c:	725f6b63 	subsvc	r6, pc, #101376	; 0x18c00
     f20:	32306765 	eorscc	r6, r0, #26476544	; 0x1940000
     f24:	745f3030 	ldrbvc	r3, [pc], #-48	; f2c <__save_processor_state+0x2c>
     f28:	61724600 	cmnvs	r2, r0, lsl #12
     f2c:	646f4d63 	strbtvs	r4, [pc], #-3427	; f34 <__save_processor_state+0x34>
     f30:	61550065 	cmpvs	r5, r5, rrx
     f34:	00317472 	eorseq	r7, r1, r2, ror r4
     f38:	7272726e 	rsbsvc	r7, r2, #-536870906	; 0xe0000006
     f3c:	72615500 	rsbvc	r5, r1, #0
     f40:	64003274 	strvs	r3, [r0], #-628	; 0x274
     f44:	7261665f 	rsbvc	r6, r1, #99614720	; 0x5f00000
     f48:	6d656d00 	stclvs	13, cr6, [r5, #-0]
     f4c:	7261705f 	rsbvc	r7, r1, #95	; 0x5f
     f50:	6e695f61 	cdpvs	15, 6, cr5, cr9, cr1, {3}
     f54:	5f006f66 	svcpl	0x00006f66
     f58:	6d63635f 	stclvs	3, cr6, [r3, #-380]!	; 0xfffffe84
     f5c:	65725f75 	ldrbvs	r5, [r2, #-3957]!	; 0xf75
     f60:	696c5f67 	stmdbvs	ip!, {r0, r1, r2, r5, r6, r8, r9, sl, fp, ip, lr}^
     f64:	745f7473 	ldrbvc	r7, [pc], #-1139	; f6c <__save_processor_state+0x6c>
     f68:	62684100 	rsbvs	r4, r8, #0
     f6c:	6b6c4331 	blvs	1b11c38 <__bss_end+0x1b0edb0>
     f70:	00637253 	rsbeq	r7, r3, r3, asr r2
     f74:	5f737973 	svcpl	0x00737973
     f78:	6e657665 	cdpvs	6, 6, cr7, cr5, cr5, {3}
     f7c:	6c700074 	ldclvs	0, cr0, [r0], #-464	; 0xfffffe30
     f80:	625f366c 	subsvs	r3, pc, #113246208	; 0x6c00000
     f84:	00736169 	rsbseq	r6, r3, r9, ror #2
     f88:	326c6c50 	rsbcc	r6, ip, #20480	; 0x5000
     f8c:	64504d34 	ldrbvs	r4, [r0], #-3380	; 0xd34
     f90:	44007669 	strmi	r7, [r0], #-1641	; 0x669
     f94:	436d6172 	cmnmi	sp, #-2147483620	; 0x8000001c
     f98:	69006766 	stmdbvs	r0, {r1, r2, r5, r6, r8, r9, sl, sp, lr}
     f9c:	00727365 	rsbseq	r7, r2, r5, ror #6
     fa0:	30766944 	rsbscc	r6, r6, r4, asr #18
     fa4:	5f5f004d 	svcpl	0x005f004d
     fa8:	756d6363 	strbvc	r6, [sp, #-867]!	; 0x363
     fac:	6268615f 	rsbvs	r6, r8, #-1073741801	; 0xc0000017
     fb0:	61725f31 	cmnvs	r2, r1, lsr pc
     fb4:	5f6f6974 	svcpl	0x006f6974
     fb8:	30676572 	rsbcc	r6, r7, r2, ror r5
     fbc:	5f343530 	svcpl	0x00343530
     fc0:	6c700074 	ldclvs	0, cr0, [r0], #-464	; 0xfffffe30
     fc4:	625f316c 	subsvs	r3, pc, #27
     fc8:	00736169 	rsbseq	r6, r3, r9, ror #2
     fcc:	50627355 	rsbpl	r7, r2, r5, asr r3
     fd0:	52317968 	eorspl	r7, r1, #1703936	; 0x1a0000
     fd4:	74007473 	strvc	r7, [r0], #-1139	; 0x473
     fd8:	315f6274 	cmpcc	pc, r4, ror r2	; <UNPREDICTABLE>
     fdc:	70430072 	subvc	r0, r3, r2, ror r0
     fe0:	6b6c4375 	blvs	1b11dbc <__bss_end+0x1b0ef34>
     fe4:	00637253 	rsbeq	r7, r3, r3, asr r2
     fe8:	63635f5f 	cmnvs	r3, #380	; 0x17c
     fec:	6d5f756d 	cfldr64vs	mvdx7, [pc, #-436]	; e40 <jump_to_resume0_nommu>
     ff0:	61696465 	cmnvs	r9, r5, ror #8
     ff4:	6c6c705f 	stclvs	0, cr7, [ip], #-380	; 0xfffffe84
     ff8:	5000745f 	andpl	r7, r0, pc, asr r4
     ffc:	54535f4d 	ldrbpl	r5, [r3], #-3917	; 0xf4d
    1000:	42444e41 	submi	r4, r4, #1040	; 0x410
    1004:	52505f59 	subspl	r5, r0, #356	; 0x164
    1008:	5f544e49 	svcpl	0x00544e49
    100c:	48434143 	stmdami	r3, {r0, r1, r6, r8, lr}^
    1010:	4c545f45 	mrrcmi	15, 4, r5, r4, cr5
    1014:	494d5f42 	stmdbmi	sp, {r1, r6, r8, r9, sl, fp, ip, lr}^
    1018:	73005353 	movwvc	r5, #851	; 0x353
    101c:	64657661 	strbtvs	r7, [r5], #-1633	; 0x661
    1020:	7570635f 	ldrbvc	r6, [r0, #-863]!	; 0x35f
    1024:	6e6f635f 	mcrvs	3, 3, r6, cr15, cr15, {2}
    1028:	74786574 	ldrbtvc	r6, [r8], #-1396	; 0x574
    102c:	435f5f00 	cmpmi	pc, #0
    1030:	5f554d43 	svcpl	0x00554d43
    1034:	32425041 	subcc	r5, r2, #65	; 0x41
    1038:	5441525f 	strbpl	r5, [r1], #-607	; 0x25f
    103c:	525f4f49 	subspl	r4, pc, #292	; 0x124
    1040:	30304745 	eorscc	r4, r0, r5, asr #14
    1044:	4c003835 	stcmi	8, cr3, [r0], {53}	; 0x35
    1048:	00736476 	rsbseq	r6, r3, r6, ror r4
    104c:	31796850 	cmncc	r9, r0, asr r8
    1050:	65746147 	ldrbvs	r6, [r4, #-327]!	; 0x147
    1054:	69784100 	ldmdbvs	r8!, {r8, lr}^
    1058:	65746147 	ldrbvs	r6, [r4, #-327]!	; 0x147
    105c:	75706300 	ldrbvc	r6, [r0, #-768]!	; 0x300
    1060:	0064695f 	rsbeq	r6, r4, pc, asr r9
    1064:	366c6c50 			; <UNDEFINED> instruction: 0x366c6c50
    1068:	006c7443 	rsbeq	r7, ip, r3, asr #8
    106c:	535f4d50 	cmppl	pc, #5120	; 0x1400
    1070:	444e4154 	strbmi	r4, [lr], #-340	; 0x154
    1074:	455f5942 	ldrbmi	r5, [pc, #-2370]	; 73a <change_runtime_env+0x1e>
    1078:	4c42414e 	stfmie	f4, [r2], {78}	; 0x4e
    107c:	544a5f45 	strbpl	r5, [sl], #-3909	; 0xf45
    1080:	5f004741 	svcpl	0x00004741
    1084:	4d43435f 	stclmi	3, cr4, [r3, #-380]	; 0xfffffe84
    1088:	58415f55 	stmdapl	r1, {r0, r2, r4, r6, r8, r9, sl, fp, ip, lr}^
    108c:	41475f49 	cmpmi	r7, r9, asr #30
    1090:	525f4554 	subspl	r4, pc, #352321536	; 0x15000000
    1094:	30304745 	eorscc	r4, r0, r5, asr #14
    1098:	4c006335 	stcmi	3, cr6, [r0], {53}	; 0x35
    109c:	546b636f 	strbtpl	r6, [fp], #-879	; 0x36f
    10a0:	00656d69 	rsbeq	r6, r5, r9, ror #26
    10a4:	31626841 	cmncc	r2, r1, asr #16
    10a8:	44657250 	strbtmi	r7, [r5], #-592	; 0x250
    10ac:	5f007669 	svcpl	0x00007669
    10b0:	4d43435f 	stclmi	3, cr4, [r3, #-380]	; 0xfffffe84
    10b4:	45565f55 	ldrbmi	r5, [r6, #-3925]	; 0xf55
    10b8:	4b4c435f 	blmi	1311e3c <__bss_end+0x130efb4>
    10bc:	4745525f 	smlsldmi	r5, r5, pc, r2	; <UNPREDICTABLE>
    10c0:	43333130 	teqmi	r3, #12
    10c4:	73324900 	teqvc	r2, #0
    10c8:	65720030 	ldrbvs	r0, [r2, #-48]!	; 0x30
    10cc:	76726573 			; <UNDEFINED> instruction: 0x76726573
    10d0:	30326465 	eorscc	r6, r2, r5, ror #8
    10d4:	65720031 	ldrbvs	r0, [r2, #-49]!	; 0x31
    10d8:	76726573 			; <UNDEFINED> instruction: 0x76726573
    10dc:	41006465 	tstmi	r0, r5, ror #8
    10e0:	6c434958 	mcrrvs	9, 5, r4, r3, cr8
    10e4:	7669446b 	strbtvc	r4, [r9], -fp, ror #8
    10e8:	62704100 	rsbsvs	r4, r0, #0
    10ec:	74614731 	strbtvc	r4, [r1], #-1841	; 0x731
    10f0:	73630065 	cmnvc	r3, #101	; 0x65
    10f4:	50007273 	andpl	r7, r0, r3, ror r2
    10f8:	54535f4d 	ldrbpl	r5, [r3], #-3917	; 0xf4d
    10fc:	42444e41 	submi	r4, r4, #1040	; 0x410
    1100:	52505f59 	subspl	r5, r0, #356	; 0x164
    1104:	5f544e49 	svcpl	0x00544e49
    1108:	53555043 	cmppl	r5, #67	; 0x43
    110c:	5f4f495f 	svcpl	0x004f495f
    1110:	54415453 	strbpl	r5, [r1], #-1107	; 0x453
    1114:	47005355 	smlsdmi	r0, r5, r3, r5
    1118:	00746970 	rsbseq	r6, r4, r0, ror r9
    111c:	43435f5f 	movtmi	r5, #16223	; 0x3f5f
    1120:	505f554d 	subspl	r5, pc, sp, asr #10
    1124:	5f364c4c 	svcpl	0x00364c4c
    1128:	30474552 	subcc	r4, r7, r2, asr r5
    112c:	00383230 	eorseq	r3, r8, r0, lsr r2
    1130:	70746f70 	rsbsvc	r6, r4, r0, ror pc
    1134:	5f006469 	svcpl	0x00006469
    1138:	4d43435f 	stclmi	3, cr4, [r3, #-380]	; 0xfffffe84
    113c:	45525f55 	ldrbmi	r5, [r2, #-3925]	; 0xf55
    1140:	494c5f47 	stmdbmi	ip, {r0, r1, r2, r6, r8, r9, sl, fp, ip, lr}^
    1144:	50005453 	andpl	r5, r0, r3, asr r4
    1148:	54535f4d 	ldrbpl	r5, [r3], #-3917	; 0xf4d
    114c:	42444e41 	submi	r4, r4, #1040	; 0x410
    1150:	52505f59 	subspl	r5, r0, #356	; 0x164
    1154:	5f544e49 	svcpl	0x00544e49
    1158:	55534552 	ldrbpl	r4, [r3, #-1362]	; 0x552
    115c:	4f00454d 	svcmi	0x0000454d
    1160:	32696368 	rsbcc	r6, r9, #-1610612735	; 0xa0000001
    1164:	65746147 	ldrbvs	r6, [r4, #-327]!	; 0x147
    1168:	636d7000 	cmnvs	sp, #0
    116c:	746e756f 	strbtvc	r7, [lr], #-1391	; 0x56f
    1170:	61730072 	cmnvs	r3, r2, ror r0
    1174:	5f646576 	svcpl	0x00646576
    1178:	746e6f63 	strbtvc	r6, [lr], #-3939	; 0xf63
    117c:	00747865 	rsbseq	r7, r4, r5, ror #16
    1180:	646e614e 	strbtvs	r6, [lr], #-334	; 0x14e
    1184:	614e0030 	cmpvs	lr, r0, lsr r0
    1188:	0031646e 	eorseq	r6, r1, lr, ror #8
    118c:	63635f5f 	cmnvs	r3, #380	; 0x17c
    1190:	6d5f756d 	cfldr64vs	mvdx7, [pc, #-436]	; fe4 <__save_processor_state+0xe4>
    1194:	6c75646f 	cfldrdvs	mvd6, [r5], #-444	; 0xfffffe44
    1198:	6c635f65 	stclvs	15, cr5, [r3], #-404	; 0xfffffe6c
    119c:	00745f6b 	rsbseq	r5, r4, fp, ror #30
    11a0:	63635f5f 	cmnvs	r3, #380	; 0x17c
    11a4:	685f756d 	ldmdavs	pc, {r0, r2, r3, r5, r6, r8, sl, ip, sp, lr}^	; <UNPREDICTABLE>
    11a8:	5f696d64 	svcpl	0x00696d64
    11ac:	5f6b6c63 	svcpl	0x006b6c63
    11b0:	30676572 	rsbcc	r6, r7, r2, ror r5
    11b4:	5f303531 	svcpl	0x00303531
    11b8:	77610074 			; <UNDEFINED> instruction: 0x77610074
    11bc:	6d656d5f 	stclvs	13, cr6, [r5, #-380]!	; 0xfffffe84
    11c0:	7261705f 	rsbvc	r7, r1, #95	; 0x5f
    11c4:	6c430061 	mcrrvs	0, 6, r0, r3, cr1
    11c8:	006e456b 	rsbeq	r4, lr, fp, ror #10
    11cc:	72727270 	rsbsvc	r7, r2, #7
    11d0:	75706300 	ldrbvc	r6, [r0, #-768]!	; 0x300
    11d4:	70675f73 	rsbvc	r5, r7, r3, ror pc
    11d8:	775f6f69 	ldrbvc	r6, [pc, -r9, ror #30]
    11dc:	75656b61 	strbvc	r6, [r5, #-2913]!	; 0xb61
    11e0:	6c500070 	mrrcvs	0, 7, r0, r0, cr0	; <UNPREDICTABLE>
    11e4:	7443396c 	strbvc	r3, [r3], #-2412	; 0x96c
    11e8:	7073006c 	rsbsvc	r0, r3, ip, rrx
    11ec:	6361625f 	cmnvs	r1, #-268435451	; 0xf0000005
    11f0:	0070756b 	rsbseq	r7, r0, fp, ror #10
    11f4:	61746164 	cmnvs	r4, r4, ror #2
    11f8:	76617300 	strbtvc	r7, [r1], -r0, lsl #6
    11fc:	656d5f65 	strbvs	r5, [sp, #-3941]!	; 0xf65
    1200:	74735f6d 	ldrbtvc	r5, [r3], #-3949	; 0xf6d
    1204:	73757461 	cmnvc	r5, #1627389952	; 0x61000000
    1208:	6d6f6e5f 	stclvs	14, cr6, [pc, #-380]!	; 1094 <__restore_processor_state+0x88>
    120c:	6900756d 	stmdbvs	r0, {r0, r2, r3, r5, r6, r8, sl, ip, sp, lr}
    1210:	6e695f6f 	cdpvs	15, 6, cr5, cr9, cr15, {3}
    1214:	6c5f7469 	cfldrdvs	mvd7, [pc], {105}	; 0x69
    1218:	6600776f 	strvs	r7, [r0], -pc, ror #14
    121c:	5f656b61 	svcpl	0x00656b61
    1220:	79737562 	ldmdbvc	r3!, {r1, r5, r6, r8, sl, ip, sp, lr}^
    1224:	6961775f 	stmdbvs	r1!, {r0, r1, r2, r3, r4, r6, r8, r9, sl, ip, sp, lr}^
    1228:	676e6974 			; <UNDEFINED> instruction: 0x676e6974
    122c:	2e2f2e00 	cdpcs	14, 2, cr2, cr15, cr0, {0}
    1230:	6d702f2e 	ldclvs	15, cr2, [r0, #-184]!	; 0xffffff48
    1234:	6265645f 	rsbvs	r6, r5, #1593835520	; 0x5f000000
    1238:	632e6775 	teqvs	lr, #30670848	; 0x1d40000
    123c:	76617300 	strbtvc	r7, [r1], -r0, lsl #6
    1240:	70635f65 	rsbvc	r5, r3, r5, ror #30
    1244:	6d5f7875 	ldclvs	8, cr7, [pc, #-468]	; 1078 <__restore_processor_state+0x6c>
    1248:	735f6d65 	cmpvc	pc, #6464	; 0x1940
    124c:	75746174 	ldrbvc	r6, [r4, #-372]!	; 0x174
    1250:	6f6e5f73 	svcvs	0x006e5f73
    1254:	00756d6d 	rsbseq	r6, r5, sp, ror #26
    1258:	695f6f69 	ldmdbvs	pc, {r0, r3, r5, r6, r8, r9, sl, fp, sp, lr}^	; <UNPREDICTABLE>
    125c:	5f74696e 	svcpl	0x0074696e
    1260:	68676968 	stmdavs	r7!, {r3, r5, r6, r8, fp, sp, lr}^
    1264:	69727000 	ldmdbvs	r2!, {ip, sp, lr}^
    1268:	665f746e 	ldrbvs	r7, [pc], -lr, ror #8
    126c:	0067616c 	rsbeq	r6, r7, ip, ror #2
    1270:	65766173 	ldrbvs	r6, [r6, #-371]!	; 0x173
    1274:	6d656d5f 	stclvs	13, cr6, [r5, #-380]!	; 0xfffffe84
    1278:	6174735f 	cmnvs	r4, pc, asr r3
    127c:	00737574 	rsbseq	r7, r3, r4, ror r5
    1280:	65766173 	ldrbvs	r6, [r6, #-371]!	; 0x173
    1284:	6d656d5f 	stclvs	13, cr6, [r5, #-380]!	; 0xfffffe84
    1288:	616c665f 	cmnvs	ip, pc, asr r6
    128c:	65670067 	strbvs	r0, [r7, #-103]!	; 0x67
    1290:	656d5f74 	strbvs	r5, [sp, #-3956]!	; 0xf74
    1294:	74735f6d 	ldrbtvc	r5, [r3], #-3949	; 0xf6d
    1298:	73757461 	cmnvc	r5, #1627389952	; 0x61000000
    129c:	5f6f6900 	svcpl	0x006f6900
    12a0:	74696e69 	strbtvc	r6, [r9], #-3689	; 0xe69
    12a4:	6f6f6c00 	svcvs	0x006f6c00
    12a8:	6c665f70 	stclvs	15, cr5, [r6], #-448	; 0xfffffe40
    12ac:	63006761 	movwvs	r6, #1889	; 0x761
    12b0:	7261656c 	rsbvc	r6, r1, #452984832	; 0x1b000000
    12b4:	6d656d5f 	stclvs	13, cr6, [r5, #-380]!	; 0xfffffe84
    12b8:	616c665f 	cmnvs	ip, pc, asr r6
    12bc:	6f690067 	svcvs	0x00690067
    12c0:	6769685f 			; <UNDEFINED> instruction: 0x6769685f
    12c4:	61620068 	cmnvs	r2, r8, rrx
    12c8:	70756b63 	rsbsvc	r6, r5, r3, ror #22
    12cc:	7265705f 	rsbvc	r7, r5, #95	; 0x5f
    12d0:	756f6366 	strbvc	r6, [pc, #-870]!	; f72 <__save_processor_state+0x72>
    12d4:	7265746e 	rsbvc	r7, r5, #1845493760	; 0x6e000000
    12d8:	435f4900 	cmpmi	pc, #0
    12dc:	45484341 	strbmi	r4, [r8, #-833]	; 0x341
    12e0:	53494d5f 	movtpl	r4, #40287	; 0x9d5f
    12e4:	76650053 			; <UNDEFINED> instruction: 0x76650053
    12e8:	5f746e65 	svcpl	0x00746e65
    12ec:	00746e63 	rsbseq	r6, r4, r3, ror #28
    12f0:	6b636162 	blvs	18d9880 <__bss_end+0x18d69f8>
    12f4:	705f7075 	subsvc	r7, pc, r5, ror r0	; <UNPREDICTABLE>
    12f8:	5f667265 	svcpl	0x00667265
    12fc:	6e756f63 	cdpvs	15, 7, cr6, cr5, cr3, {3}
    1300:	5f726574 	svcpl	0x00726574
    1304:	62616e65 	rsbvs	r6, r1, #1616	; 0x650
    1308:	725f656c 	subsvc	r6, pc, #452984832	; 0x1b000000
    130c:	49006765 	stmdbmi	r0, {r0, r2, r5, r6, r8, r9, sl, sp, lr}
    1310:	424c545f 	submi	r5, ip, #1593835520	; 0x5f000000
    1314:	53494d5f 	movtpl	r4, #40287	; 0x9d5f
    1318:	61740053 	cmnvs	r4, r3, asr r0
    131c:	74656772 	strbtvc	r6, [r5], #-1906	; 0x772
    1320:	73657200 	cmnvc	r5, #0
    1324:	635f7465 	cmpvs	pc, #1694498816	; 0x65000000
    1328:	746e756f 	strbtvc	r7, [lr], #-1391	; 0x56f
    132c:	72007265 	andvc	r7, r0, #1342177286	; 0x50000006
    1330:	765f6765 	ldrbvc	r6, [pc], -r5, ror #14
    1334:	64006c61 	strvs	r6, [r0], #-3169	; 0xc61
    1338:	79616c65 	stmdbvc	r1!, {r0, r2, r5, r6, sl, fp, sp, lr}^
    133c:	0073755f 	rsbseq	r7, r3, pc, asr r5
    1340:	74636166 	strbtvc	r6, [r3], #-358	; 0x166
    1344:	6b5f726f 	blvs	17ddd08 <__bss_end+0x17dae80>
    1348:	63616600 	cmnvs	r1, #0
    134c:	5f726f74 	svcpl	0x00726f74
    1350:	6166006d 	cmnvs	r6, sp, rrx
    1354:	726f7463 	rsbvc	r7, pc, #1660944384	; 0x63000000
    1358:	63006e5f 	movwvs	r6, #3679	; 0xe5f
    135c:	665f7570 			; <UNDEFINED> instruction: 0x665f7570
    1360:	00716572 	rsbseq	r6, r1, r2, ror r5
    1364:	635f7375 	cmpvs	pc, #-738197503	; 0xd4000001
    1368:	6900746e 	stmdbvs	r0, {r1, r2, r3, r5, r6, sl, ip, sp, lr}
    136c:	5f74696e 	svcpl	0x0074696e
    1370:	66726570 			; <UNDEFINED> instruction: 0x66726570
    1374:	6e756f63 	cdpvs	15, 7, cr6, cr5, cr3, {3}
    1378:	73726574 	cmnvc	r2, #486539264	; 0x1d000000
    137c:	2e2f2e00 	cdpcs	14, 2, cr2, cr15, cr0, {0}
    1380:	656d2f2e 	strbvs	r2, [sp, #-3886]!	; 0xf2e
    1384:	69745f6d 	ldmdbvs	r4!, {r0, r2, r3, r5, r6, r8, r9, sl, fp, ip, lr}^
    1388:	676e696d 	strbvs	r6, [lr, -sp, ror #18]!
    138c:	6900632e 	stmdbvs	r0, {r1, r2, r3, r5, r8, r9, sp, lr}
    1390:	5f74696e 	svcpl	0x0074696e
    1394:	6e657665 	cdpvs	6, 6, cr7, cr5, cr5, {3}
    1398:	6f635f74 	svcvs	0x00635f74
    139c:	65746e75 	ldrbvs	r6, [r4, #-3701]!	; 0xe75
    13a0:	6e650072 	mcrvs	0, 3, r0, cr5, cr2, {3}
    13a4:	656c6261 	strbvs	r6, [ip, #-609]!	; 0x261
    13a8:	7669645f 			; <UNDEFINED> instruction: 0x7669645f
    13ac:	72656469 	rsbvc	r6, r5, #1761607680	; 0x69000000
    13b0:	61686300 	cmnvs	r8, r0, lsl #6
    13b4:	5f65676e 	svcpl	0x0065676e
    13b8:	746e7572 	strbtvc	r7, [lr], #-1394	; 0x572
    13bc:	5f656d69 	svcpl	0x00656d69
    13c0:	00766e65 	rsbseq	r6, r6, r5, ror #28
    13c4:	7265766f 	rsbvc	r7, r5, #116391936	; 0x6f00000
    13c8:	64616568 	strbtvs	r6, [r1], #-1384	; 0x568
    13cc:	756d6300 	strbvc	r6, [sp, #-768]!	; 0x300
    13d0:	6765725f 			; <UNDEFINED> instruction: 0x6765725f
    13d4:	74656700 	strbtvc	r6, [r5], #-1792	; 0x700
    13d8:	6379635f 	cmnvs	r9, #2080374785	; 0x7c000001
    13dc:	6f63656c 	svcvs	0x0063656c
    13e0:	00746e75 	rsbseq	r6, r4, r5, ror lr
    13e4:	5f756d6d 	svcpl	0x00756d6d
    13e8:	67616c66 	strbvs	r6, [r1, -r6, ror #24]!
    13ec:	70797400 	rsbsvc	r7, r9, r0, lsl #8
    13f0:	6f640065 	svcvs	0x00640065
    13f4:	7365725f 	cmnvc	r5, #-268435451	; 0xf0000005
    13f8:	63007465 	movwvs	r7, #1125	; 0x465
    13fc:	7265746e 	rsbvc	r7, r5, #1845493760	; 0x6e000000
    1400:	74657300 	strbtvc	r7, [r5], #-768	; 0x300
    1404:	6576655f 	ldrbvs	r6, [r6, #-1375]!	; 0x55f
    1408:	635f746e 	cmpvs	pc, #1845493760	; 0x6e000000
    140c:	746e756f 	strbtvc	r7, [lr], #-1391	; 0x56f
    1410:	6d007265 	sfmvs	f7, 4, [r0, #-404]	; 0xfffffe6c
    1414:	68637461 	stmdavs	r3!, {r0, r5, r6, sl, ip, sp, lr}^
    1418:	6576655f 	ldrbvs	r6, [r6, #-1375]!	; 0x55f
    141c:	635f746e 	cmpvs	pc, #1845493760	; 0x6e000000
    1420:	746e756f 	strbtvc	r7, [lr], #-1391	; 0x56f
    1424:	44007265 	strmi	r7, [r0], #-613	; 0x265
    1428:	4341435f 	movtmi	r4, #4959	; 0x135f
    142c:	4d5f4548 	cfldr64mi	mvdx4, [pc, #-288]	; 1314 <serial_init_nommu+0x24>
    1430:	00535349 	subseq	r5, r3, r9, asr #6
    1434:	4c545f44 	mrrcmi	15, 4, r5, r4, cr4
    1438:	494d5f42 	stmdbmi	sp, {r1, r6, r8, r9, sl, fp, ip, lr}^
    143c:	62005353 	andvs	r5, r0, #1275068417	; 0x4c000001
    1440:	756b6361 	strbvc	r6, [fp, #-865]!	; 0x361
    1444:	65705f70 	ldrbvs	r5, [r0, #-3952]!	; 0xf70
    1448:	635f6672 	cmpvs	pc, #119537664	; 0x7200000
    144c:	746e756f 	strbtvc	r7, [lr], #-1391	; 0x56f
    1450:	635f7265 	cmpvs	pc, #1342177286	; 0x50000006
    1454:	5f6c7274 	svcpl	0x006c7274
    1458:	00676572 	rsbeq	r6, r7, r2, ror r5
    145c:	74736572 	ldrbtvc	r6, [r3], #-1394	; 0x572
    1460:	5f65726f 	svcpl	0x0065726f
    1464:	66726570 			; <UNDEFINED> instruction: 0x66726570
    1468:	6e756f63 	cdpvs	15, 7, cr6, cr5, cr3, {3}
    146c:	00726574 	rsbseq	r6, r2, r4, ror r5
    1470:	5f746567 	svcpl	0x00746567
    1474:	6e657665 	cdpvs	6, 6, cr7, cr5, cr5, {3}
    1478:	6f635f74 	svcvs	0x00635f74
    147c:	65746e75 	ldrbvs	r6, [r4, #-3701]!	; 0xe75
    1480:	6f630072 	svcvs	0x00630072
    1484:	65746e75 	ldrbvs	r6, [r4, #-3701]!	; 0xe75
    1488:	79745f72 	ldmdbvc	r4!, {r1, r4, r5, r6, r8, r9, sl, fp, ip, lr}^
    148c:	655f6570 	ldrbvs	r6, [pc, #-1392]	; f24 <__save_processor_state+0x24>
    1490:	73657200 	cmnvc	r5, #0
    1494:	65726f74 	ldrbvs	r6, [r2, #-3956]!	; 0xf74
    1498:	756d6d5f 	strbvc	r6, [sp, #-3423]!	; 0xd5f
    149c:	6174735f 	cmnvs	r4, pc, asr r3
    14a0:	73006574 	movwvc	r6, #1396	; 0x574
    14a4:	5f657661 	svcpl	0x00657661
    14a8:	5f756d6d 	svcpl	0x00756d6d
    14ac:	74617473 	strbtvc	r7, [r1], #-1139	; 0x473
    14b0:	2f2e0065 	svccs	0x002e0065
    14b4:	6d2f2e2e 	stcvs	14, cr2, [pc, #-184]!	; 1404 <serial_puts_nommu+0x74>
    14b8:	6d5f6d65 	ldclvs	13, cr6, [pc, #-404]	; 132c <serial_init_nommu+0x3c>
    14bc:	705f756d 	subsvc	r7, pc, sp, ror #10
    14c0:	00632e63 	rsbeq	r2, r3, r3, ror #28
    14c4:	5f746573 	svcpl	0x00746573
    14c8:	72706f63 	rsbsvc	r6, r0, #396	; 0x18c
    14cc:	65645f6f 	strbvs	r5, [r4, #-3951]!	; 0xf6f
    14d0:	6c756166 	ldfvse	f6, [r5], #-408	; 0xfffffe68
    14d4:	61730074 	cmnvs	r3, r4, ror r0
    14d8:	5f646576 	svcpl	0x00646576
    14dc:	72737073 	rsbsvc	r7, r3, #115	; 0x73
    14e0:	7462615f 	strbtvc	r6, [r2], #-351	; 0x15f
    14e4:	76617300 	strbtvc	r7, [r1], -r0, lsl #6
    14e8:	735f6465 	cmpvc	pc, #1694498816	; 0x65000000
    14ec:	5f727370 	svcpl	0x00727370
    14f0:	006e6f6d 	rsbeq	r6, lr, sp, ror #30
    14f4:	65766173 	ldrbvs	r6, [r6, #-371]!	; 0x173
    14f8:	6f635f64 	svcvs	0x00635f64
    14fc:	7865746e 	stmdavc	r5!, {r1, r2, r3, r5, r6, sl, ip, sp, lr}^
    1500:	31725f74 	cmncc	r2, r4, ror pc
    1504:	69665f33 	stmdbvs	r6!, {r0, r1, r4, r5, r8, r9, sl, fp, ip, lr}^
    1508:	61730071 	cmnvs	r3, r1, ror r0
    150c:	5f646576 	svcpl	0x00646576
    1510:	746e6f63 	strbtvc	r6, [lr], #-3939	; 0xf63
    1514:	5f747865 	svcpl	0x00747865
    1518:	5f333172 	svcpl	0x00333172
    151c:	00717269 	rsbseq	r7, r1, r9, ror #4
    1520:	74736572 	ldrbtvc	r6, [r3], #-1394	; 0x572
    1524:	5f65726f 	svcpl	0x0065726f
    1528:	636f7270 	cmnvs	pc, #7
    152c:	6f737365 	svcvs	0x00737365
    1530:	74745f72 	ldrbtvc	r5, [r4], #-3954	; 0xf72
    1534:	00307262 	eorseq	r7, r0, r2, ror #4
    1538:	65766173 	ldrbvs	r6, [r6, #-371]!	; 0x173
    153c:	70735f64 	rsbsvc	r5, r3, r4, ror #30
    1540:	735f7273 	cmpvc	pc, #805306375	; 0x30000007
    1544:	64006376 	strvs	r6, [r0], #-886	; 0x376
    1548:	62617369 	rsbvs	r7, r1, #-1543503871	; 0xa4000001
    154c:	635f656c 	cmpvs	pc, #452984832	; 0x1b000000
    1550:	65686361 	strbvs	r6, [r8, #-865]!	; 0x361
    1554:	766e695f 			; <UNDEFINED> instruction: 0x766e695f
    1558:	64696c61 	strbtvs	r6, [r9], #-3169	; 0xc61
    155c:	00657461 	rsbeq	r7, r5, r1, ror #8
    1560:	65725f5f 	ldrbvs	r5, [r2, #-3935]!	; 0xf5f
    1564:	726f7473 	rsbvc	r7, pc, #1929379840	; 0x73000000
    1568:	72705f65 	rsbsvc	r5, r0, #404	; 0x194
    156c:	7365636f 	cmnvc	r5, #-1140850687	; 0xbc000001
    1570:	5f726f73 	svcpl	0x00726f73
    1574:	74617473 	strbtvc	r7, [r1], #-1139	; 0x473
    1578:	61730065 	cmnvs	r3, r5, rrx
    157c:	5f646576 	svcpl	0x00646576
    1580:	72737073 	rsbsvc	r7, r3, #115	; 0x73
    1584:	7169665f 	cmnvc	r9, pc, asr r6
    1588:	78746300 	ldmdavc	r4!, {r8, r9, sp, lr}^
    158c:	61730074 	cmnvs	r3, r4, ror r0
    1590:	5f646576 	svcpl	0x00646576
    1594:	72737073 	rsbsvc	r7, r3, #115	; 0x73
    1598:	7172695f 	cmnvc	r2, pc, asr r9
    159c:	2e2f2e00 	cdpcs	14, 2, cr2, cr15, cr0, {0}
    15a0:	656d2f2e 	strbvs	r2, [sp, #-3886]!	; 0xf2e
    15a4:	70635f6d 	rsbvc	r5, r3, sp, ror #30
    15a8:	00632e75 	rsbeq	r2, r3, r5, ror lr
    15ac:	5f746573 	svcpl	0x00746573
    15b0:	72627474 	rsbvc	r7, r2, #1946157056	; 0x74000000
    15b4:	5f5f0030 	svcpl	0x005f0030
    15b8:	65766173 	ldrbvs	r6, [r6, #-371]!	; 0x173
    15bc:	6f72705f 	svcvs	0x0072705f
    15c0:	73736563 	cmnvc	r3, #415236096	; 0x18c00000
    15c4:	735f726f 	cmpvc	pc, #-268435450	; 0xf0000006
    15c8:	65746174 	ldrbvs	r6, [r4, #-372]!	; 0x174
    15cc:	76617300 	strbtvc	r7, [r1], -r0, lsl #6
    15d0:	635f6465 	cmpvs	pc, #1694498816	; 0x65000000
    15d4:	65746e6f 	ldrbvs	r6, [r4, #-3695]!	; 0xe6f
    15d8:	725f7478 	subsvc	r7, pc, #2013265920	; 0x78000000
    15dc:	755f3331 	ldrbvc	r3, [pc, #-817]	; 12b3 <set_serial_clk+0xd7>
    15e0:	7300646e 	movwvc	r6, #1134	; 0x46e
    15e4:	64657661 	strbtvs	r7, [r5], #-1633	; 0x661
    15e8:	6e6f635f 	mcrvs	3, 3, r6, cr15, cr15, {2}
    15ec:	74786574 	ldrbtvc	r6, [r8], #-1396	; 0x574
    15f0:	3231725f 	eorscc	r7, r1, #-268435451	; 0xf0000005
    15f4:	6376735f 	cmnvs	r6, #2080374785	; 0x7c000001
    15f8:	76617300 	strbtvc	r7, [r1], -r0, lsl #6
    15fc:	635f6465 	cmpvs	pc, #1694498816	; 0x65000000
    1600:	5f727370 	svcpl	0x00727370
    1604:	00637673 	rsbeq	r7, r3, r3, ror r6
    1608:	61666564 	cmnvs	r6, r4, ror #10
    160c:	5f746c75 	svcpl	0x00746c75
    1610:	72706f63 	rsbsvc	r6, r0, #396	; 0x18c
    1614:	61765f6f 	cmnvs	r6, pc, ror #30
    1618:	0065756c 	rsbeq	r7, r5, ip, ror #10
    161c:	65766173 	ldrbvs	r6, [r6, #-371]!	; 0x173
    1620:	70735f64 	rsbsvc	r5, r3, r4, ror #30
    1624:	755f7273 	ldrbvc	r7, [pc, #-627]	; 13b9 <serial_puts_nommu+0x29>
    1628:	7300646e 	movwvc	r6, #1134	; 0x46e
    162c:	64657661 	strbtvs	r7, [r5], #-1633	; 0x661
    1630:	6e6f635f 	mcrvs	3, 3, r6, cr15, cr15, {2}
    1634:	74786574 	ldrbtvc	r6, [r8], #-1396	; 0x574
    1638:	3331725f 	teqcc	r1, #-268435451	; 0xf0000005
    163c:	7462615f 	strbtvc	r6, [r2], #-351	; 0x15f
    1640:	76617300 	strbtvc	r7, [r1], -r0, lsl #6
    1644:	655f6465 	ldrbvs	r6, [pc, #-1125]	; 11e7 <set_serial_clk+0xb>
    1648:	7974706d 	ldmdbvc	r4!, {r0, r2, r3, r5, r6, ip, sp, lr}^
    164c:	6e6f635f 	mcrvs	3, 3, r6, cr15, cr15, {2}
    1650:	74786574 	ldrbtvc	r6, [r8], #-1396	; 0x574
    1654:	6376735f 	cmnvs	r6, #2080374785	; 0x7c000001
    1658:	76617300 	strbtvc	r7, [r1], -r0, lsl #6
    165c:	635f6465 	cmpvs	pc, #1694498816	; 0x65000000
    1660:	65746e6f 	ldrbvs	r6, [r4, #-3695]!	; 0xe6f
    1664:	725f7478 	subsvc	r7, pc, #2013265920	; 0x78000000
    1668:	735f3331 	cmpvc	pc, #-1006632960	; 0xc4000000
    166c:	73007379 	movwvc	r7, #889	; 0x379
    1670:	64657661 	strbtvs	r7, [r5], #-1633	; 0x661
    1674:	6e6f635f 	mcrvs	3, 3, r6, cr15, cr15, {2}
    1678:	74786574 	ldrbtvc	r6, [r8], #-1396	; 0x574
    167c:	3331725f 	teqcc	r1, #-268435451	; 0xf0000005
    1680:	6e6f6d5f 	mcrvs	13, 3, r6, cr15, cr15, {2}
    1684:	72657300 	rsbvc	r7, r5, #0
    1688:	5f6c6169 	svcpl	0x006c6169
    168c:	73747570 	cmnvc	r4, #469762048	; 0x1c000000
    1690:	6d6f6e5f 	stclvs	14, cr6, [pc, #-380]!	; 151c <serial_init+0x70>
    1694:	7300756d 	movwvc	r7, #1389	; 0x56d
    1698:	735f7465 	cmpvc	pc, #1694498816	; 0x65000000
    169c:	61697265 	cmnvs	r9, r5, ror #4
    16a0:	6c635f6c 	stclvs	15, cr5, [r3], #-432	; 0xfffffe50
    16a4:	6573006b 	ldrbvs	r0, [r3, #-107]!	; 0x6b
    16a8:	6c616972 	stclvs	9, cr6, [r1], #-456	; 0xfffffe38
    16ac:	7475705f 	ldrbtvc	r7, [r5], #-95	; 0x5f
    16b0:	6168635f 	cmnvs	r8, pc, asr r3
    16b4:	65730072 	ldrbvs	r0, [r3, #-114]!	; 0x72
    16b8:	6c616972 	stclvs	9, cr6, [r1], #-456	; 0xfffffe38
    16bc:	7465675f 	strbtvc	r6, [r5], #-1887	; 0x75f
    16c0:	6168635f 	cmnvs	r8, pc, asr r3
    16c4:	6f6e5f72 	svcvs	0x006e5f72
    16c8:	00756d6d 	rsbseq	r6, r5, sp, ror #26
    16cc:	5f746573 	svcpl	0x00746573
    16d0:	69726573 	ldmdbvs	r2!, {r0, r1, r4, r5, r6, r8, sl, sp, lr}^
    16d4:	675f6c61 	ldrbvs	r6, [pc, -r1, ror #24]
    16d8:	006f6970 	rsbeq	r6, pc, r0, ror r9	; <UNPREDICTABLE>
    16dc:	69726573 	ldmdbvs	r2!, {r0, r1, r4, r5, r6, r8, sl, sp, lr}^
    16e0:	675f6c61 	ldrbvs	r6, [pc, -r1, ror #24]
    16e4:	00737465 	rsbseq	r7, r3, r5, ror #8
    16e8:	69726573 	ldmdbvs	r2!, {r0, r1, r4, r5, r6, r8, sl, sp, lr}^
    16ec:	695f6c61 	ldmdbvs	pc, {r0, r5, r6, sl, fp, sp, lr}^	; <UNPREDICTABLE>
    16f0:	0074696e 	rsbseq	r6, r4, lr, ror #18
    16f4:	656d6974 	strbvs	r6, [sp, #-2420]!	; 0x974
    16f8:	63616200 	cmnvs	r1, #0
    16fc:	5f70756b 	svcpl	0x0070756b
    1700:	6f697067 	svcvs	0x00697067
    1704:	7261755f 	rsbvc	r7, r1, #398458880	; 0x17c00000
    1708:	65730074 	ldrbvs	r0, [r3, #-116]!	; 0x74
    170c:	6c616972 	stclvs	9, cr6, [r1], #-456	; 0xfffffe38
    1710:	7465675f 	strbtvc	r6, [r5], #-1887	; 0x75f
    1714:	6168635f 	cmnvs	r8, pc, asr r3
    1718:	61620072 	smcvs	8194	; 0x2002
    171c:	70756b63 	rsbsvc	r6, r5, r3, ror #22
    1720:	7563635f 	strbvc	r6, [r3, #-863]!	; 0x35f
    1724:	7261755f 	rsbvc	r7, r1, #398458880	; 0x17c00000
    1728:	65725f74 	ldrbvs	r5, [r2, #-3956]!	; 0xf74
    172c:	00746573 	rsbseq	r6, r4, r3, ror r5
    1730:	69726573 	ldmdbvs	r2!, {r0, r1, r4, r5, r6, r8, sl, sp, lr}^
    1734:	695f6c61 	ldmdbvs	pc, {r0, r5, r6, sl, fp, sp, lr}^	; <UNPREDICTABLE>
    1738:	5f74696e 	svcpl	0x0074696e
    173c:	6d6d6f6e 	stclvs	15, cr6, [sp, #-440]!	; 0xfffffe48
    1740:	32700075 	rsbscc	r0, r0, #117	; 0x75
    1744:	006b6c63 	rsbeq	r6, fp, r3, ror #24
    1748:	69726573 	ldmdbvs	r2!, {r0, r1, r4, r5, r6, r8, sl, sp, lr}^
    174c:	695f6c61 	ldmdbvs	pc, {r0, r5, r6, sl, fp, sp, lr}^	; <UNPREDICTABLE>
    1750:	6574696e 	ldrbvs	r6, [r4, #-2414]!	; 0x96e
    1754:	6c665f64 	stclvs	15, cr5, [r6], #-400	; 0xfffffe70
    1758:	73006761 	movwvc	r6, #1889	; 0x761
    175c:	665f6372 			; <UNDEFINED> instruction: 0x665f6372
    1760:	00716572 	rsbseq	r6, r1, r2, ror r5
    1764:	69726573 	ldmdbvs	r2!, {r0, r1, r4, r5, r6, r8, sl, sp, lr}^
    1768:	675f6c61 	ldrbvs	r6, [pc, -r1, ror #24]
    176c:	5f737465 	svcpl	0x00737465
    1770:	6d6d6f6e 	stclvs	15, cr6, [sp, #-440]!	; 0xfffffe48
    1774:	65730075 	ldrbvs	r0, [r3, #-117]!	; 0x75
    1778:	6c616972 	stclvs	9, cr6, [r1], #-456	; 0xfffffe38
    177c:	7475705f 	ldrbtvc	r7, [r5], #-95	; 0x5f
    1780:	63630073 	cmnvs	r3, #115	; 0x73
    1784:	65725f75 	ldrbvs	r5, [r2, #-3957]!	; 0xf75
    1788:	65730067 	ldrbvs	r0, [r3, #-103]!	; 0x67
    178c:	6c616972 	stclvs	9, cr6, [r1], #-456	; 0xfffffe38
    1790:	7475705f 	ldrbtvc	r7, [r5], #-95	; 0x5f
    1794:	6168635f 	cmnvs	r8, pc, asr r3
    1798:	6f6e5f72 	svcvs	0x006e5f72
    179c:	00756d6d 	rsbseq	r6, r5, sp, ror #26
    17a0:	74726f70 	ldrbtvc	r6, [r2], #-3952	; 0xf70
    17a4:	72657300 	rsbvc	r7, r5, #0
    17a8:	5f6c6169 	svcpl	0x006c6169
    17ac:	74697865 	strbtvc	r7, [r9], #-2149	; 0x865
    17b0:	63616200 	cmnvs	r1, #0
    17b4:	5f70756b 	svcpl	0x0070756b
    17b8:	5f756363 	svcpl	0x00756363
    17bc:	74726175 	ldrbtvc	r6, [r2], #-373	; 0x175
    17c0:	2e2f2e00 	cdpcs	14, 2, cr2, cr15, cr0, {0}
    17c4:	656d2f2e 	strbvs	r2, [sp, #-3886]!	; 0xf2e
    17c8:	65735f6d 	ldrbvs	r5, [r3, #-3949]!	; 0xf6d
    17cc:	6c616972 	stclvs	9, cr6, [r1], #-456	; 0xfffffe38
    17d0:	7000632e 	andvc	r6, r0, lr, lsr #6
    17d4:	00637273 	rsbeq	r7, r3, r3, ror r2
    17d8:	657a6973 	ldrbvs	r6, [sl, #-2419]!	; 0x973
    17dc:	6100745f 	tstvs	r0, pc, asr r4
    17e0:	00736772 	rsbseq	r6, r3, r2, ror r7
    17e4:	69676964 	stmdbvs	r7!, {r2, r5, r6, r8, fp, sp, lr}^
    17e8:	74735f74 	ldrbtvc	r5, [r3], #-3956	; 0xf74
    17ec:	676e6972 			; <UNDEFINED> instruction: 0x676e6972
    17f0:	61747300 	cmnvs	r4, r0, lsl #6
    17f4:	64006b63 	strvs	r6, [r0], #-2915	; 0xb63
    17f8:	67756265 	ldrbvs	r6, [r5, -r5, ror #4]!
    17fc:	5f726567 	svcpl	0x00726567
    1800:	66667562 	strbtvs	r7, [r6], -r2, ror #10
    1804:	5f007265 	svcpl	0x00007265
    1808:	756e675f 	strbvc	r6, [lr, #-1887]!	; 0x75f
    180c:	61765f63 	cmnvs	r6, r3, ror #30
    1810:	73696c5f 	cmnvc	r9, #24320	; 0x5f00
    1814:	5f5f0074 	svcpl	0x005f0074
    1818:	6c5f6176 	ldfvse	f6, [pc], {118}	; 0x76
    181c:	00747369 	rsbseq	r7, r4, r9, ror #6
    1820:	6e697270 	mcrvs	2, 3, r7, cr9, cr0, {3}
    1824:	6c615f74 	stclvs	15, cr5, [r1], #-464	; 0xfffffe30
    1828:	006e6769 	rsbeq	r6, lr, r9, ror #14
    182c:	63727473 	cmnvs	r2, #1929379840	; 0x73000000
    1830:	69007970 	stmdbvs	r0, {r4, r5, r6, r8, fp, ip, sp, lr}
    1834:	00616f74 	rsbeq	r6, r1, r4, ror pc
    1838:	63727473 	cmnvs	r2, #1929379840	; 0x73000000
    183c:	73007461 	movwvc	r7, #1121	; 0x461
    1840:	636e7274 	cmnvs	lr, #1073741831	; 0x40000007
    1844:	70007970 	andvc	r7, r0, r0, ror r9
    1848:	74736564 	ldrbtvc	r6, [r3], #-1380	; 0x564
    184c:	72747300 	rsbsvc	r7, r4, #0
    1850:	7461636e 	strbtvc	r6, [r1], #-878	; 0x36e
    1854:	726f6600 	rsbvc	r6, pc, #0
    1858:	0074616d 	rsbseq	r6, r4, sp, ror #2
    185c:	6c727473 	cfldrdvs	mvd7, [r2], #-460	; 0xfffffe34
    1860:	5f006e65 	svcpl	0x00006e65
    1864:	0070615f 	rsbseq	r6, r0, pc, asr r1
    1868:	6c6c6966 	stclvs	9, cr6, [ip], #-408	; 0xfffffe68
    186c:	0068635f 	rsbeq	r6, r8, pc, asr r3
    1870:	63727473 	cmnvs	r2, #1929379840	; 0x73000000
    1874:	7500706d 	strvc	r7, [r0, #-109]	; 0x6d
    1878:	00616f74 	rsbeq	r6, r1, r4, ror pc
    187c:	6e727473 	mrcvs	4, 3, r7, cr2, cr3, {3}
    1880:	00706d63 	rsbseq	r6, r0, r3, ror #26
    1884:	6e697270 	mcrvs	2, 3, r7, cr9, cr0, {3}
    1888:	72006b74 	andvc	r6, r0, #118784	; 0x1d000
    188c:	78696461 	stmdavc	r9!, {r0, r5, r6, sl, sp, lr}^
    1890:	2e2f2e00 	cdpcs	14, 2, cr2, cr15, cr0, {0}
    1894:	656d2f2e 	strbvs	r2, [sp, #-3886]!	; 0xf2e
    1898:	72705f6d 	rsbsvc	r5, r0, #436	; 0x1b4
    189c:	6b746e69 	blvs	1d1d248 <__bss_end+0x1d1a3c0>
    18a0:	7000632e 	andvc	r6, r0, lr, lsr #6
    18a4:	746e6972 	strbtvc	r6, [lr], #-2418	; 0x972
    18a8:	6f6e5f6b 	svcvs	0x006e5f6b
    18ac:	00756d6d 	rsbseq	r6, r5, sp, ror #26
    18b0:	6167656e 	cmnvs	r7, lr, ror #10
    18b4:	65766974 	ldrbvs	r6, [r6, #-2420]!	; 0x974
    18b8:	77617200 	strbvc	r7, [r1, -r0, lsl #4]!
    18bc:	62696c5f 	rsbvs	r6, r9, #24320	; 0x5f00
    18c0:	6964755f 	stmdbvs	r4!, {r0, r1, r2, r3, r4, r6, r8, sl, ip, sp, lr}^
    18c4:	5f5f0076 	svcpl	0x005f0076
    18c8:	30766964 	rsbscc	r6, r6, r4, ror #18
    18cc:	706d7400 	rsbvc	r7, sp, r0, lsl #8
    18d0:	746f7551 	strbtvc	r7, [pc], #-1361	; 18d8 <itoa+0x7c>
    18d4:	76696400 	strbtvc	r6, [r9], -r0, lsl #8
    18d8:	6f697369 	svcvs	0x00697369
    18dc:	2f2e0072 	svccs	0x002e0072
    18e0:	6d2f2e2e 	stcvs	14, cr2, [pc, #-184]!	; 1830 <strncmp+0x4c>
    18e4:	645f6d65 	ldrbvs	r6, [pc], #-3429	; 18ec <itoa+0x90>
    18e8:	696c7669 	stmdbvs	ip!, {r0, r3, r5, r6, r9, sl, ip, sp, lr}^
    18ec:	632e6362 	teqvs	lr, #-2013265919	; 0x88000001
    18f0:	76696400 	strbtvc	r6, [r9], -r0, lsl #8
    18f4:	6e656469 	cdpvs	4, 6, cr6, cr5, cr9, {3}
    18f8:	6d740064 	ldclvs	0, cr0, [r4, #-400]!	; 0xfffffe70
    18fc:	76694470 			; <UNDEFINED> instruction: 0x76694470
    1900:	69687300 	stmdbvs	r8!, {r8, r9, ip, sp, lr}^
    1904:	6d007466 	cfstrsvs	mvf7, [r0, #-408]	; 0xfffffe68
    1908:	695f6d65 	ldmdbvs	pc, {r0, r2, r5, r6, r8, sl, fp, sp, lr}^	; <UNPREDICTABLE>
    190c:	655f746e 	ldrbvs	r7, [pc, #-1134]	; 14a6 <serial_gets_nommu+0x86>
    1910:	00746978 	rsbseq	r6, r4, r8, ror r9
    1914:	65746e69 	ldrbvs	r6, [r4, #-3689]!	; 0xe69
    1918:	70757272 	rsbsvc	r7, r5, r2, ror r2
    191c:	6f735f74 	svcvs	0x00735f74
    1920:	65637275 	strbvs	r7, [r3, #-629]!	; 0x275
    1924:	6d00655f 	cfstr32vs	mvfx6, [r0, #-380]	; 0xfffffe84
    1928:	715f6d65 	cmpvc	pc, r5, ror #26
    192c:	79726575 	ldmdbvc	r2!, {r0, r2, r4, r5, r6, r8, sl, sp, lr}^
    1930:	746e695f 	strbtvc	r6, [lr], #-2399	; 0x95f
    1934:	544e4900 	strbpl	r4, [lr], #-2304	; 0x900
    1938:	554f535f 	strbpl	r5, [pc, #-863]	; 15e1 <serial_puts+0x61>
    193c:	5f454352 	svcpl	0x00454352
    1940:	43554f54 	cmpmi	r5, #336	; 0x150
    1944:	4c4e5048 	mcrrmi	0, 4, r5, lr, cr8
    1948:	63694700 	cmnvs	r9, #0
    194c:	73694443 	cmnvc	r9, #1124073472	; 0x43000000
    1950:	4e490063 	cdpmi	0, 4, cr0, cr9, cr3, {3}
    1954:	4f535f54 	svcmi	0x00535f54
    1958:	45435255 	strbmi	r5, [r3, #-597]	; 0x255
    195c:	47534d5f 			; <UNDEFINED> instruction: 0x47534d5f
    1960:	584f425f 	stmdapl	pc, {r0, r1, r2, r3, r4, r6, r9, lr}^	; <UNPREDICTABLE>
    1964:	6d656d00 	stclvs	13, cr6, [r5, #-0]
    1968:	746e695f 	strbtvc	r6, [lr], #-2399	; 0x95f
    196c:	696e695f 	stmdbvs	lr!, {r0, r1, r2, r3, r4, r6, r8, fp, sp, lr}^
    1970:	4e490074 	mcrmi	0, 2, r0, cr9, cr4, {3}
    1974:	4f535f54 	svcmi	0x00535f54
    1978:	45435255 	strbmi	r5, [r3, #-597]	; 0x255
    197c:	4d49545f 	cfstrdmi	mvd5, [r9, #-380]	; 0xfffffe84
    1980:	00305245 	eorseq	r5, r0, r5, asr #4
    1984:	5f544e49 	svcpl	0x00544e49
    1988:	52554f53 	subspl	r4, r5, #332	; 0x14c
    198c:	545f4543 	ldrbpl	r4, [pc], #-1347	; 1994 <utoa+0x54>
    1990:	52454d49 	subpl	r4, r5, #4672	; 0x1240
    1994:	4e490031 	mcrmi	0, 2, r0, cr9, cr1, {1}
    1998:	4f535f54 	svcmi	0x00535f54
    199c:	45435255 	strbmi	r5, [r3, #-597]	; 0x255
    19a0:	5458455f 	ldrbpl	r4, [r8], #-1375	; 0x55f
    19a4:	00494d4e 	subeq	r4, r9, lr, asr #26
    19a8:	62616e65 	rsbvs	r6, r1, #1616	; 0x650
    19ac:	625f656c 	subsvs	r6, pc, #452984832	; 0x1b000000
    19b0:	72007469 	andvc	r7, r0, #1761607680	; 0x69000000
    19b4:	6c757365 	ldclvs	3, cr7, [r5], #-404	; 0xfffffe6c
    19b8:	4e490074 	mcrmi	0, 2, r0, cr9, cr4, {3}
    19bc:	4f535f54 	svcmi	0x00535f54
    19c0:	45435255 	strbmi	r5, [r3, #-597]	; 0x255
    19c4:	41524c5f 	cmpmi	r2, pc, asr ip
    19c8:	74004344 	strvc	r4, [r0], #-836	; 0x344
    19cc:	7247706d 	subvc	r7, r7, #109	; 0x6d
    19d0:	6d740070 	ldclvs	0, cr0, [r4, #-448]!	; 0xfffffe40
    19d4:	63725370 	cmnvs	r2, #-1073741823	; 0xc0000001
    19d8:	6d656d00 	stclvs	13, cr6, [r5, #-0]
    19dc:	616e655f 	cmnvs	lr, pc, asr r5
    19e0:	5f656c62 	svcpl	0x00656c62
    19e4:	00746e69 	rsbseq	r6, r4, r9, ror #28
    19e8:	2e2e2f2e 	cdpcs	15, 2, cr2, cr14, cr14, {1}
    19ec:	6d656d2f 	stclvs	13, cr6, [r5, #-188]!	; 0xffffff44
    19f0:	746e695f 	strbtvc	r6, [lr], #-2399	; 0x95f
    19f4:	4700632e 	strmi	r6, [r0, -lr, lsr #6]
    19f8:	44446369 	strbmi	r6, [r4], #-873	; 0x369
    19fc:	00637369 	rsbeq	r7, r3, r9, ror #6
    1a00:	454d5f5f 	strbmi	r5, [sp, #-3935]	; 0xf5f
    1a04:	4d545f4d 	ldclmi	15, cr5, [r4, #-308]	; 0xfffffecc
    1a08:	45525f52 	ldrbmi	r5, [r2, #-3922]	; 0xf52
    1a0c:	6d540047 	ldclvs	0, cr0, [r4, #-284]	; 0xfffffee4
    1a10:	74433372 	strbvc	r3, [r3], #-882	; 0x372
    1a14:	4457006c 	ldrbmi	r0, [r7], #-108	; 0x6c
    1a18:	5f31676f 	svcpl	0x0031676f
    1a1c:	6c727443 	cfldrdvs	mvd7, [r2], #-268	; 0xfffffef4
    1a20:	6765525f 			; <UNDEFINED> instruction: 0x6765525f
    1a24:	6d656d00 	stclvs	13, cr6, [r5, #-0]
    1a28:	726d745f 	rsbvc	r7, sp, #1593835520	; 0x5f000000
    1a2c:	7661735f 			; <UNDEFINED> instruction: 0x7661735f
    1a30:	6d540065 	ldclvs	0, cr0, [r4, #-404]	; 0xfffffe6c
    1a34:	67655272 			; <UNDEFINED> instruction: 0x67655272
    1a38:	6d5f5f00 	ldclvs	15, cr5, [pc, #-0]	; 1a40 <print_align+0x44>
    1a3c:	745f6d65 	ldrbvc	r6, [pc], #-3429	; 1a44 <print_align+0x48>
    1a40:	725f726d 	subsvc	r7, pc, #-805306362	; 0xd0000006
    1a44:	745f6765 	ldrbvc	r6, [pc], #-1893	; 1a4c <print_align+0x50>
    1a48:	726d5400 	rsbvc	r5, sp, #0
    1a4c:	746e4930 	strbtvc	r4, [lr], #-2352	; 0x930
    1a50:	006c6156 	rsbeq	r6, ip, r6, asr r1
    1a54:	5f6d656d 	svcpl	0x006d656d
    1a58:	5f726d74 	svcpl	0x00726d74
    1a5c:	62616e65 	rsbvs	r6, r1, #1616	; 0x650
    1a60:	775f656c 	ldrbvc	r6, [pc, -ip, ror #10]
    1a64:	68637461 	stmdavs	r3!, {r0, r5, r6, sl, ip, sp, lr}^
    1a68:	00676f64 	rsbeq	r6, r7, r4, ror #30
    1a6c:	31726d54 	cmncc	r2, r4, asr sp
    1a70:	56746e49 	ldrbtpl	r6, [r4], -r9, asr #28
    1a74:	57006c61 	strpl	r6, [r0, -r1, ror #24]
    1a78:	31676f44 	cmncc	r7, r4, asr #30
    1a7c:	646f4d5f 	strbtvs	r4, [pc], #-3423	; 1a84 <printk+0x2c>
    1a80:	65525f65 	ldrbvs	r5, [r2, #-3941]	; 0xf65
    1a84:	61570067 	cmpvs	r7, r7, rrx
    1a88:	44686374 	strbtmi	r6, [r8], #-884	; 0x374
    1a8c:	5f31676f 	svcpl	0x0031676f
    1a90:	5f717249 	svcpl	0x00717249
    1a94:	425f6e45 	subsmi	r6, pc, #1104	; 0x450
    1a98:	54006b61 	strpl	r6, [r0], #-2913	; 0xb61
    1a9c:	4330726d 	teqmi	r0, #-805306362	; 0xd0000006
    1aa0:	6156746e 	cmpvs	r6, lr, ror #8
    1aa4:	4457006c 	ldrbmi	r0, [r7], #-108	; 0x6c
    1aa8:	5f31676f 	svcpl	0x0031676f
    1aac:	5f717249 	svcpl	0x00717249
    1ab0:	00617453 	rsbeq	r7, r1, r3, asr r4
    1ab4:	63746157 	cmnvs	r4, #-1073741803	; 0xc0000015
    1ab8:	676f4468 	strbvs	r4, [pc, -r8, ror #8]!
    1abc:	6f435f31 	svcvs	0x00435f31
    1ac0:	6769666e 	strbvs	r6, [r9, -lr, ror #12]!
    1ac4:	6765525f 			; <UNDEFINED> instruction: 0x6765525f
    1ac8:	6b61425f 	blvs	185244c <__bss_end+0x184f5c4>
    1acc:	6f445700 	svcvs	0x00445700
    1ad0:	435f3167 	cmpmi	pc, #-1073741799	; 0xc0000019
    1ad4:	525f6766 	subspl	r6, pc, #26738688	; 0x1980000
    1ad8:	54006765 	strpl	r6, [r0], #-1893	; 0x765
    1adc:	4932726d 	ldmdbmi	r2!, {r0, r2, r3, r5, r6, r9, ip, sp, lr}
    1ae0:	6156746e 	cmpvs	r6, lr, ror #8
    1ae4:	6d54006c 	ldclvs	0, cr0, [r4, #-432]	; 0xfffffe50
    1ae8:	6e433172 	mcrvs	1, 2, r3, cr3, cr2, {3}
    1aec:	6c615674 	stclvs	6, cr5, [r1], #-464	; 0xfffffe30
    1af0:	726d5400 	rsbvc	r5, sp, #0
    1af4:	6c744330 	ldclvs	3, cr4, [r4], #-192	; 0xffffff40
    1af8:	6f445700 	svcvs	0x00445700
    1afc:	495f3167 	ldmdbmi	pc, {r0, r1, r2, r5, r6, r8, ip, sp}^	; <UNPREDICTABLE>
    1b00:	455f7172 	ldrbmi	r7, [pc, #-370]	; 1996 <utoa+0x56>
    1b04:	6d54006e 	ldclvs	0, cr0, [r4, #-440]	; 0xfffffe48
    1b08:	6e493372 	mcrvs	3, 2, r3, cr9, cr2, {3}
    1b0c:	6c615674 	stclvs	6, cr5, [r1], #-464	; 0xfffffe30
    1b10:	746e4900 	strbtvc	r4, [lr], #-2304	; 0x900
    1b14:	00617453 	rsbeq	r7, r1, r3, asr r4
    1b18:	35726d54 	ldrbcc	r6, [r2, #-3412]!	; 0xd54
    1b1c:	006c7443 	rsbeq	r7, ip, r3, asr #8
    1b20:	32726d54 	rsbscc	r6, r2, #5376	; 0x1500
    1b24:	56746e43 	ldrbtpl	r6, [r4], -r3, asr #28
    1b28:	6d006c61 	stcvs	12, cr6, [r0, #-388]	; 0xfffffe7c
    1b2c:	745f6d65 	ldrbvc	r6, [pc], #-3429	; 1b34 <printk+0xdc>
    1b30:	725f726d 	subsvc	r7, pc, #-805306362	; 0xd0000006
    1b34:	6f747365 	svcvs	0x00747365
    1b38:	54006572 	strpl	r6, [r0], #-1394	; 0x572
    1b3c:	4934726d 	ldmdbmi	r4!, {r0, r2, r3, r5, r6, r9, ip, sp, lr}
    1b40:	6156746e 	cmpvs	r6, lr, ror #8
    1b44:	7470006c 	ldrbtvc	r0, [r0], #-108	; 0x6c
    1b48:	735f726d 	cmpvc	pc, #-805306362	; 0xd0000006
    1b4c:	65746174 	ldrbvs	r6, [r4, #-372]!	; 0x174
    1b50:	726d5400 	rsbvc	r5, sp, #0
    1b54:	6c744331 	ldclvs	3, cr4, [r4], #-196	; 0xffffff3c
    1b58:	6d656d00 	stclvs	13, cr6, [r5, #-0]
    1b5c:	726d745f 	rsbvc	r7, sp, #1593835520	; 0x5f000000
    1b60:	7369645f 	cmnvc	r9, #1593835520	; 0x5f000000
    1b64:	656c6261 	strbvs	r6, [ip, #-609]!	; 0x261
    1b68:	7461775f 	strbtvc	r7, [r1], #-1887	; 0x75f
    1b6c:	6f646863 	svcvs	0x00646863
    1b70:	6d540067 	ldclvs	0, cr0, [r4, #-412]	; 0xfffffe64
    1b74:	6e493572 	mcrvs	5, 2, r3, cr9, cr2, {3}
    1b78:	6c615674 	stclvs	6, cr5, [r1], #-464	; 0xfffffe30
    1b7c:	726d5400 	rsbvc	r5, sp, #0
    1b80:	6c744334 	ldclvs	3, cr4, [r4], #-208	; 0xffffff30
    1b84:	726d5400 	rsbvc	r5, sp, #0
    1b88:	746e4334 	strbtvc	r4, [lr], #-820	; 0x334
    1b8c:	006c6156 	rsbeq	r6, ip, r6, asr r1
    1b90:	30737641 	rsbscc	r7, r3, r1, asr #12
    1b94:	00746e43 	rsbseq	r6, r4, r3, asr #28
    1b98:	2e2e2f2e 	cdpcs	15, 2, cr2, cr14, cr14, {1}
    1b9c:	6d656d2f 	stclvs	13, cr6, [r5, #-188]!	; 0xffffff44
    1ba0:	726d745f 	rsbvc	r7, sp, #1593835520	; 0x5f000000
    1ba4:	6d00632e 	stcvs	3, cr6, [r0, #-184]	; 0xffffff48
    1ba8:	745f6d65 	ldrbvc	r6, [pc], #-3429	; 1bb0 <printk+0x158>
    1bac:	695f726d 	ldmdbvs	pc, {r0, r2, r3, r5, r6, r9, ip, sp, lr}^	; <UNPREDICTABLE>
    1bb0:	0074696e 	rsbseq	r6, r4, lr, ror #18
    1bb4:	43737641 	cmnmi	r3, #68157440	; 0x4100000
    1bb8:	57006c74 	smlsdxpl	r0, r4, ip, r6
    1bbc:	68637461 	stmdavs	r3!, {r0, r5, r6, sl, ip, sp, lr}^
    1bc0:	31676f44 	cmncc	r7, r4, asr #30
    1bc4:	646f4d5f 	strbtvs	r4, [pc], #-3423	; 1bcc <printk+0x174>
    1bc8:	6765525f 			; <UNDEFINED> instruction: 0x6765525f
    1bcc:	6b61425f 	blvs	1852550 <__bss_end+0x184f6c8>
    1bd0:	726d5400 	rsbvc	r5, sp, #0
    1bd4:	746e4335 	strbtvc	r4, [lr], #-821	; 0x335
    1bd8:	006c6156 	rsbeq	r6, ip, r6, asr r1
    1bdc:	32726d54 	rsbscc	r6, r2, #5376	; 0x1500
    1be0:	006c7443 	rsbeq	r7, ip, r3, asr #8
    1be4:	31737641 	cmncc	r3, r1, asr #12
    1be8:	00746e43 	rsbseq	r6, r4, r3, asr #28
    1bec:	44737641 	ldrbtmi	r7, [r3], #-1601	; 0x641
    1bf0:	6d007669 	stcvs	6, cr7, [r0, #-420]	; 0xfffffe5c
    1bf4:	745f6d65 	ldrbvc	r6, [pc], #-3429	; 1bfc <printk+0x1a4>
    1bf8:	655f726d 	ldrbvs	r7, [pc, #-621]	; 1993 <utoa+0x53>
    1bfc:	00746978 	rsbseq	r6, r4, r8, ror r9
    1c00:	43746e49 	cmnmi	r4, #1168	; 0x490
    1c04:	6d006c74 	stcvs	12, cr6, [r0, #-464]	; 0xfffffe30
    1c08:	635f6d65 	cmpvs	pc, #6464	; 0x1940
    1c0c:	675f6b6c 	ldrbvs	r6, [pc, -ip, ror #22]
    1c10:	6d5f7465 	cfldrdvs	mvd7, [pc, #-404]	; 1a84 <printk+0x2c>
    1c14:	00637369 	rsbeq	r7, r3, r9, ror #6
    1c18:	5f6d656d 	svcpl	0x006d656d
    1c1c:	5f6b6c63 	svcpl	0x006b6c63
    1c20:	64746573 	ldrbtvs	r6, [r4], #-1395	; 0x573
    1c24:	6d007669 	stcvs	6, cr7, [r0, #-420]	; 0xfffffe5c
    1c28:	635f6d65 	cmpvs	pc, #6464	; 0x1940
    1c2c:	735f6b6c 	cmpvc	pc, #110592	; 0x1b000
    1c30:	6d5f7465 	cfldrdvs	mvd7, [pc, #-404]	; 1aa4 <printk+0x4c>
    1c34:	00637369 	rsbeq	r7, r3, r9, ror #6
    1c38:	5f6d656d 	svcpl	0x006d656d
    1c3c:	5f6b6c63 	svcpl	0x006b6c63
    1c40:	64746567 	ldrbtvs	r6, [r4], #-1383	; 0x567
    1c44:	6d007669 	stcvs	6, cr7, [r0, #-420]	; 0xfffffe5c
    1c48:	635f6d65 	cmpvs	pc, #6464	; 0x1940
    1c4c:	735f6b6c 	cmpvc	pc, #110592	; 0x1b000
    1c50:	00657661 	rsbeq	r7, r5, r1, ror #12
    1c54:	6b6c6370 	blvs	1b1aa1c <__bss_end+0x1b17b94>
    1c58:	6174735f 	cmnvs	r4, pc, asr r3
    1c5c:	63006574 	movwvs	r6, #1396	; 0x574
    1c60:	725f7563 	subsvc	r7, pc, #415236096	; 0x18c00000
    1c64:	625f6765 	subsvs	r6, pc, #26476544	; 0x1940000
    1c68:	006b6361 	rsbeq	r6, fp, r1, ror #6
    1c6c:	5f6d656d 	svcpl	0x006d656d
    1c70:	5f6b6c63 	svcpl	0x006b6c63
    1c74:	5f746573 	svcpl	0x00746573
    1c78:	5f6c6c70 	svcpl	0x006c6c70
    1c7c:	74636166 	strbtvc	r6, [r3], #-358	; 0x166
    1c80:	6d00726f 	sfmvs	f7, 4, [r0, #-444]	; 0xfffffe44
    1c84:	635f6d65 	cmpvs	pc, #6464	; 0x1940
    1c88:	675f6b6c 	ldrbvs	r6, [pc, -ip, ror #22]
    1c8c:	705f7465 	subsvc	r7, pc, r5, ror #8
    1c90:	665f6c6c 	ldrbvs	r6, [pc], -ip, ror #24
    1c94:	6f746361 	svcvs	0x00746361
    1c98:	656d0072 	strbvs	r0, [sp, #-114]!	; 0x72
    1c9c:	6c635f6d 	stclvs	15, cr5, [r3], #-436	; 0xfffffe4c
    1ca0:	6e695f6b 	cdpvs	15, 6, cr5, cr9, cr11, {3}
    1ca4:	2e007469 	cdpcs	4, 0, cr7, cr0, cr9, {3}
    1ca8:	2f2e2e2f 	svccs	0x002e2e2f
    1cac:	5f6d656d 	svcpl	0x006d656d
    1cb0:	2e6b6c63 	cdpcs	12, 6, cr6, cr11, cr3, {3}
    1cb4:	656d0063 	strbvs	r0, [sp, #-99]!	; 0x63
    1cb8:	6c635f6d 	stclvs	15, cr5, [r3], #-436	; 0xfffffe4c
    1cbc:	65725f6b 	ldrbvs	r5, [r2, #-3947]!	; 0xf6b
    1cc0:	726f7473 	rsbvc	r7, pc, #1929379840	; 0x73000000
    1cc4:	Address 0x00001cc4 is out of bounds.


Disassembly of section .comment:

00000000 <.comment>:
   0:	3a434347 	bcc	10d0d24 <__bss_end+0x10cde9c>
   4:	72632820 	rsbvc	r2, r3, #2097152	; 0x200000
   8:	7473736f 	ldrbtvc	r7, [r3], #-879	; 0x36f
   c:	2d6c6f6f 	stclcs	15, cr6, [ip, #-444]!	; 0xfffffe44
  10:	6c20474e 	stcvs	7, cr4, [r0], #-312	; 0xfffffec8
  14:	72616e69 	rsbvc	r6, r1, #1680	; 0x690
  18:	2e312d6f 	cdpcs	13, 3, cr2, cr1, cr15, {3}
  1c:	312e3331 	teqcc	lr, r1, lsr r3
  20:	3130322d 	teqcc	r0, sp, lsr #4
  24:	32302e32 	eorscc	r2, r0, #800	; 0x320
  28:	3130322d 	teqcc	r0, sp, lsr #4
  2c:	32323032 	eorscc	r3, r2, #50	; 0x32
  30:	202d2032 	eorcs	r2, sp, r2, lsr r0
  34:	616e694c 	cmnvs	lr, ip, asr #18
  38:	47206f72 			; <UNDEFINED> instruction: 0x47206f72
  3c:	32204343 	eorcc	r4, r0, #201326593	; 0xc000001
  40:	2e323130 	mrccs	1, 1, r3, cr2, cr0, {1}
  44:	20293230 	eorcs	r3, r9, r0, lsr r2
  48:	2e362e34 	mrccs	14, 1, r2, cr6, cr4, {1}
  4c:	30322033 	eorscc	r2, r2, r3, lsr r0
  50:	32303231 	eorscc	r3, r0, #268435459	; 0x10000003
  54:	28203130 	stmdacs	r0!, {r4, r5, r8, ip, sp}
  58:	72657270 	rsbvc	r7, r5, #7
  5c:	61656c65 	cmnvs	r5, r5, ror #24
  60:	00296573 	eoreq	r6, r9, r3, ror r5

Disassembly of section .ARM.attributes:

00000000 <.ARM.attributes>:
   0:	00003241 	andeq	r3, r0, r1, asr #4
   4:	61656100 	cmnvs	r5, r0, lsl #2
   8:	01006962 	tsteq	r0, r2, ror #18
   c:	00000028 	andeq	r0, r0, r8, lsr #32
  10:	412d3705 	teqmi	sp, r5, lsl #14
  14:	070a0600 	streq	r0, [sl, -r0, lsl #12]
  18:	09010841 	stmdbeq	r1, {r0, r6, fp}
  1c:	12040a02 	andne	r0, r4, #8192	; 0x2000
  20:	15011404 	strne	r1, [r1, #-1028]	; 0x404
  24:	18031701 	stmdane	r3, {r0, r8, r9, sl, ip}
  28:	1b021a01 	blne	86834 <__bss_end+0x839ac>
  2c:	22021e03 	andcs	r1, r2, #48	; 0x30
  30:	Address 0x00000030 is out of bounds.


Disassembly of section .debug_aranges:

00000000 <.debug_aranges>:
   0:	0000001c 	andeq	r0, r0, ip, lsl r0
   4:	01410002 	cmpeq	r1, r2
   8:	00040000 	andeq	r0, r4, r0
   c:	00000000 	andeq	r0, r0, r0
  10:	00000030 	andeq	r0, r0, r0, lsr r0
  14:	00000060 	andeq	r0, r0, r0, rrx
	...
  20:	0000001c 	andeq	r0, r0, ip, lsl r0
  24:	01f20002 	mvnseq	r0, r2
  28:	00040000 	andeq	r0, r4, r0
  2c:	00000000 	andeq	r0, r0, r0
  30:	00000090 	muleq	r0, r0, r0
  34:	00000024 	andeq	r0, r0, r4, lsr #32
	...
  40:	0000001c 	andeq	r0, r0, ip, lsl r0
  44:	032b0002 	teqeq	fp, #2
  48:	00040000 	andeq	r0, r4, r0
  4c:	00000000 	andeq	r0, r0, r0
  50:	000000b4 	strheq	r0, [r0], -r4
  54:	00000028 	andeq	r0, r0, r8, lsr #32
	...
  60:	0000001c 	andeq	r0, r0, ip, lsl r0
  64:	04a30002 	strteq	r0, [r3], #2
  68:	00040000 	andeq	r0, r4, r0
  6c:	00000000 	andeq	r0, r0, r0
  70:	000000dc 	ldrdeq	r0, [r0], -ip
  74:	000000f0 	strdeq	r0, [r0], -r0	; <UNPREDICTABLE>
	...
  80:	0000001c 	andeq	r0, r0, ip, lsl r0
  84:	05ac0002 	streq	r0, [ip, #2]!
  88:	00040000 	andeq	r0, r4, r0
  8c:	00000000 	andeq	r0, r0, r0
  90:	000001cc 	andeq	r0, r0, ip, asr #3
  94:	0000039c 	muleq	r0, ip, r3
	...
  a0:	0000001c 	andeq	r0, r0, ip, lsl r0
  a4:	30250002 	eorcc	r0, r5, r2
  a8:	00040000 	andeq	r0, r4, r0
  ac:	00000000 	andeq	r0, r0, r0
  b0:	00000568 	andeq	r0, r0, r8, ror #10
  b4:	0000012c 	andeq	r0, r0, ip, lsr #2
	...
  c0:	0000001c 	andeq	r0, r0, ip, lsl r0
  c4:	32470002 	subcc	r0, r7, #2
  c8:	00040000 	andeq	r0, r4, r0
  cc:	00000000 	andeq	r0, r0, r0
  d0:	00000694 	muleq	r0, r4, r6
  d4:	0000026c 	andeq	r0, r0, ip, ror #4
	...
  e0:	0000001c 	andeq	r0, r0, ip, lsl r0
  e4:	36ac0002 	strtcc	r0, [ip], r2
  e8:	00040000 	andeq	r0, r4, r0
  ec:	00000000 	andeq	r0, r0, r0
  f0:	00000900 	andeq	r0, r0, r0, lsl #18
  f4:	000000a0 	andeq	r0, r0, r0, lsr #1
	...
 100:	0000001c 	andeq	r0, r0, ip, lsl r0
 104:	37f40002 	ldrbcc	r0, [r4, r2]!
 108:	00040000 	andeq	r0, r4, r0
 10c:	00000000 	andeq	r0, r0, r0
 110:	000009a0 	andeq	r0, r0, r0, lsr #19
 114:	0000055c 	andeq	r0, r0, ip, asr r5
	...
 120:	0000001c 	andeq	r0, r0, ip, lsl r0
 124:	38a20002 	stmiacc	r2!, {r1}
 128:	00040000 	andeq	r0, r4, r0
 12c:	00000000 	andeq	r0, r0, r0
 130:	00000f00 	andeq	r0, r0, r0, lsl #30
 134:	000002dc 	ldrdeq	r0, [r0], -ip
	...
 140:	0000001c 	andeq	r0, r0, ip, lsl r0
 144:	3dc30002 	stclcc	0, cr0, [r3, #8]
 148:	00040000 	andeq	r0, r4, r0
 14c:	00000000 	andeq	r0, r0, r0
 150:	000011dc 	ldrdeq	r1, [r0], -ip
 154:	000004c0 	andeq	r0, r0, r0, asr #9
	...
 160:	0000001c 	andeq	r0, r0, ip, lsl r0
 164:	67260002 	strvs	r0, [r6, -r2]!
 168:	00040000 	andeq	r0, r4, r0
 16c:	00000000 	andeq	r0, r0, r0
 170:	0000169c 	muleq	r0, ip, r6
 174:	00000964 	andeq	r0, r0, r4, ror #18
	...
 180:	0000001c 	andeq	r0, r0, ip, lsl r0
 184:	70a90002 	adcvc	r0, r9, r2
 188:	00040000 	andeq	r0, r4, r0
 18c:	00000000 	andeq	r0, r0, r0
 190:	00002000 	andeq	r2, r0, r0
 194:	000001dc 	ldrdeq	r0, [r0], -ip
	...
 1a0:	0000001c 	andeq	r0, r0, ip, lsl r0
 1a4:	71530002 	cmpvc	r3, r2
 1a8:	00040000 	andeq	r0, r4, r0
 1ac:	00000000 	andeq	r0, r0, r0
 1b0:	000021dc 	ldrdeq	r2, [r0], -ip
 1b4:	00000058 	andeq	r0, r0, r8, asr r0
	...
 1c0:	0000001c 	andeq	r0, r0, ip, lsl r0
 1c4:	723f0002 	eorsvc	r0, pc, #2
 1c8:	00040000 	andeq	r0, r4, r0
 1cc:	00000000 	andeq	r0, r0, r0
 1d0:	00002234 	andeq	r2, r0, r4, lsr r2
 1d4:	0000018c 	andeq	r0, r0, ip, lsl #3
	...
 1e0:	0000001c 	andeq	r0, r0, ip, lsl r0
 1e4:	74180002 	ldrvc	r0, [r8], #-2
 1e8:	00040000 	andeq	r0, r4, r0
 1ec:	00000000 	andeq	r0, r0, r0
 1f0:	000023c0 	andeq	r2, r0, r0, asr #7
 1f4:	00000198 	muleq	r0, r8, r1
	...
 200:	0000001c 	andeq	r0, r0, ip, lsl r0
 204:	77fd0002 	ldrbvc	r0, [sp, r2]!
 208:	00040000 	andeq	r0, r4, r0
 20c:	00000000 	andeq	r0, r0, r0
 210:	00002558 	andeq	r2, r0, r8, asr r5
 214:	0000031c 	andeq	r0, r0, ip, lsl r3
	...

Disassembly of section .debug_loc:

00000000 <.debug_loc>:
       0:	00000000 	andeq	r0, r0, r0
       4:	00000008 	andeq	r0, r0, r8
       8:	00500001 	subseq	r0, r0, r1
	...
      14:	0c000000 	stceq	0, cr0, [r0], {-0}
      18:	01000000 	mrseq	r0, (UNDEF: 0)
      1c:	000c5100 	andeq	r5, ip, r0, lsl #2
      20:	00100000 	andseq	r0, r0, r0
      24:	00030000 	andeq	r0, r3, r0
      28:	009f0171 	addseq	r0, pc, r1, ror r1	; <UNPREDICTABLE>
	...
      34:	10000000 	andne	r0, r0, r0
      38:	01000000 	mrseq	r0, (UNDEF: 0)
      3c:	00005200 	andeq	r5, r0, r0, lsl #4
      40:	00000000 	andeq	r0, r0, r0
      44:	00040000 	andeq	r0, r4, r0
      48:	000c0000 	andeq	r0, ip, r0
      4c:	00010000 	andeq	r0, r1, r0
      50:	00000c51 	andeq	r0, r0, r1, asr ip
      54:	00001000 	andeq	r1, r0, r0
      58:	71000300 	mrsvc	r0, LR_irq
      5c:	00009f01 	andeq	r9, r0, r1, lsl #30
	...
      68:	00080000 	andeq	r0, r8, r0
      6c:	00020000 	andeq	r0, r2, r0
      70:	0008007d 	andeq	r0, r8, sp, ror r0
      74:	00440000 	subeq	r0, r4, r0
      78:	00020000 	andeq	r0, r2, r0
      7c:	0000087d 	andeq	r0, r0, sp, ror r8
	...
      88:	00100000 	andseq	r0, r0, r0
      8c:	00010000 	andeq	r0, r1, r0
      90:	00001050 	andeq	r1, r0, r0, asr r0
      94:	00001400 	andeq	r1, r0, r0, lsl #8
      98:	73000500 	movwvc	r0, #1280	; 0x500
      9c:	9f60ff8f 	svcls	0x0060ff8f
	...
      a8:	00000018 	andeq	r0, r0, r8, lsl r0
      ac:	00000020 	andeq	r0, r0, r0, lsr #32
      b0:	20520001 	subscs	r0, r2, r1
      b4:	24000000 	strcs	r0, [r0], #-0
      b8:	02000000 	andeq	r0, r0, #0
      bc:	28749100 	ldmdacs	r4!, {r8, ip, pc}^
      c0:	2c000000 	stccs	0, cr0, [r0], {-0}
      c4:	01000000 	mrseq	r0, (UNDEF: 0)
      c8:	002c5200 	eoreq	r5, ip, r0, lsl #4
      cc:	00300000 	eorseq	r0, r0, r0
      d0:	00020000 	andeq	r0, r2, r0
      d4:	00347491 	mlaseq	r4, r1, r4, r7
      d8:	00380000 	eorseq	r0, r8, r0
      dc:	00010000 	andeq	r0, r1, r0
      e0:	00003852 	andeq	r3, r0, r2, asr r8
      e4:	00004400 	andeq	r4, r0, r0, lsl #8
      e8:	91000200 	mrsls	r0, R8_usr
      ec:	00000074 	andeq	r0, r0, r4, ror r0
      f0:	00000000 	andeq	r0, r0, r0
      f4:	00004400 	andeq	r4, r0, r0, lsl #8
      f8:	00004800 	andeq	r4, r0, r0, lsl #16
      fc:	7d000200 	sfmvc	f0, 4, [r0, #-0]
     100:	00004800 	andeq	r4, r0, r0, lsl #16
     104:	0000f000 	andeq	pc, r0, r0
     108:	7d000200 	sfmvc	f0, 4, [r0, #-0]
     10c:	00000010 	andeq	r0, r0, r0, lsl r0
     110:	00000000 	andeq	r0, r0, r0
     114:	00004400 	andeq	r4, r0, r0, lsl #8
     118:	00009000 	andeq	r9, r0, r0
     11c:	50000100 	andpl	r0, r0, r0, lsl #2
	...
     128:	00000078 	andeq	r0, r0, r8, ror r0
     12c:	00000090 	muleq	r0, r0, r0
     130:	905c0001 	subsls	r0, ip, r1
     134:	c4000000 	strgt	r0, [r0], #-0
     138:	01000000 	mrseq	r0, (UNDEF: 0)
     13c:	00d85000 	sbcseq	r5, r8, r0
     140:	00dc0000 	sbcseq	r0, ip, r0
     144:	00010000 	andeq	r0, r1, r0
     148:	0000dc52 	andeq	sp, r0, r2, asr ip
     14c:	0000f000 	andeq	pc, r0, r0
     150:	55000100 	strpl	r0, [r0, #-256]	; 0x100
	...
     160:	00000004 	andeq	r0, r0, r4
     164:	007d0002 	rsbseq	r0, sp, r2
     168:	00000004 	andeq	r0, r0, r4
     16c:	000000d8 	ldrdeq	r0, [r0], -r8
     170:	087d0002 	ldmdaeq	sp!, {r1}^
	...
     17c:	000000d8 	ldrdeq	r0, [r0], -r8
     180:	000000dc 	ldrdeq	r0, [r0], -ip
     184:	007d0002 	rsbseq	r0, sp, r2
     188:	000000dc 	ldrdeq	r0, [r0], -ip
     18c:	0000039c 	muleq	r0, ip, r3
     190:	187d0002 	ldmdane	sp!, {r1}^
	...
     19c:	00000118 	andeq	r0, r0, r8, lsl r1
     1a0:	0000011c 	andeq	r0, r0, ip, lsl r1
     1a4:	1c500001 	mrrcne	0, 0, r0, r0, cr1	; <UNPREDICTABLE>
     1a8:	a4000001 	strge	r0, [r0], #-1
     1ac:	01000002 	tsteq	r0, r2
     1b0:	03185400 	tsteq	r8, #0
     1b4:	039c0000 	orrseq	r0, ip, #0
     1b8:	00010000 	andeq	r0, r1, r0
     1bc:	00000054 	andeq	r0, r0, r4, asr r0
     1c0:	00000000 	andeq	r0, r0, r0
     1c4:	0000d800 	andeq	sp, r0, r0, lsl #16
     1c8:	0000e000 	andeq	lr, r0, r0
     1cc:	30000200 	andcc	r0, r0, r0, lsl #4
     1d0:	0000e09f 	muleq	r0, pc, r0	; <UNPREDICTABLE>
     1d4:	0000e400 	andeq	lr, r0, r0, lsl #8
     1d8:	73000500 	movwvc	r0, #1280	; 0x500
     1dc:	9f1a3300 	svcls	0x001a3300
     1e0:	000000e4 	andeq	r0, r0, r4, ror #1
     1e4:	000000f8 	strdeq	r0, [r0], -r8
     1e8:	f8530001 			; <UNDEFINED> instruction: 0xf8530001
     1ec:	0c000000 	stceq	0, cr0, [r0], {-0}
     1f0:	01000001 	tsteq	r0, r1
     1f4:	02a45000 	adceq	r5, r4, #0
     1f8:	02d00000 	sbcseq	r0, r0, #0
     1fc:	00010000 	andeq	r0, r1, r0
     200:	00000053 	andeq	r0, r0, r3, asr r0
     204:	00000000 	andeq	r0, r0, r0
     208:	0000d800 	andeq	sp, r0, r0, lsl #16
     20c:	00026000 	andeq	r6, r2, r0
     210:	30000200 	andcc	r0, r0, r0, lsl #4
     214:	0002609f 	muleq	r2, pc, r0	; <UNPREDICTABLE>
     218:	00026f00 	andeq	r6, r2, r0, lsl #30
     21c:	53000100 	movwpl	r0, #256	; 0x100
     220:	000002a4 	andeq	r0, r0, r4, lsr #5
     224:	0000039c 	muleq	r0, ip, r3
     228:	9f300002 	svcls	0x00300002
	...
     238:	00000004 	andeq	r0, r0, r4
     23c:	007d0002 	rsbseq	r0, sp, r2
     240:	00000004 	andeq	r0, r0, r4
     244:	00000020 	andeq	r0, r0, r0, lsr #32
     248:	087d0002 	ldmdaeq	sp!, {r1}^
	...
     254:	00000020 	andeq	r0, r0, r0, lsr #32
     258:	00000024 	andeq	r0, r0, r4, lsr #32
     25c:	007d0002 	rsbseq	r0, sp, r2
     260:	00000024 	andeq	r0, r0, r4, lsr #32
     264:	00000040 	andeq	r0, r0, r0, asr #32
     268:	087d0002 	ldmdaeq	sp!, {r1}^
	...
     274:	00000048 	andeq	r0, r0, r8, asr #32
     278:	0000004c 	andeq	r0, r0, ip, asr #32
     27c:	007d0002 	rsbseq	r0, sp, r2
     280:	0000004c 	andeq	r0, r0, ip, asr #32
     284:	00000068 	andeq	r0, r0, r8, rrx
     288:	087d0002 	ldmdaeq	sp!, {r1}^
	...
     294:	00000078 	andeq	r0, r0, r8, ror r0
     298:	0000007c 	andeq	r0, r0, ip, ror r0
     29c:	007d0002 	rsbseq	r0, sp, r2
     2a0:	0000007c 	andeq	r0, r0, ip, ror r0
     2a4:	00000094 	muleq	r0, r4, r0
     2a8:	087d0002 	ldmdaeq	sp!, {r1}^
	...
     2b4:	00000094 	muleq	r0, r4, r0
     2b8:	00000098 	muleq	r0, r8, r0
     2bc:	007d0002 	rsbseq	r0, sp, r2
     2c0:	00000098 	muleq	r0, r8, r0
     2c4:	000000b0 	strheq	r0, [r0], -r0	; <UNPREDICTABLE>
     2c8:	087d0002 	ldmdaeq	sp!, {r1}^
	...
     2d4:	000000f8 	strdeq	r0, [r0], -r8
     2d8:	000000fc 	strdeq	r0, [r0], -ip
     2dc:	007d0002 	rsbseq	r0, sp, r2
     2e0:	000000fc 	strdeq	r0, [r0], -ip
     2e4:	0000012c 	andeq	r0, r0, ip, lsr #2
     2e8:	107d0002 	rsbsne	r0, sp, r2
	...
     2f4:	000000f8 	strdeq	r0, [r0], -r8
     2f8:	00000110 	andeq	r0, r0, r0, lsl r1
     2fc:	00500001 	subseq	r0, r0, r1
     300:	00000000 	andeq	r0, r0, r0
     304:	14000000 	strne	r0, [r0], #-0
     308:	24000001 	strcs	r0, [r0], #-1
     30c:	01000001 	tsteq	r0, r1
     310:	01245600 	teqeq	r4, r0, lsl #12
     314:	012c0000 	teqeq	ip, r0
     318:	00010000 	andeq	r0, r1, r0
     31c:	00000055 	andeq	r0, r0, r5, asr r0
	...
     328:	00000800 	andeq	r0, r0, r0, lsl #16
     32c:	50000100 	andpl	r0, r0, r0, lsl #2
	...
     33c:	0000000c 	andeq	r0, r0, ip
     340:	9f310002 	svcls	0x00310002
     344:	0000000c 	andeq	r0, r0, ip
     348:	00000014 	andeq	r0, r0, r4, lsl r0
     34c:	14500001 	ldrbne	r0, [r0], #-1
     350:	18000000 	stmdane	r0, {}	; <UNPREDICTABLE>
     354:	05000000 	streq	r0, [r0, #-0]
     358:	40007000 	andmi	r7, r0, r0
     35c:	00189f21 	andseq	r9, r8, r1, lsr #30
     360:	001c0000 	andseq	r0, ip, r0
     364:	00010000 	andeq	r0, r1, r0
     368:	00001c50 	andeq	r1, r0, r0, asr ip
     36c:	00002c00 	andeq	r2, r0, r0, lsl #24
     370:	9e000600 	cfmadd32ls	mvax0, mvfx0, mvfx0, mvfx0
     374:	00000f04 	andeq	r0, r0, r4, lsl #30
     378:	00000080 	andeq	r0, r0, r0, lsl #1
     37c:	00000000 	andeq	r0, r0, r0
     380:	00007400 	andeq	r7, r0, r0, lsl #8
     384:	00007c00 	andeq	r7, r0, r0, lsl #24
     388:	30000200 	andcc	r0, r0, r0, lsl #4
     38c:	00007c9f 	muleq	r0, pc, ip	; <UNPREDICTABLE>
     390:	00008800 	andeq	r8, r0, r0, lsl #16
     394:	34000200 	strcc	r0, [r0], #-512	; 0x200
     398:	0000009f 	muleq	r0, pc, r0	; <UNPREDICTABLE>
     39c:	00000000 	andeq	r0, r0, r0
     3a0:	00008800 	andeq	r8, r0, r0, lsl #16
     3a4:	00009c00 	andeq	r9, r0, r0, lsl #24
     3a8:	7d000200 	sfmvc	f0, 4, [r0, #-0]
     3ac:	00009c00 	andeq	r9, r0, r0, lsl #24
     3b0:	0000a400 	andeq	sl, r0, r0, lsl #8
     3b4:	7d000200 	sfmvc	f0, 4, [r0, #-0]
     3b8:	0000a408 	andeq	sl, r0, r8, lsl #8
     3bc:	00018400 	andeq	r8, r1, r0, lsl #8
     3c0:	7d000200 	sfmvc	f0, 4, [r0, #-0]
     3c4:	00000010 	andeq	r0, r0, r0, lsl r0
     3c8:	00000000 	andeq	r0, r0, r0
     3cc:	00008800 	andeq	r8, r0, r0, lsl #16
     3d0:	0000b000 	andeq	fp, r0, r0
     3d4:	50000100 	andpl	r0, r0, r0, lsl #2
	...
     3e0:	00000088 	andeq	r0, r0, r8, lsl #1
     3e4:	00000138 	andeq	r0, r0, r8, lsr r1
     3e8:	9f300002 	svcls	0x00300002
     3ec:	00000140 	andeq	r0, r0, r0, asr #2
     3f0:	00000150 	andeq	r0, r0, r0, asr r1
     3f4:	9f300002 	svcls	0x00300002
     3f8:	00000150 	andeq	r0, r0, r0, asr r1
     3fc:	0000015c 	andeq	r0, r0, ip, asr r1
     400:	00720009 	rsbseq	r0, r2, r9
     404:	1a4f2538 	bne	13c98ec <__bss_end+0x13c6a64>
     408:	009f0123 	addseq	r0, pc, r3, lsr #2
     40c:	00000000 	andeq	r0, r0, r0
     410:	88000000 	stmdahi	r0, {}	; <UNPREDICTABLE>
     414:	38000000 	stmdacc	r0, {}	; <UNPREDICTABLE>
     418:	02000001 	andeq	r0, r0, #1
     41c:	409f3000 	addsmi	r3, pc, r0
     420:	54000001 	strpl	r0, [r0], #-1
     424:	02000001 	andeq	r0, r0, #1
     428:	549f3000 	ldrpl	r3, [pc], #0	; 430 <set_pll+0x18c>
     42c:	60000001 	andvs	r0, r0, r1
     430:	09000001 	stmdbeq	r0, {r0}
     434:	34007300 	strcc	r7, [r0], #-768	; 0x300
     438:	231a3325 	tstcs	sl, #-1811939328	; 0x94000000
     43c:	00009f01 	andeq	r9, r0, r1, lsl #30
     440:	00000000 	andeq	r0, r0, r0
     444:	00880000 	addeq	r0, r8, r0
     448:	01380000 	teqeq	r8, r0
     44c:	00020000 	andeq	r0, r2, r0
     450:	01409f30 	cmpeq	r0, r0, lsr pc
     454:	01580000 	cmpeq	r8, r0
     458:	00020000 	andeq	r0, r2, r0
     45c:	01589f30 	cmpeq	r8, r0, lsr pc
     460:	01680000 	cmneq	r8, r0
     464:	00070000 	andeq	r0, r7, r0
     468:	1a330071 	bne	cc0634 <__bss_end+0xcbd7ac>
     46c:	709f0123 	addsvc	r0, pc, r3, lsr #2
     470:	77000001 	strvc	r0, [r0, -r1]
     474:	01000001 	tsteq	r0, r1
     478:	00005100 	andeq	r5, r0, r0, lsl #2
     47c:	00000000 	andeq	r0, r0, r0
     480:	00880000 	addeq	r0, r8, r0
     484:	00c80000 	sbceq	r0, r8, r0
     488:	00020000 	andeq	r0, r2, r0
     48c:	00009f30 	andeq	r9, r0, r0, lsr pc
     490:	00000000 	andeq	r0, r0, r0
     494:	00880000 	addeq	r0, r8, r0
     498:	00c40000 	sbceq	r0, r4, r0
     49c:	00020000 	andeq	r0, r2, r0
     4a0:	00c49f30 	sbceq	r9, r4, r0, lsr pc
     4a4:	01040000 	mrseq	r0, (UNDEF: 4)
     4a8:	00010000 	andeq	r0, r1, r0
     4ac:	00000053 	andeq	r0, r0, r3, asr r0
     4b0:	00000000 	andeq	r0, r0, r0
     4b4:	0000bc00 	andeq	fp, r0, r0, lsl #24
     4b8:	0000e800 	andeq	lr, r0, r0, lsl #16
     4bc:	91000200 	mrsls	r0, R8_usr
     4c0:	0000ec6c 	andeq	lr, r0, ip, ror #24
     4c4:	0000f000 	andeq	pc, r0, r0
     4c8:	51000100 	mrspl	r0, (UNDEF: 16)
     4cc:	000000f0 	strdeq	r0, [r0], -r0	; <UNPREDICTABLE>
     4d0:	000000f4 	strdeq	r0, [r0], -r4
     4d4:	6c910002 	ldcvs	0, cr0, [r1], {2}
     4d8:	000000f8 	strdeq	r0, [r0], -r8
     4dc:	000000fc 	strdeq	r0, [r0], -ip
     4e0:	fc510001 	mrrc2	0, 0, r0, r1, cr1
     4e4:	84000000 	strhi	r0, [r0], #-0
     4e8:	02000001 	andeq	r0, r0, #1
     4ec:	006c9100 	rsbeq	r9, ip, r0, lsl #2
     4f0:	00000000 	andeq	r0, r0, r0
     4f4:	c8000000 	stmdagt	r0, {}	; <UNPREDICTABLE>
     4f8:	d4000000 	strle	r0, [r0], #-0
     4fc:	01000000 	mrseq	r0, (UNDEF: 0)
     500:	00005000 	andeq	r5, r0, r0
     504:	00000000 	andeq	r0, r0, r0
     508:	00cc0000 	sbceq	r0, ip, r0
     50c:	00d80000 	sbcseq	r0, r8, r0
     510:	00010000 	andeq	r0, r1, r0
     514:	00000054 	andeq	r0, r0, r4, asr r0
     518:	00000000 	andeq	r0, r0, r0
     51c:	00018400 	andeq	r8, r1, r0, lsl #8
     520:	00018800 	andeq	r8, r1, r0, lsl #16
     524:	7d000200 	sfmvc	f0, 4, [r0, #-0]
     528:	00018800 	andeq	r8, r1, r0, lsl #16
     52c:	0001dc00 	andeq	sp, r1, r0, lsl #24
     530:	7d000200 	sfmvc	f0, 4, [r0, #-0]
     534:	00000010 	andeq	r0, r0, r0, lsl r0
     538:	00000000 	andeq	r0, r0, r0
     53c:	00018400 	andeq	r8, r1, r0, lsl #8
     540:	00019400 	andeq	r9, r1, r0, lsl #8
     544:	50000100 	andpl	r0, r0, r0, lsl #2
     548:	00000194 	muleq	r0, r4, r1
     54c:	000001b0 			; <UNDEFINED> instruction: 0x000001b0
     550:	00550001 	subseq	r0, r5, r1
     554:	00000000 	andeq	r0, r0, r0
     558:	84000000 	strhi	r0, [r0], #-0
     55c:	a4000001 	strge	r0, [r0], #-1
     560:	02000001 	andeq	r0, r0, #1
     564:	a49f3000 	ldrge	r3, [pc], #0	; 56c <busy_waiting+0x4>
     568:	b0000001 	andlt	r0, r0, r1
     56c:	06000001 	streq	r0, [r0], -r1
     570:	75017000 	strvc	r7, [r1, #-0]
     574:	009f1e00 	addseq	r1, pc, r0, lsl #28
     578:	00000000 	andeq	r0, r0, r0
     57c:	84000000 	strhi	r0, [r0], #-0
     580:	a8000001 	stmdage	r0, {r0}
     584:	02000001 	andeq	r0, r0, #1
     588:	a89f3000 	ldmge	pc, {ip, sp}	; <UNPREDICTABLE>
     58c:	bc000001 	stclt	0, cr0, [r0], {1}
     590:	01000001 	tsteq	r0, r1
     594:	01c85300 	biceq	r5, r8, r0, lsl #6
     598:	01cc0000 	biceq	r0, ip, r0
     59c:	00010000 	andeq	r0, r1, r0
     5a0:	00000053 	andeq	r0, r0, r3, asr r0
     5a4:	00000000 	andeq	r0, r0, r0
     5a8:	00018400 	andeq	r8, r1, r0, lsl #8
     5ac:	0001a800 	andeq	sl, r1, r0, lsl #16
     5b0:	30000200 	andcc	r0, r0, r0, lsl #4
     5b4:	0001a89f 	muleq	r1, pc, r8	; <UNPREDICTABLE>
     5b8:	0001b000 	andeq	fp, r1, r0
     5bc:	70001000 	andvc	r1, r0, r0
     5c0:	1e007501 	cfsh32ne	mvfx7, mvfx0, #1
     5c4:	9c030073 	stcls	0, cr0, [r3], {115}	; 0x73
     5c8:	0600002b 	streq	r0, [r0], -fp, lsr #32
     5cc:	009f221c 	addseq	r2, pc, ip, lsl r2	; <UNPREDICTABLE>
     5d0:	00000000 	andeq	r0, r0, r0
     5d4:	a8000000 	stmdage	r0, {}	; <UNPREDICTABLE>
     5d8:	bc000001 	stclt	0, cr0, [r0], {1}
     5dc:	01000001 	tsteq	r0, r1
     5e0:	00005300 	andeq	r5, r0, r0, lsl #6
     5e4:	00000000 	andeq	r0, r0, r0
     5e8:	01c80000 	biceq	r0, r8, r0
     5ec:	01cc0000 	biceq	r0, ip, r0
     5f0:	00010000 	andeq	r0, r1, r0
     5f4:	00000053 	andeq	r0, r0, r3, asr r0
     5f8:	00000000 	andeq	r0, r0, r0
     5fc:	0001dc00 	andeq	sp, r1, r0, lsl #24
     600:	0001e400 	andeq	lr, r1, r0, lsl #8
     604:	50000100 	andpl	r0, r0, r0, lsl #2
	...
     610:	000001e8 	andeq	r0, r0, r8, ror #3
     614:	000001f0 	strdeq	r0, [r0], -r0	; <UNPREDICTABLE>
     618:	00500001 	subseq	r0, r0, r1
     61c:	00000000 	andeq	r0, r0, r0
     620:	e8000000 	stmda	r0, {}	; <UNPREDICTABLE>
     624:	f4000001 	vst4.8	{d0-d3}, [r0], r1
     628:	02000001 	andeq	r0, r0, #1
     62c:	f49f3100 			; <UNDEFINED> instruction: 0xf49f3100
     630:	fc000001 	stc2	0, cr0, [r0], {1}
     634:	01000001 	tsteq	r0, r1
     638:	01fc5000 	mvnseq	r5, r0
     63c:	02000000 	andeq	r0, r0, #0
     640:	00050000 	andeq	r0, r5, r0
     644:	21400070 	hvccs	0
     648:	0002009f 	muleq	r2, pc, r0	; <UNPREDICTABLE>
     64c:	00020400 	andeq	r0, r2, r0, lsl #8
     650:	50000100 	andpl	r0, r0, r0, lsl #2
     654:	00000204 	andeq	r0, r0, r4, lsl #4
     658:	00000214 	andeq	r0, r0, r4, lsl r2
     65c:	049e0006 	ldreq	r0, [lr], #6
     660:	8000000f 	andhi	r0, r0, pc
	...
     66c:	00000214 	andeq	r0, r0, r4, lsl r2
     670:	00000224 	andeq	r0, r0, r4, lsr #4
     674:	9f300002 	svcls	0x00300002
	...
     680:	00000240 	andeq	r0, r0, r0, asr #4
     684:	00000244 	andeq	r0, r0, r4, asr #4
     688:	44500001 	ldrbmi	r0, [r0], #-1
     68c:	6c000002 	stcvs	0, cr0, [r0], {2}
     690:	03000002 	movweq	r0, #2
     694:	9f027000 	svcls	0x00027000
	...
     6a0:	00000240 	andeq	r0, r0, r0, asr #4
     6a4:	00000254 	andeq	r0, r0, r4, asr r2
     6a8:	9f300002 	svcls	0x00300002
     6ac:	00000254 	andeq	r0, r0, r4, asr r2
     6b0:	0000026c 	andeq	r0, r0, ip, ror #4
     6b4:	00530001 	subseq	r0, r3, r1
     6b8:	00000000 	andeq	r0, r0, r0
     6bc:	40000000 	andmi	r0, r0, r0
     6c0:	5c000002 	stcpl	0, cr0, [r0], {2}
     6c4:	02000002 	andeq	r0, r0, #2
     6c8:	5c9f3000 	ldcpl	0, cr3, [pc], {0}
     6cc:	6c000002 	stcvs	0, cr0, [r0], {2}
     6d0:	01000002 	tsteq	r0, r2
     6d4:	00005000 	andeq	r5, r0, r0
     6d8:	00000000 	andeq	r0, r0, r0
     6dc:	01ec0000 	mvneq	r0, r0
     6e0:	01f00000 	mvnseq	r0, r0
     6e4:	00060000 	andeq	r0, r6, r0
     6e8:	fc090072 	stc2	0, cr0, [r9], {114}	; 0x72
     6ec:	01f09f1a 	mvnseq	r9, sl, lsl pc
     6f0:	01f80000 	mvnseq	r0, r0
     6f4:	00010000 	andeq	r0, r1, r0
     6f8:	00000052 	andeq	r0, r0, r2, asr r0
     6fc:	00000000 	andeq	r0, r0, r0
     700:	0002cc00 	andeq	ip, r2, r0, lsl #24
     704:	0002d000 	andeq	sp, r2, r0
     708:	30000200 	andcc	r0, r0, r0, lsl #4
     70c:	0002d09f 	muleq	r2, pc, r0	; <UNPREDICTABLE>
     710:	0002dc00 	andeq	sp, r2, r0, lsl #24
     714:	53000100 	movwpl	r0, #256	; 0x100
	...
     724:	00000004 	andeq	r0, r0, r4
     728:	007d0002 	rsbseq	r0, sp, r2
     72c:	00000004 	andeq	r0, r0, r4
     730:	00000114 	andeq	r0, r0, r4, lsl r1
     734:	107d0002 	rsbsne	r0, sp, r2
	...
     744:	0000000b 	andeq	r0, r0, fp
     748:	0b500001 	bleq	1400754 <__bss_end+0x13fd8cc>
     74c:	a4000000 	strge	r0, [r0], #-0
     750:	01000000 	mrseq	r0, (UNDEF: 0)
     754:	00005400 	andeq	r5, r0, r0, lsl #8
	...
     760:	00280000 	eoreq	r0, r8, r0
     764:	00020000 	andeq	r0, r2, r0
     768:	00289f30 	eoreq	r9, r8, r0, lsr pc
     76c:	00430000 	subeq	r0, r3, r0
     770:	00010000 	andeq	r0, r1, r0
     774:	00000050 	andeq	r0, r0, r0, asr r0
     778:	00000000 	andeq	r0, r0, r0
     77c:	00004c00 	andeq	r4, r0, r0, lsl #24
     780:	00005800 	andeq	r5, r0, r0, lsl #16
     784:	50000100 	andpl	r0, r0, r0, lsl #2
     788:	00000058 	andeq	r0, r0, r8, asr r0
     78c:	00000114 	andeq	r0, r0, r4, lsl r1
     790:	00560001 	subseq	r0, r6, r1
     794:	00000000 	andeq	r0, r0, r0
     798:	50000000 	andpl	r0, r0, r0
     79c:	80000000 	andhi	r0, r0, r0
     7a0:	06000000 	streq	r0, [r0], -r0
     7a4:	02d80c00 	sbcseq	r0, r8, #0
     7a8:	809f01c2 	addshi	r0, pc, r2, asr #3
     7ac:	a0000000 	andge	r0, r0, r0
     7b0:	06000000 	streq	r0, [r0], -r0
     7b4:	006c0c00 	rsbeq	r0, ip, r0, lsl #24
     7b8:	009f01c2 	addseq	r0, pc, r2, asr #3
     7bc:	00000000 	andeq	r0, r0, r0
     7c0:	10000000 	andne	r0, r0, r0
     7c4:	24000000 	strcs	r0, [r0], #-0
     7c8:	01000000 	mrseq	r0, (UNDEF: 0)
     7cc:	00245000 	eoreq	r5, r4, r0
     7d0:	00300000 	eorseq	r0, r0, r0
     7d4:	00010000 	andeq	r0, r1, r0
     7d8:	00000053 	andeq	r0, r0, r3, asr r0
     7dc:	00000000 	andeq	r0, r0, r0
     7e0:	0000c800 	andeq	ip, r0, r0, lsl #16
     7e4:	0000ec00 	andeq	lr, r0, r0, lsl #24
     7e8:	9e000600 	cfmadd32ls	mvax0, mvfx0, mvfx0, mvfx0
     7ec:	c202d804 	andgt	sp, r2, #262144	; 0x40000
     7f0:	0000ecf1 	strdeq	lr, [r0], -r1
     7f4:	00011400 	andeq	r1, r1, r0, lsl #8
     7f8:	9e000600 	cfmadd32ls	mvax0, mvfx0, mvfx0, mvfx0
     7fc:	c2006c04 	andgt	r6, r0, #1024	; 0x400
     800:	000000f1 	strdeq	r0, [r0], -r1
     804:	00000000 	andeq	r0, r0, r0
     808:	00011400 	andeq	r1, r1, r0, lsl #8
     80c:	00011800 	andeq	r1, r1, r0, lsl #16
     810:	7d000200 	sfmvc	f0, 4, [r0, #-0]
     814:	00011800 	andeq	r1, r1, r0, lsl #16
     818:	0001b400 	andeq	fp, r1, r0, lsl #8
     81c:	7d000200 	sfmvc	f0, 4, [r0, #-0]
     820:	00000010 	andeq	r0, r0, r0, lsl r0
     824:	00000000 	andeq	r0, r0, r0
     828:	00015c00 	andeq	r5, r1, r0, lsl #24
     82c:	00018400 	andeq	r8, r1, r0, lsl #8
     830:	73000500 	movwvc	r0, #1280	; 0x500
     834:	9f254400 	svcls	0x00254400
	...
     840:	00000164 	andeq	r0, r0, r4, ror #2
     844:	0000017c 	andeq	r0, r0, ip, ror r1
     848:	00500001 	subseq	r0, r0, r1
     84c:	00000000 	andeq	r0, r0, r0
     850:	48000000 	stmdami	r0, {}	; <UNPREDICTABLE>
     854:	50000001 	andpl	r0, r0, r1
     858:	01000001 	tsteq	r0, r1
     85c:	01505000 	cmpeq	r0, r0
     860:	01640000 	cmneq	r4, r0
     864:	00050000 	andeq	r0, r5, r0
     868:	47e08070 			; <UNDEFINED> instruction: 0x47e08070
     86c:	0000009f 	muleq	r0, pc, r0	; <UNPREDICTABLE>
     870:	00000000 	andeq	r0, r0, r0
     874:	0001b400 	andeq	fp, r1, r0, lsl #8
     878:	0001bc00 	andeq	fp, r1, r0, lsl #24
     87c:	7d000200 	sfmvc	f0, 4, [r0, #-0]
     880:	0001bc00 	andeq	fp, r1, r0, lsl #24
     884:	00024400 	andeq	r4, r2, r0, lsl #8
     888:	7d000200 	sfmvc	f0, 4, [r0, #-0]
     88c:	00000004 	andeq	r0, r0, r4
     890:	00000000 	andeq	r0, r0, r0
     894:	0001b400 	andeq	fp, r1, r0, lsl #8
     898:	0001c800 	andeq	ip, r1, r0, lsl #16
     89c:	50000100 	andpl	r0, r0, r0, lsl #2
     8a0:	000001cc 	andeq	r0, r0, ip, asr #3
     8a4:	000001e0 	andeq	r0, r0, r0, ror #3
     8a8:	e0500001 	subs	r0, r0, r1
     8ac:	e8000001 	stmda	r0, {r0}
     8b0:	03000001 	movweq	r0, #1
     8b4:	9f017000 	svcls	0x00017000
	...
     8c0:	000001f4 	strdeq	r0, [r0], -r4
     8c4:	00000218 	andeq	r0, r0, r8, lsl r2
     8c8:	005c0001 	subseq	r0, ip, r1
     8cc:	00000000 	andeq	r0, r0, r0
     8d0:	44000000 	strmi	r0, [r0], #-0
     8d4:	4c000002 	stcmi	0, cr0, [r0], {2}
     8d8:	02000002 	andeq	r0, r0, #2
     8dc:	4c007d00 	stcmi	13, cr7, [r0], {-0}
     8e0:	d0000002 	andle	r0, r0, r2
     8e4:	02000002 	andeq	r0, r0, #2
     8e8:	00047d00 	andeq	r7, r4, r0, lsl #26
     8ec:	00000000 	andeq	r0, r0, r0
     8f0:	44000000 	strmi	r0, [r0], #-0
     8f4:	58000002 	stmdapl	r0, {r1}
     8f8:	01000002 	tsteq	r0, r2
     8fc:	00005000 	andeq	r5, r0, r0
     900:	00000000 	andeq	r0, r0, r0
     904:	02640000 	rsbeq	r0, r4, #0
     908:	027c0000 	rsbseq	r0, ip, #0
     90c:	00020000 	andeq	r0, r2, r0
     910:	02c09f30 	sbceq	r9, r0, #192	; 0xc0
     914:	02d00000 	sbcseq	r0, r0, #0
     918:	00010000 	andeq	r0, r1, r0
     91c:	00000054 	andeq	r0, r0, r4, asr r0
     920:	00000000 	andeq	r0, r0, r0
     924:	00028400 	andeq	r8, r2, r0, lsl #8
     928:	00028800 	andeq	r8, r2, r0, lsl #16
     92c:	53000100 	movwpl	r0, #256	; 0x100
     930:	00000288 	andeq	r0, r0, r8, lsl #5
     934:	0000028c 	andeq	r0, r0, ip, lsl #5
     938:	01730003 	cmneq	r3, r3
     93c:	00028c9f 	muleq	r2, pc, ip	; <UNPREDICTABLE>
     940:	0002a000 	andeq	sl, r2, r0
     944:	53000100 	movwpl	r0, #256	; 0x100
	...
     950:	000002d0 	ldrdeq	r0, [r0], -r0	; <UNPREDICTABLE>
     954:	000002d4 	ldrdeq	r0, [r0], -r4
     958:	007d0002 	rsbseq	r0, sp, r2
     95c:	000002d4 	ldrdeq	r0, [r0], -r4
     960:	00000370 	andeq	r0, r0, r0, ror r3
     964:	107d0002 	rsbsne	r0, sp, r2
	...
     970:	00000304 	andeq	r0, r0, r4, lsl #6
     974:	0000030c 	andeq	r0, r0, ip, lsl #6
     978:	0c500001 	mrrceq	0, 0, r0, r0, cr1	; <UNPREDICTABLE>
     97c:	20000003 	andcs	r0, r0, r3
     980:	05000003 	streq	r0, [r0, #-3]
     984:	e0807000 	add	r7, r0, r0
     988:	00009f47 	andeq	r9, r0, r7, asr #30
     98c:	00000000 	andeq	r0, r0, r0
     990:	03180000 	tsteq	r8, #0
     994:	03400000 	movteq	r0, #0
     998:	00050000 	andeq	r0, r5, r0
     99c:	25440073 	strbcs	r0, [r4, #-115]	; 0x73
     9a0:	0000009f 	muleq	r0, pc, r0	; <UNPREDICTABLE>
     9a4:	00000000 	andeq	r0, r0, r0
     9a8:	00032000 	andeq	r2, r3, r0
     9ac:	00033800 	andeq	r3, r3, r0, lsl #16
     9b0:	50000100 	andpl	r0, r0, r0, lsl #2
	...
     9bc:	000003a4 	andeq	r0, r0, r4, lsr #7
     9c0:	000003ac 	andeq	r0, r0, ip, lsr #7
     9c4:	007d0002 	rsbseq	r0, sp, r2
     9c8:	000003ac 	andeq	r0, r0, ip, lsr #7
     9cc:	00000434 	andeq	r0, r0, r4, lsr r4
     9d0:	047d0002 	ldrbteq	r0, [sp], #-2
	...
     9dc:	000003a4 	andeq	r0, r0, r4, lsr #7
     9e0:	000003b8 			; <UNDEFINED> instruction: 0x000003b8
     9e4:	bc500001 	mrrclt	0, 0, r0, r0, cr1	; <UNPREDICTABLE>
     9e8:	d0000003 	andle	r0, r0, r3
     9ec:	01000003 	tsteq	r0, r3
     9f0:	03d05000 	bicseq	r5, r0, #0
     9f4:	03d80000 	bicseq	r0, r8, #0
     9f8:	00030000 	andeq	r0, r3, r0
     9fc:	009f0170 	addseq	r0, pc, r0, ror r1	; <UNPREDICTABLE>
     a00:	00000000 	andeq	r0, r0, r0
     a04:	e4000000 	str	r0, [r0], #-0
     a08:	08000003 	stmdaeq	r0, {r0, r1}
     a0c:	01000004 	tsteq	r0, r4
     a10:	00005c00 	andeq	r5, r0, r0, lsl #24
     a14:	00000000 	andeq	r0, r0, r0
     a18:	04340000 	ldrteq	r0, [r4], #-0
     a1c:	043c0000 	ldrteq	r0, [ip], #-0
     a20:	00020000 	andeq	r0, r2, r0
     a24:	043c007d 	ldrteq	r0, [ip], #-125	; 0x7d
     a28:	04c00000 	strbeq	r0, [r0], #0
     a2c:	00020000 	andeq	r0, r2, r0
     a30:	0000047d 	andeq	r0, r0, sp, ror r4
     a34:	00000000 	andeq	r0, r0, r0
     a38:	04340000 	ldrteq	r0, [r4], #-0
     a3c:	04480000 	strbeq	r0, [r8], #-0
     a40:	00010000 	andeq	r0, r1, r0
     a44:	00000050 	andeq	r0, r0, r0, asr r0
     a48:	00000000 	andeq	r0, r0, r0
     a4c:	00045400 	andeq	r5, r4, r0, lsl #8
     a50:	00046c00 	andeq	r6, r4, r0, lsl #24
     a54:	30000200 	andcc	r0, r0, r0, lsl #4
     a58:	0004b09f 	muleq	r4, pc, r0	; <UNPREDICTABLE>
     a5c:	0004c000 	andeq	ip, r4, r0
     a60:	54000100 	strpl	r0, [r0], #-256	; 0x100
	...
     a6c:	00000474 	andeq	r0, r0, r4, ror r4
     a70:	00000478 	andeq	r0, r0, r8, ror r4
     a74:	78530001 	ldmdavc	r3, {r0}^
     a78:	7c000004 	stcvc	0, cr0, [r0], {4}
     a7c:	03000004 	movweq	r0, #4
     a80:	9f017300 	svcls	0x00017300
     a84:	0000047c 	andeq	r0, r0, ip, ror r4
     a88:	00000490 	muleq	r0, r0, r4
     a8c:	00530001 	subseq	r0, r3, r1
	...
     a98:	0c000000 	stceq	0, cr0, [r0], {-0}
     a9c:	01000000 	mrseq	r0, (UNDEF: 0)
     aa0:	00105000 	andseq	r5, r0, r0
     aa4:	00200000 	eoreq	r0, r0, r0
     aa8:	00010000 	andeq	r0, r1, r0
     aac:	00002450 	andeq	r2, r0, r0, asr r4
     ab0:	00002800 	andeq	r2, r0, r0, lsl #16
     ab4:	50000100 	andpl	r0, r0, r0, lsl #2
	...
     ac4:	00000010 	andeq	r0, r0, r0, lsl r0
     ac8:	10500001 	subsne	r0, r0, r1
     acc:	14000000 	strne	r0, [r0], #-0
     ad0:	01000000 	mrseq	r0, (UNDEF: 0)
     ad4:	00145300 	andseq	r5, r4, r0, lsl #6
     ad8:	00240000 	eoreq	r0, r4, r0
     adc:	00030000 	andeq	r0, r3, r0
     ae0:	249f7f73 	ldrcs	r7, [pc], #3955	; ae8 <loop3+0x10>
     ae4:	28000000 	stmdacs	r0, {}	; <UNPREDICTABLE>
     ae8:	01000000 	mrseq	r0, (UNDEF: 0)
     aec:	00005000 	andeq	r5, r0, r0
     af0:	00000000 	andeq	r0, r0, r0
     af4:	002c0000 	eoreq	r0, ip, r0
     af8:	00340000 	eorseq	r0, r4, r0
     afc:	00010000 	andeq	r0, r1, r0
     b00:	00003450 	andeq	r3, r0, r0, asr r4
     b04:	00004800 	andeq	r4, r0, r0, lsl #16
     b08:	52000100 	andpl	r0, r0, #0
	...
     b14:	0000002c 	andeq	r0, r0, ip, lsr #32
     b18:	00000030 	andeq	r0, r0, r0, lsr r0
     b1c:	30510001 	subscc	r0, r1, r1
     b20:	34000000 	strcc	r0, [r0], #-0
     b24:	03000000 	movweq	r0, #0
     b28:	9f017100 	svcls	0x00017100
	...
     b34:	00000048 	andeq	r0, r0, r8, asr #32
     b38:	00000050 	andeq	r0, r0, r0, asr r0
     b3c:	54500001 	ldrbpl	r0, [r0], #-1
     b40:	70000000 	andvc	r0, r0, r0
     b44:	01000000 	mrseq	r0, (UNDEF: 0)
     b48:	00005000 	andeq	r5, r0, r0
     b4c:	00000000 	andeq	r0, r0, r0
     b50:	00480000 	subeq	r0, r8, r0
     b54:	00540000 	subseq	r0, r4, r0
     b58:	00010000 	andeq	r0, r1, r0
     b5c:	00006452 	andeq	r6, r0, r2, asr r4
     b60:	00006800 	andeq	r6, r0, r0, lsl #16
     b64:	72000300 	andvc	r0, r0, #0
     b68:	00689f7f 	rsbeq	r9, r8, pc, ror pc
     b6c:	00700000 	rsbseq	r0, r0, r0
     b70:	00010000 	andeq	r0, r1, r0
     b74:	00000052 	andeq	r0, r0, r2, asr r0
     b78:	00000000 	andeq	r0, r0, r0
     b7c:	00004c00 	andeq	r4, r0, r0, lsl #24
     b80:	00005400 	andeq	r5, r0, r0, lsl #8
     b84:	50000100 	andpl	r0, r0, r0, lsl #2
	...
     b90:	00000070 	andeq	r0, r0, r0, ror r0
     b94:	00000084 	andeq	r0, r0, r4, lsl #1
     b98:	84500001 	ldrbhi	r0, [r0], #-1
     b9c:	88000000 	stmdahi	r0, {}	; <UNPREDICTABLE>
     ba0:	01000000 	mrseq	r0, (UNDEF: 0)
     ba4:	00885300 	addeq	r5, r8, r0, lsl #6
     ba8:	00900000 	addseq	r0, r0, r0
     bac:	00030000 	andeq	r0, r3, r0
     bb0:	909f7f73 	addsls	r7, pc, r3, ror pc	; <UNPREDICTABLE>
     bb4:	98000000 	stmdals	r0, {}	; <UNPREDICTABLE>
     bb8:	01000000 	mrseq	r0, (UNDEF: 0)
     bbc:	009c5300 	addseq	r5, ip, r0, lsl #6
     bc0:	00b00000 	adcseq	r0, r0, r0
     bc4:	00010000 	andeq	r0, r1, r0
     bc8:	00000052 	andeq	r0, r0, r2, asr r0
     bcc:	00000000 	andeq	r0, r0, r0
     bd0:	00007000 	andeq	r7, r0, r0
     bd4:	00009c00 	andeq	r9, r0, r0, lsl #24
     bd8:	51000100 	mrspl	r0, (UNDEF: 16)
	...
     be4:	000000b0 	strheq	r0, [r0], -r0	; <UNPREDICTABLE>
     be8:	000000b8 	strheq	r0, [r0], -r8
     bec:	007d0002 	rsbseq	r0, sp, r2
     bf0:	000000b8 	strheq	r0, [r0], -r8
     bf4:	00000118 	andeq	r0, r0, r8, lsl r1
     bf8:	047d0002 	ldrbteq	r0, [sp], #-2
	...
     c04:	000000b0 	strheq	r0, [r0], -r0	; <UNPREDICTABLE>
     c08:	000000d0 	ldrdeq	r0, [r0], -r0	; <UNPREDICTABLE>
     c0c:	d0500001 	subsle	r0, r0, r1
     c10:	d4000000 	strle	r0, [r0], #-0
     c14:	01000000 	mrseq	r0, (UNDEF: 0)
     c18:	00d45300 	sbcseq	r5, r4, r0, lsl #6
     c1c:	00dc0000 	sbcseq	r0, ip, r0
     c20:	00030000 	andeq	r0, r3, r0
     c24:	dc9f7f73 	ldcle	15, cr7, [pc], {115}	; 0x73
     c28:	e4000000 	str	r0, [r0], #-0
     c2c:	01000000 	mrseq	r0, (UNDEF: 0)
     c30:	00ec5300 	rsceq	r5, ip, r0, lsl #6
     c34:	00f00000 	rscseq	r0, r0, r0
     c38:	00010000 	andeq	r0, r1, r0
     c3c:	0000f053 	andeq	pc, r0, r3, asr r0	; <UNPREDICTABLE>
     c40:	00010000 	andeq	r0, r1, r0
     c44:	5c000100 	stfpls	f0, [r0], {-0}
     c48:	00000100 	andeq	r0, r0, r0, lsl #2
     c4c:	00000110 	andeq	r0, r0, r0, lsl r1
     c50:	00530001 	subseq	r0, r3, r1
     c54:	00000000 	andeq	r0, r0, r0
     c58:	b0000000 	andlt	r0, r0, r0
     c5c:	e8000000 	stmda	r0, {}	; <UNPREDICTABLE>
     c60:	01000000 	mrseq	r0, (UNDEF: 0)
     c64:	00e85100 	rsceq	r5, r8, r0, lsl #2
     c68:	00ec0000 	rsceq	r0, ip, r0
     c6c:	00030000 	andeq	r0, r3, r0
     c70:	009f0171 	addseq	r0, pc, r1, ror r1	; <UNPREDICTABLE>
     c74:	00000000 	andeq	r0, r0, r0
     c78:	b0000000 	andlt	r0, r0, r0
     c7c:	04000000 	streq	r0, [r0], #-0
     c80:	01000001 	tsteq	r0, r1
     c84:	01045200 	mrseq	r5, R12_usr
     c88:	01080000 	mrseq	r0, (UNDEF: 8)
     c8c:	00030000 	andeq	r0, r3, r0
     c90:	089f7f72 	ldmeq	pc, {r1, r4, r5, r6, r8, r9, sl, fp, ip, sp, lr}	; <UNPREDICTABLE>
     c94:	18000001 	stmdane	r0, {r0}
     c98:	01000001 	tsteq	r0, r1
     c9c:	00005200 	andeq	r5, r0, r0, lsl #4
     ca0:	00000000 	andeq	r0, r0, r0
     ca4:	01180000 	tsteq	r8, r0
     ca8:	01340000 	teqeq	r4, r0
     cac:	00010000 	andeq	r0, r1, r0
     cb0:	00013850 	andeq	r3, r1, r0, asr r8
     cb4:	00014400 	andeq	r4, r1, r0, lsl #8
     cb8:	50000100 	andpl	r0, r0, r0, lsl #2
	...
     cc4:	00000148 	andeq	r0, r0, r8, asr #2
     cc8:	00000150 	andeq	r0, r0, r0, asr r1
     ccc:	58500001 	ldmdapl	r0, {r0}^
     cd0:	78000001 	stmdavc	r0, {r0}
     cd4:	03000001 	movweq	r0, #1
     cd8:	9f017000 	svcls	0x00017000
     cdc:	000001b8 			; <UNDEFINED> instruction: 0x000001b8
     ce0:	000001bc 			; <UNDEFINED> instruction: 0x000001bc
     ce4:	01700003 	cmneq	r0, r3
     ce8:	0000009f 	muleq	r0, pc, r0	; <UNPREDICTABLE>
     cec:	00000000 	andeq	r0, r0, r0
     cf0:	00014800 	andeq	r4, r1, r0, lsl #16
     cf4:	00015c00 	andeq	r5, r1, r0, lsl #24
     cf8:	51000100 	mrspl	r0, (UNDEF: 16)
     cfc:	0000015c 	andeq	r0, r0, ip, asr r1
     d00:	00000178 	andeq	r0, r0, r8, ror r1
     d04:	01710003 	cmneq	r1, r3
     d08:	0001b89f 	muleq	r1, pc, r8	; <UNPREDICTABLE>
     d0c:	0001c000 	andeq	ip, r1, r0
     d10:	71000300 	mrsvc	r0, LR_irq
     d14:	00009f01 	andeq	r9, r0, r1, lsl #30
     d18:	00000000 	andeq	r0, r0, r0
     d1c:	01480000 	mrseq	r0, (UNDEF: 72)
     d20:	01700000 	cmneq	r0, r0
     d24:	00010000 	andeq	r0, r1, r0
     d28:	00000052 	andeq	r0, r0, r2, asr r0
     d2c:	00000000 	andeq	r0, r0, r0
     d30:	00015800 	andeq	r5, r1, r0, lsl #16
     d34:	00016c00 	andeq	r6, r1, r0, lsl #24
     d38:	53000100 	movwpl	r0, #256	; 0x100
     d3c:	0000017c 	andeq	r0, r0, ip, ror r1
     d40:	00000190 	muleq	r0, r0, r1
     d44:	b0530001 	subslt	r0, r3, r1
     d48:	b8000001 	stmdalt	r0, {r0}
     d4c:	01000001 	tsteq	r0, r1
     d50:	00005300 	andeq	r5, r0, r0, lsl #6
     d54:	00000000 	andeq	r0, r0, r0
     d58:	015c0000 	cmpeq	ip, r0
     d5c:	01780000 	cmneq	r8, r0
     d60:	00010000 	andeq	r0, r1, r0
     d64:	0001805c 	andeq	r8, r1, ip, asr r0
     d68:	00019000 	andeq	r9, r1, r0
     d6c:	5c000100 	stfpls	f0, [r0], {-0}
     d70:	000001b0 			; <UNDEFINED> instruction: 0x000001b0
     d74:	000001c0 	andeq	r0, r0, r0, asr #3
     d78:	005c0001 	subseq	r0, ip, r1
     d7c:	00000000 	andeq	r0, r0, r0
     d80:	c0000000 	andgt	r0, r0, r0
     d84:	c4000001 	strgt	r0, [r0], #-1
     d88:	02000001 	andeq	r0, r0, #1
     d8c:	c4007d00 	strgt	r7, [r0], #-3328	; 0xd00
     d90:	dc000001 	stcle	0, cr0, [r0], {1}
     d94:	02000001 	andeq	r0, r0, #1
     d98:	dc207d00 	stcle	13, cr7, [r0], #-0
     d9c:	a4000001 	strge	r0, [r0], #-1
     da0:	03000002 	movweq	r0, #2
     da4:	00c87d00 	sbceq	r7, r8, r0, lsl #26
	...
     db0:	000001c0 	andeq	r0, r0, r0, asr #3
     db4:	000001e4 	andeq	r0, r0, r4, ror #3
     db8:	e4500001 	ldrb	r0, [r0], #-1
     dbc:	18000001 	stmdane	r0, {r0}
     dc0:	01000002 	tsteq	r0, r2
     dc4:	02185400 	andseq	r5, r8, #0
     dc8:	021c0000 	andseq	r0, ip, #0
     dcc:	00010000 	andeq	r0, r1, r0
     dd0:	00024450 	andeq	r4, r2, r0, asr r4
     dd4:	00029400 	andeq	r9, r2, r0, lsl #8
     dd8:	50000100 	andpl	r0, r0, r0, lsl #2
	...
     de4:	000001c0 	andeq	r0, r0, r0, asr #3
     de8:	000001e4 	andeq	r0, r0, r4, ror #3
     dec:	e4510001 	ldrb	r0, [r1], #-1
     df0:	a4000001 	strge	r0, [r0], #-1
     df4:	01000002 	tsteq	r0, r2
     df8:	00005700 	andeq	r5, r0, r0, lsl #14
     dfc:	00000000 	andeq	r0, r0, r0
     e00:	01c00000 	biceq	r0, r0, r0
     e04:	01e40000 	mvneq	r0, r0
     e08:	00010000 	andeq	r0, r1, r0
     e0c:	0001e452 	andeq	lr, r1, r2, asr r4
     e10:	0002a400 	andeq	sl, r2, r0, lsl #8
     e14:	55000100 	strpl	r0, [r0, #-256]	; 0x100
	...
     e20:	000001c0 	andeq	r0, r0, r0, asr #3
     e24:	00000200 	andeq	r0, r0, r0, lsl #4
     e28:	9f300002 	svcls	0x00300002
     e2c:	00000200 	andeq	r0, r0, r0, lsl #4
     e30:	0000020c 	andeq	r0, r0, ip, lsl #4
     e34:	9f310002 	svcls	0x00310002
     e38:	0000020c 	andeq	r0, r0, ip, lsl #4
     e3c:	00000260 	andeq	r0, r0, r0, ror #4
     e40:	00590001 	subseq	r0, r9, r1
     e44:	00000000 	andeq	r0, r0, r0
     e48:	0c000000 	stceq	0, cr0, [r0], {-0}
     e4c:	18000002 	stmdane	r0, {r1}
     e50:	02000002 	andeq	r0, r0, #2
     e54:	189f3000 	ldmne	pc, {ip, sp}	; <UNPREDICTABLE>
     e58:	1c000002 	stcne	0, cr0, [r0], {2}
     e5c:	01000002 	tsteq	r0, r2
     e60:	024c5300 	subeq	r5, ip, #0
     e64:	025c0000 	subseq	r0, ip, #0
     e68:	00010000 	andeq	r0, r1, r0
     e6c:	00026453 	andeq	r6, r2, r3, asr r4
     e70:	00029400 	andeq	r9, r2, r0, lsl #8
     e74:	56000100 	strpl	r0, [r0], -r0, lsl #2
	...
     e80:	00000258 	andeq	r0, r0, r8, asr r2
     e84:	00000264 	andeq	r0, r0, r4, ror #4
     e88:	9f300002 	svcls	0x00300002
     e8c:	00000264 	andeq	r0, r0, r4, ror #4
     e90:	00000270 	andeq	r0, r0, r0, ror r2
     e94:	00590001 	subseq	r0, r9, r1
     e98:	00000000 	andeq	r0, r0, r0
     e9c:	a4000000 	strge	r0, [r0], #-0
     ea0:	a8000002 	stmdage	r0, {r1}
     ea4:	02000002 	andeq	r0, r0, #2
     ea8:	a8007d00 	stmdage	r0, {r8, sl, fp, ip, sp, lr}
     eac:	c0000002 	andgt	r0, r0, r2
     eb0:	02000002 	andeq	r0, r0, #2
     eb4:	c01c7d00 	andsgt	r7, ip, r0, lsl #26
     eb8:	60000002 	andvs	r0, r0, r2
     ebc:	03000003 	movweq	r0, #3
     ec0:	00c87d00 	sbceq	r7, r8, r0, lsl #26
	...
     ecc:	000002a4 	andeq	r0, r0, r4, lsr #5
     ed0:	000002d0 	ldrdeq	r0, [r0], -r0	; <UNPREDICTABLE>
     ed4:	d0500001 	subsle	r0, r0, r1
     ed8:	f0000002 			; <UNDEFINED> instruction: 0xf0000002
     edc:	01000002 	tsteq	r0, r2
     ee0:	02f05400 	rscseq	r5, r0, #0
     ee4:	02f40000 	rscseq	r0, r4, #0
     ee8:	00010000 	andeq	r0, r1, r0
     eec:	00031c50 	andeq	r1, r3, r0, asr ip
     ef0:	00035000 	andeq	r5, r3, r0
     ef4:	50000100 	andpl	r0, r0, r0, lsl #2
	...
     f00:	000002a4 	andeq	r0, r0, r4, lsr #5
     f04:	000002d0 	ldrdeq	r0, [r0], -r0	; <UNPREDICTABLE>
     f08:	d0510001 	subsle	r0, r1, r1
     f0c:	60000002 	andvs	r0, r0, r2
     f10:	01000003 	tsteq	r0, r3
     f14:	00005700 	andeq	r5, r0, r0, lsl #14
     f18:	00000000 	andeq	r0, r0, r0
     f1c:	02a40000 	adceq	r0, r4, #0
     f20:	02d00000 	sbcseq	r0, r0, #0
     f24:	00010000 	andeq	r0, r1, r0
     f28:	0002d052 	andeq	sp, r2, r2, asr r0
     f2c:	00036000 	andeq	r6, r3, r0
     f30:	55000100 	strpl	r0, [r0, #-256]	; 0x100
	...
     f3c:	000002f0 	strdeq	r0, [r0], -r0	; <UNPREDICTABLE>
     f40:	000002f4 	strdeq	r0, [r0], -r4
     f44:	24530001 	ldrbcs	r0, [r3], #-1
     f48:	28000003 	stmdacs	r0, {r0, r1}
     f4c:	01000003 	tsteq	r0, r3
     f50:	03285300 	teqeq	r8, #0
     f54:	03340000 	teqeq	r4, #0
     f58:	00010000 	andeq	r0, r1, r0
     f5c:	00000058 	andeq	r0, r0, r8, asr r0
     f60:	00000000 	andeq	r0, r0, r0
     f64:	00032800 	andeq	r2, r3, r0, lsl #16
     f68:	00033400 	andeq	r3, r3, r0, lsl #8
     f6c:	30000200 	andcc	r0, r0, r0, lsl #4
     f70:	0000009f 	muleq	r0, pc, r0	; <UNPREDICTABLE>
     f74:	00000000 	andeq	r0, r0, r0
     f78:	00036000 	andeq	r6, r3, r0
     f7c:	00036400 	andeq	r6, r3, r0, lsl #8
     f80:	7d000200 	sfmvc	f0, 4, [r0, #-0]
     f84:	00036400 	andeq	r6, r3, r0, lsl #8
     f88:	00037c00 	andeq	r7, r3, r0, lsl #24
     f8c:	7d000200 	sfmvc	f0, 4, [r0, #-0]
     f90:	00037c14 	andeq	r7, r3, r4, lsl ip
     f94:	0003bc00 	andeq	fp, r3, r0, lsl #24
     f98:	7d000200 	sfmvc	f0, 4, [r0, #-0]
     f9c:	00000030 	andeq	r0, r0, r0, lsr r0
     fa0:	00000000 	andeq	r0, r0, r0
     fa4:	00036000 	andeq	r6, r3, r0
     fa8:	00038800 	andeq	r8, r3, r0, lsl #16
     fac:	50000100 	andpl	r0, r0, r0, lsl #2
     fb0:	00000388 	andeq	r0, r0, r8, lsl #7
     fb4:	000003bc 			; <UNDEFINED> instruction: 0x000003bc
     fb8:	00570001 	subseq	r0, r7, r1
     fbc:	00000000 	andeq	r0, r0, r0
     fc0:	60000000 	andvs	r0, r0, r0
     fc4:	88000003 	stmdahi	r0, {r0, r1}
     fc8:	01000003 	tsteq	r0, r3
     fcc:	00005100 	andeq	r5, r0, r0, lsl #2
     fd0:	00000000 	andeq	r0, r0, r0
     fd4:	03600000 	cmneq	r0, #0
     fd8:	03880000 	orreq	r0, r8, #0
     fdc:	00010000 	andeq	r0, r1, r0
     fe0:	00038852 	andeq	r8, r3, r2, asr r8
     fe4:	0003bc00 	andeq	fp, r3, r0, lsl #24
     fe8:	56000100 	strpl	r0, [r0], -r0, lsl #2
	...
     ff4:	000003bc 			; <UNDEFINED> instruction: 0x000003bc
     ff8:	000003c0 	andeq	r0, r0, r0, asr #7
     ffc:	007d0002 	rsbseq	r0, sp, r2
    1000:	000003c0 	andeq	r0, r0, r0, asr #7
    1004:	000003c4 	andeq	r0, r0, r4, asr #7
    1008:	107d0002 	rsbsne	r0, sp, r2
    100c:	000003c4 	andeq	r0, r0, r4, asr #7
    1010:	000003c8 	andeq	r0, r0, r8, asr #7
    1014:	307d0002 	rsbscc	r0, sp, r2
    1018:	000003c8 	andeq	r0, r0, r8, asr #7
    101c:	00000690 	muleq	r0, r0, r6
    1020:	c87d0003 	ldmdagt	sp!, {r0, r1}^
	...
    102c:	0003bc00 	andeq	fp, r3, r0, lsl #24
    1030:	0003d400 	andeq	sp, r3, r0, lsl #8
    1034:	91000200 	mrsls	r0, R8_usr
    1038:	0003d470 	andeq	sp, r3, r0, ror r4
    103c:	0003f800 	andeq	pc, r3, r0, lsl #16
    1040:	91000200 	mrsls	r0, R8_usr
    1044:	0003f848 	andeq	pc, r3, r8, asr #16
    1048:	00041400 	andeq	r1, r4, r0, lsl #8
    104c:	54000100 	strpl	r0, [r0], #-256	; 0x100
    1050:	00000414 	andeq	r0, r0, r4, lsl r4
    1054:	0000042c 	andeq	r0, r0, ip, lsr #8
    1058:	01740003 	cmneq	r4, r3
    105c:	0004349f 	muleq	r4, pc, r4	; <UNPREDICTABLE>
    1060:	00069000 	andeq	r9, r6, r0
    1064:	54000100 	strpl	r0, [r0], #-256	; 0x100
	...
    1070:	000003bc 			; <UNDEFINED> instruction: 0x000003bc
    1074:	000003f8 	strdeq	r0, [r0], -r8
    1078:	88030006 	stmdahi	r3, {r1, r2}
    107c:	9f00002d 	svcls	0x0000002d
    1080:	000003f8 	strdeq	r0, [r0], -r8
    1084:	00000408 	andeq	r0, r0, r8, lsl #8
    1088:	a8550001 	ldmdage	r5, {r0}^
    108c:	c0000004 	andgt	r0, r0, r4
    1090:	01000004 	tsteq	r0, r4
    1094:	052c5500 	streq	r5, [ip, #-1280]!	; 0x500
    1098:	05300000 	ldreq	r0, [r0, #-0]!
    109c:	00010000 	andeq	r0, r1, r0
    10a0:	00057c55 	andeq	r7, r5, r5, asr ip
    10a4:	00058000 	andeq	r8, r5, r0
    10a8:	55000100 	strpl	r0, [r0, #-256]	; 0x100
    10ac:	000005ec 	andeq	r0, r0, ip, ror #11
    10b0:	000005f0 	strdeq	r0, [r0], -r0	; <UNPREDICTABLE>
    10b4:	0c550001 	mrrceq	0, 0, r0, r5, cr1
    10b8:	18000006 	stmdane	r0, {r1, r2}
    10bc:	03000006 	movweq	r0, #6
    10c0:	9f017500 	svcls	0x00017500
    10c4:	00000618 	andeq	r0, r0, r8, lsl r6
    10c8:	0000061c 	andeq	r0, r0, ip, lsl r6
    10cc:	88550001 	ldmdahi	r5, {r0}^
    10d0:	90000006 	andls	r0, r0, r6
    10d4:	01000006 	tsteq	r0, r6
    10d8:	00005500 	andeq	r5, r0, r0, lsl #10
    10dc:	00000000 	andeq	r0, r0, r0
    10e0:	05440000 	strbeq	r0, [r4, #-0]
    10e4:	05800000 	streq	r0, [r0]
    10e8:	00040000 	andeq	r0, r4, r0
    10ec:	067fa491 			; <UNDEFINED> instruction: 0x067fa491
	...
    10f8:	00000430 	andeq	r0, r0, r0, lsr r4
    10fc:	0000049c 	muleq	r0, ip, r4
    1100:	c0570001 	subsgt	r0, r7, r1
    1104:	90000004 	andls	r0, r0, r4
    1108:	01000006 	tsteq	r0, r6
    110c:	00005700 	andeq	r5, r0, r0, lsl #14
    1110:	00000000 	andeq	r0, r0, r0
    1114:	03bc0000 			; <UNDEFINED> instruction: 0x03bc0000
    1118:	03f80000 	mvnseq	r0, #0
    111c:	00020000 	andeq	r0, r2, r0
    1120:	04fc9f30 	ldrbteq	r9, [ip], #3888	; 0xf30
    1124:	05140000 	ldreq	r0, [r4, #-0]
    1128:	00010000 	andeq	r0, r1, r0
    112c:	0005145a 	andeq	r1, r5, sl, asr r4
    1130:	00053000 	andeq	r3, r5, r0
    1134:	50000100 	andpl	r0, r0, r0, lsl #2
    1138:	000005bc 			; <UNDEFINED> instruction: 0x000005bc
    113c:	000005d4 	ldrdeq	r0, [r0], -r4
    1140:	d45a0001 	ldrble	r0, [sl], #-1
    1144:	f0000005 			; <UNDEFINED> instruction: 0xf0000005
    1148:	01000005 	tsteq	r0, r5
    114c:	06585000 	ldrbeq	r5, [r8], -r0
    1150:	06700000 	ldrbteq	r0, [r0], -r0
    1154:	00010000 	andeq	r0, r1, r0
    1158:	0006705a 	andeq	r7, r6, sl, asr r0
    115c:	00069000 	andeq	r9, r6, r0
    1160:	50000100 	andpl	r0, r0, r0, lsl #2
	...
    116c:	000004dc 	ldrdeq	r0, [r0], -ip
    1170:	00000530 	andeq	r0, r0, r0, lsr r5
    1174:	00560001 	subseq	r0, r6, r1
    1178:	00000000 	andeq	r0, r0, r0
    117c:	dc000000 	stcle	0, cr0, [r0], {-0}
    1180:	ec000004 	stc	0, cr0, [r0], {4}
    1184:	01000004 	tsteq	r0, r4
    1188:	04ec5600 	strbteq	r5, [ip], #1536	; 0x600
    118c:	04f00000 	ldrbteq	r0, [r0], #0
    1190:	00010000 	andeq	r0, r1, r0
    1194:	0004f05a 	andeq	pc, r4, sl, asr r0	; <UNPREDICTABLE>
    1198:	0004fc00 	andeq	pc, r4, r0, lsl #24
    119c:	7a000300 	bvc	1da4 <printk_nommu+0x78>
    11a0:	00009f7f 	andeq	r9, r0, pc, ror pc
    11a4:	00000000 	andeq	r0, r0, r0
    11a8:	05140000 	ldreq	r0, [r4, #-0]
    11ac:	05180000 	ldreq	r0, [r8, #-0]
    11b0:	00010000 	andeq	r0, r1, r0
    11b4:	00000056 	andeq	r0, r0, r6, asr r0
    11b8:	00000000 	andeq	r0, r0, r0
    11bc:	00051400 	andeq	r1, r5, r0, lsl #8
    11c0:	00051800 	andeq	r1, r5, r0, lsl #16
    11c4:	55000100 	strpl	r0, [r0, #-256]	; 0x100
    11c8:	00000518 	andeq	r0, r0, r8, lsl r5
    11cc:	00000530 	andeq	r0, r0, r0, lsr r5
    11d0:	00510001 	subseq	r0, r1, r1
    11d4:	00000000 	andeq	r0, r0, r0
    11d8:	14000000 	strne	r0, [r0], #-0
    11dc:	2c000005 	stccs	0, cr0, [r0], {5}
    11e0:	01000005 	tsteq	r0, r5
    11e4:	00005500 	andeq	r5, r0, r0, lsl #10
    11e8:	00000000 	andeq	r0, r0, r0
    11ec:	05440000 	strbeq	r0, [r4, #-0]
    11f0:	05480000 	strbeq	r0, [r8, #-0]
    11f4:	00040000 	andeq	r0, r4, r0
    11f8:	067fa491 			; <UNDEFINED> instruction: 0x067fa491
	...
    1204:	00000544 	andeq	r0, r0, r4, asr #10
    1208:	00000548 	andeq	r0, r0, r8, asr #10
    120c:	48550001 	ldmdami	r5, {r0}^
    1210:	80000005 	andhi	r0, r0, r5
    1214:	01000005 	tsteq	r0, r5
    1218:	00005100 	andeq	r5, r0, r0, lsl #2
    121c:	00000000 	andeq	r0, r0, r0
    1220:	05440000 	strbeq	r0, [r4, #-0]
    1224:	057c0000 	ldrbeq	r0, [ip, #-0]!
    1228:	00010000 	andeq	r0, r1, r0
    122c:	00000055 	andeq	r0, r0, r5, asr r0
    1230:	00000000 	andeq	r0, r0, r0
    1234:	00055800 	andeq	r5, r5, r0, lsl #16
    1238:	00056800 	andeq	r6, r5, r0, lsl #16
    123c:	91000400 	tstls	r0, r0, lsl #8
    1240:	68067fa4 	stmdavs	r6, {r2, r5, r7, r8, r9, sl, fp, ip, sp, lr}
    1244:	6c000005 	stcvs	0, cr0, [r0], {5}
    1248:	01000005 	tsteq	r0, r5
    124c:	056c5300 	strbeq	r5, [ip, #-768]!	; 0x300
    1250:	05780000 	ldrbeq	r0, [r8, #-0]!
    1254:	00030000 	andeq	r0, r3, r0
    1258:	009f7f73 	addseq	r7, pc, r3, ror pc	; <UNPREDICTABLE>
    125c:	00000000 	andeq	r0, r0, r0
    1260:	9c000000 	stcls	0, cr0, [r0], {-0}
    1264:	f0000005 			; <UNDEFINED> instruction: 0xf0000005
    1268:	01000005 	tsteq	r0, r5
    126c:	00005600 	andeq	r5, r0, r0, lsl #12
    1270:	00000000 	andeq	r0, r0, r0
    1274:	059c0000 	ldreq	r0, [ip]
    1278:	05ac0000 	streq	r0, [ip, #0]!
    127c:	00010000 	andeq	r0, r1, r0
    1280:	0005ac56 	andeq	sl, r5, r6, asr ip
    1284:	0005b000 	andeq	fp, r5, r0
    1288:	5a000100 	bpl	1690 <serial_gets+0x80>
    128c:	000005b0 			; <UNDEFINED> instruction: 0x000005b0
    1290:	000005bc 			; <UNDEFINED> instruction: 0x000005bc
    1294:	7f7a0003 	svcvc	0x007a0003
    1298:	0000009f 	muleq	r0, pc, r0	; <UNPREDICTABLE>
    129c:	00000000 	andeq	r0, r0, r0
    12a0:	0005d400 	andeq	sp, r5, r0, lsl #8
    12a4:	0005d800 	andeq	sp, r5, r0, lsl #16
    12a8:	56000100 	strpl	r0, [r0], -r0, lsl #2
	...
    12b4:	000005d4 	ldrdeq	r0, [r0], -r4
    12b8:	000005d8 	ldrdeq	r0, [r0], -r8
    12bc:	d8550001 	ldmdale	r5, {r0}^
    12c0:	f0000005 			; <UNDEFINED> instruction: 0xf0000005
    12c4:	01000005 	tsteq	r0, r5
    12c8:	00005100 	andeq	r5, r0, r0, lsl #2
    12cc:	00000000 	andeq	r0, r0, r0
    12d0:	05d40000 	ldrbeq	r0, [r4]
    12d4:	05ec0000 	strbeq	r0, [ip, #0]!
    12d8:	00010000 	andeq	r0, r1, r0
    12dc:	00000055 	andeq	r0, r0, r5, asr r0
    12e0:	00000000 	andeq	r0, r0, r0
    12e4:	00063800 	andeq	r3, r6, r0, lsl #16
    12e8:	00064800 	andeq	r4, r6, r0, lsl #16
    12ec:	56000100 	strpl	r0, [r0], -r0, lsl #2
    12f0:	00000648 	andeq	r0, r0, r8, asr #12
    12f4:	0000064c 	andeq	r0, r0, ip, asr #12
    12f8:	4c5a0001 	mrrcmi	0, 0, r0, sl, cr1
    12fc:	58000006 	stmdapl	r0, {r1, r2}
    1300:	03000006 	movweq	r0, #6
    1304:	9f7f7a00 	svcls	0x007f7a00
	...
    1310:	00000670 	andeq	r0, r0, r0, ror r6
    1314:	00000674 	andeq	r0, r0, r4, ror r6
    1318:	00560001 	subseq	r0, r6, r1
    131c:	00000000 	andeq	r0, r0, r0
    1320:	70000000 	andvc	r0, r0, r0
    1324:	74000006 	strvc	r0, [r0], #-6
    1328:	01000006 	tsteq	r0, r6
    132c:	06745500 	ldrbteq	r5, [r4], -r0, lsl #10
    1330:	06900000 	ldreq	r0, [r0], r0
    1334:	00010000 	andeq	r0, r1, r0
    1338:	00000051 	andeq	r0, r0, r1, asr r0
    133c:	00000000 	andeq	r0, r0, r0
    1340:	00067000 	andeq	r7, r6, r0
    1344:	00068800 	andeq	r8, r6, r0, lsl #16
    1348:	55000100 	strpl	r0, [r0, #-256]	; 0x100
	...
    1354:	00000690 	muleq	r0, r0, r6
    1358:	00000694 	muleq	r0, r4, r6
    135c:	007d0002 	rsbseq	r0, sp, r2
    1360:	00000694 	muleq	r0, r4, r6
    1364:	00000698 	muleq	r0, r8, r6
    1368:	107d0002 	rsbsne	r0, sp, r2
    136c:	00000698 	muleq	r0, r8, r6
    1370:	0000069c 	muleq	r0, ip, r6
    1374:	307d0002 	rsbscc	r0, sp, r2
    1378:	0000069c 	muleq	r0, ip, r6
    137c:	00000964 	andeq	r0, r0, r4, ror #18
    1380:	c87d0003 	ldmdagt	sp!, {r0, r1}^
	...
    138c:	00069000 	andeq	r9, r6, r0
    1390:	0006a800 	andeq	sl, r6, r0, lsl #16
    1394:	91000200 	mrsls	r0, R8_usr
    1398:	0006a870 	andeq	sl, r6, r0, ror r8
    139c:	0006cc00 	andeq	ip, r6, r0, lsl #24
    13a0:	91000200 	mrsls	r0, R8_usr
    13a4:	0006cc48 	andeq	ip, r6, r8, asr #24
    13a8:	0006e800 	andeq	lr, r6, r0, lsl #16
    13ac:	54000100 	strpl	r0, [r0], #-256	; 0x100
    13b0:	000006e8 	andeq	r0, r0, r8, ror #13
    13b4:	00000700 	andeq	r0, r0, r0, lsl #14
    13b8:	01740003 	cmneq	r4, r3
    13bc:	0007089f 	muleq	r7, pc, r8	; <UNPREDICTABLE>
    13c0:	00096400 	andeq	r6, r9, r0, lsl #8
    13c4:	54000100 	strpl	r0, [r0], #-256	; 0x100
	...
    13d0:	00000690 	muleq	r0, r0, r6
    13d4:	000006cc 	andeq	r0, r0, ip, asr #13
    13d8:	88030006 	stmdahi	r3, {r1, r2}
    13dc:	9f00002d 	svcls	0x0000002d
    13e0:	000006cc 	andeq	r0, r0, ip, asr #13
    13e4:	000006dc 	ldrdeq	r0, [r0], -ip
    13e8:	7c550001 	mrrcvc	0, 0, r0, r5, cr1
    13ec:	94000007 	strls	r0, [r0], #-7
    13f0:	01000007 	tsteq	r0, r7
    13f4:	08005500 	stmdaeq	r0, {r8, sl, ip, lr}
    13f8:	08040000 	stmdaeq	r4, {}	; <UNPREDICTABLE>
    13fc:	00010000 	andeq	r0, r1, r0
    1400:	00085055 	andeq	r5, r8, r5, asr r0
    1404:	00085400 	andeq	r5, r8, r0, lsl #8
    1408:	55000100 	strpl	r0, [r0, #-256]	; 0x100
    140c:	000008c0 	andeq	r0, r0, r0, asr #17
    1410:	000008c4 	andeq	r0, r0, r4, asr #17
    1414:	e0550001 	subs	r0, r5, r1
    1418:	ec000008 	stc	0, cr0, [r0], {8}
    141c:	03000008 	movweq	r0, #8
    1420:	9f017500 	svcls	0x00017500
    1424:	000008ec 	andeq	r0, r0, ip, ror #17
    1428:	000008f0 	strdeq	r0, [r0], -r0	; <UNPREDICTABLE>
    142c:	5c550001 	mrrcpl	0, 0, r0, r5, cr1
    1430:	64000009 	strvs	r0, [r0], #-9
    1434:	01000009 	tsteq	r0, r9
    1438:	00005500 	andeq	r5, r0, r0, lsl #10
    143c:	00000000 	andeq	r0, r0, r0
    1440:	08180000 	ldmdaeq	r8, {}	; <UNPREDICTABLE>
    1444:	08540000 	ldmdaeq	r4, {}^	; <UNPREDICTABLE>
    1448:	00040000 	andeq	r0, r4, r0
    144c:	067fa491 			; <UNDEFINED> instruction: 0x067fa491
	...
    1458:	00000704 	andeq	r0, r0, r4, lsl #14
    145c:	00000770 	andeq	r0, r0, r0, ror r7
    1460:	94570001 	ldrbls	r0, [r7], #-1
    1464:	64000007 	strvs	r0, [r0], #-7
    1468:	01000009 	tsteq	r0, r9
    146c:	00005700 	andeq	r5, r0, r0, lsl #14
    1470:	00000000 	andeq	r0, r0, r0
    1474:	06900000 	ldreq	r0, [r0], r0
    1478:	06cc0000 	strbeq	r0, [ip], r0
    147c:	00020000 	andeq	r0, r2, r0
    1480:	07d09f30 			; <UNDEFINED> instruction: 0x07d09f30
    1484:	07e80000 	strbeq	r0, [r8, r0]!
    1488:	00010000 	andeq	r0, r1, r0
    148c:	0007e85a 	andeq	lr, r7, sl, asr r8
    1490:	00080400 	andeq	r0, r8, r0, lsl #8
    1494:	50000100 	andpl	r0, r0, r0, lsl #2
    1498:	00000890 	muleq	r0, r0, r8
    149c:	000008a8 	andeq	r0, r0, r8, lsr #17
    14a0:	a85a0001 	ldmdage	sl, {r0}^
    14a4:	c4000008 	strgt	r0, [r0], #-8
    14a8:	01000008 	tsteq	r0, r8
    14ac:	092c5000 	stmdbeq	ip!, {ip, lr}
    14b0:	09440000 	stmdbeq	r4, {}^	; <UNPREDICTABLE>
    14b4:	00010000 	andeq	r0, r1, r0
    14b8:	0009445a 	andeq	r4, r9, sl, asr r4
    14bc:	00096400 	andeq	r6, r9, r0, lsl #8
    14c0:	50000100 	andpl	r0, r0, r0, lsl #2
	...
    14cc:	000007b0 			; <UNDEFINED> instruction: 0x000007b0
    14d0:	00000804 	andeq	r0, r0, r4, lsl #16
    14d4:	00560001 	subseq	r0, r6, r1
    14d8:	00000000 	andeq	r0, r0, r0
    14dc:	b0000000 	andlt	r0, r0, r0
    14e0:	c0000007 	andgt	r0, r0, r7
    14e4:	01000007 	tsteq	r0, r7
    14e8:	07c05600 	strbeq	r5, [r0, r0, lsl #12]
    14ec:	07c40000 	strbeq	r0, [r4, r0]
    14f0:	00010000 	andeq	r0, r1, r0
    14f4:	0007c45a 	andeq	ip, r7, sl, asr r4
    14f8:	0007d000 	andeq	sp, r7, r0
    14fc:	7a000300 	bvc	2104 <__aeabi_idiv+0x24>
    1500:	00009f7f 	andeq	r9, r0, pc, ror pc
    1504:	00000000 	andeq	r0, r0, r0
    1508:	07e80000 	strbeq	r0, [r8, r0]!
    150c:	07ec0000 	strbeq	r0, [ip, r0]!
    1510:	00010000 	andeq	r0, r1, r0
    1514:	00000056 	andeq	r0, r0, r6, asr r0
    1518:	00000000 	andeq	r0, r0, r0
    151c:	0007e800 	andeq	lr, r7, r0, lsl #16
    1520:	0007ec00 	andeq	lr, r7, r0, lsl #24
    1524:	55000100 	strpl	r0, [r0, #-256]	; 0x100
    1528:	000007ec 	andeq	r0, r0, ip, ror #15
    152c:	00000804 	andeq	r0, r0, r4, lsl #16
    1530:	00510001 	subseq	r0, r1, r1
    1534:	00000000 	andeq	r0, r0, r0
    1538:	e8000000 	stmda	r0, {}	; <UNPREDICTABLE>
    153c:	00000007 	andeq	r0, r0, r7
    1540:	01000008 	tsteq	r0, r8
    1544:	00005500 	andeq	r5, r0, r0, lsl #10
    1548:	00000000 	andeq	r0, r0, r0
    154c:	08180000 	ldmdaeq	r8, {}	; <UNPREDICTABLE>
    1550:	081c0000 	ldmdaeq	ip, {}	; <UNPREDICTABLE>
    1554:	00040000 	andeq	r0, r4, r0
    1558:	067fa491 			; <UNDEFINED> instruction: 0x067fa491
	...
    1564:	00000818 	andeq	r0, r0, r8, lsl r8
    1568:	0000081c 	andeq	r0, r0, ip, lsl r8
    156c:	1c550001 	mrrcne	0, 0, r0, r5, cr1
    1570:	54000008 	strpl	r0, [r0], #-8
    1574:	01000008 	tsteq	r0, r8
    1578:	00005100 	andeq	r5, r0, r0, lsl #2
    157c:	00000000 	andeq	r0, r0, r0
    1580:	08180000 	ldmdaeq	r8, {}	; <UNPREDICTABLE>
    1584:	08500000 	ldmdaeq	r0, {}^	; <UNPREDICTABLE>
    1588:	00010000 	andeq	r0, r1, r0
    158c:	00000055 	andeq	r0, r0, r5, asr r0
    1590:	00000000 	andeq	r0, r0, r0
    1594:	00082c00 	andeq	r2, r8, r0, lsl #24
    1598:	00083c00 	andeq	r3, r8, r0, lsl #24
    159c:	91000400 	tstls	r0, r0, lsl #8
    15a0:	3c067fa4 	stccc	15, cr7, [r6], {164}	; 0xa4
    15a4:	40000008 	andmi	r0, r0, r8
    15a8:	01000008 	tsteq	r0, r8
    15ac:	08405300 	stmdaeq	r0, {r8, r9, ip, lr}^
    15b0:	084c0000 	stmdaeq	ip, {}^	; <UNPREDICTABLE>
    15b4:	00030000 	andeq	r0, r3, r0
    15b8:	009f7f73 	addseq	r7, pc, r3, ror pc	; <UNPREDICTABLE>
    15bc:	00000000 	andeq	r0, r0, r0
    15c0:	70000000 	andvc	r0, r0, r0
    15c4:	c4000008 	strgt	r0, [r0], #-8
    15c8:	01000008 	tsteq	r0, r8
    15cc:	00005600 	andeq	r5, r0, r0, lsl #12
    15d0:	00000000 	andeq	r0, r0, r0
    15d4:	08700000 	ldmdaeq	r0!, {}^	; <UNPREDICTABLE>
    15d8:	08800000 	stmeq	r0, {}	; <UNPREDICTABLE>
    15dc:	00010000 	andeq	r0, r1, r0
    15e0:	00088056 	andeq	r8, r8, r6, asr r0
    15e4:	00088400 	andeq	r8, r8, r0, lsl #8
    15e8:	5a000100 	bpl	19f0 <utoa+0xb0>
    15ec:	00000884 	andeq	r0, r0, r4, lsl #17
    15f0:	00000890 	muleq	r0, r0, r8
    15f4:	7f7a0003 	svcvc	0x007a0003
    15f8:	0000009f 	muleq	r0, pc, r0	; <UNPREDICTABLE>
    15fc:	00000000 	andeq	r0, r0, r0
    1600:	0008a800 	andeq	sl, r8, r0, lsl #16
    1604:	0008ac00 	andeq	sl, r8, r0, lsl #24
    1608:	56000100 	strpl	r0, [r0], -r0, lsl #2
	...
    1614:	000008a8 	andeq	r0, r0, r8, lsr #17
    1618:	000008ac 	andeq	r0, r0, ip, lsr #17
    161c:	ac550001 	mrrcge	0, 0, r0, r5, cr1
    1620:	c4000008 	strgt	r0, [r0], #-8
    1624:	01000008 	tsteq	r0, r8
    1628:	00005100 	andeq	r5, r0, r0, lsl #2
    162c:	00000000 	andeq	r0, r0, r0
    1630:	08a80000 	stmiaeq	r8!, {}	; <UNPREDICTABLE>
    1634:	08c00000 	stmiaeq	r0, {}^	; <UNPREDICTABLE>
    1638:	00010000 	andeq	r0, r1, r0
    163c:	00000055 	andeq	r0, r0, r5, asr r0
    1640:	00000000 	andeq	r0, r0, r0
    1644:	00090c00 	andeq	r0, r9, r0, lsl #24
    1648:	00091c00 	andeq	r1, r9, r0, lsl #24
    164c:	56000100 	strpl	r0, [r0], -r0, lsl #2
    1650:	0000091c 	andeq	r0, r0, ip, lsl r9
    1654:	00000920 	andeq	r0, r0, r0, lsr #18
    1658:	205a0001 	subscs	r0, sl, r1
    165c:	2c000009 	stccs	0, cr0, [r0], {9}
    1660:	03000009 	movweq	r0, #9
    1664:	9f7f7a00 	svcls	0x007f7a00
	...
    1670:	00000944 	andeq	r0, r0, r4, asr #18
    1674:	00000948 	andeq	r0, r0, r8, asr #18
    1678:	00560001 	subseq	r0, r6, r1
    167c:	00000000 	andeq	r0, r0, r0
    1680:	44000000 	strmi	r0, [r0], #-0
    1684:	48000009 	stmdami	r0, {r0, r3}
    1688:	01000009 	tsteq	r0, r9
    168c:	09485500 	stmdbeq	r8, {r8, sl, ip, lr}^
    1690:	09640000 	stmdbeq	r4!, {}^	; <UNPREDICTABLE>
    1694:	00010000 	andeq	r0, r1, r0
    1698:	00000051 	andeq	r0, r0, r1, asr r0
    169c:	00000000 	andeq	r0, r0, r0
    16a0:	00094400 	andeq	r4, r9, r0, lsl #8
    16a4:	00095c00 	andeq	r5, r9, r0, lsl #24
    16a8:	55000100 	strpl	r0, [r0, #-256]	; 0x100
	...
    16b4:	0000000c 	andeq	r0, r0, ip
    16b8:	00000054 	andeq	r0, r0, r4, asr r0
    16bc:	00500001 	subseq	r0, r0, r1
    16c0:	00000000 	andeq	r0, r0, r0
    16c4:	0c000000 	stceq	0, cr0, [r0], {-0}
    16c8:	20000000 	andcs	r0, r0, r0
    16cc:	01000000 	mrseq	r0, (UNDEF: 0)
    16d0:	00005100 	andeq	r5, r0, r0, lsl #2
    16d4:	00000000 	andeq	r0, r0, r0
    16d8:	000c0000 	andeq	r0, ip, r0
    16dc:	00200000 	eoreq	r0, r0, r0
    16e0:	00010000 	andeq	r0, r1, r0
    16e4:	00002051 	andeq	r2, r0, r1, asr r0
    16e8:	00002400 	andeq	r2, r0, r0, lsl #8
    16ec:	71000500 	tstvc	r0, r0, lsl #10
    16f0:	9f243100 	svcls	0x00243100
    16f4:	00000024 	andeq	r0, r0, r4, lsr #32
    16f8:	00000028 	andeq	r0, r0, r8, lsr #32
    16fc:	30510001 	subscc	r0, r1, r1
    1700:	58000000 	stmdapl	r0, {}	; <UNPREDICTABLE>
    1704:	01000000 	mrseq	r0, (UNDEF: 0)
    1708:	00005100 	andeq	r5, r0, r0, lsl #2
    170c:	00000000 	andeq	r0, r0, r0
    1710:	000c0000 	andeq	r0, ip, r0
    1714:	00300000 	eorseq	r0, r0, r0
    1718:	00020000 	andeq	r0, r2, r0
    171c:	00309f30 	eorseq	r9, r0, r0, lsr pc
    1720:	00400000 	subeq	r0, r0, r0
    1724:	00010000 	andeq	r0, r1, r0
    1728:	00004452 	andeq	r4, r0, r2, asr r4
    172c:	00005000 	andeq	r5, r0, r0
    1730:	52000100 	andpl	r0, r0, #0
	...
    173c:	0000000c 	andeq	r0, r0, ip
    1740:	00000020 	andeq	r0, r0, r0, lsr #32
    1744:	9f300002 	svcls	0x00300002
    1748:	00000028 	andeq	r0, r0, r8, lsr #32
    174c:	0000002c 	andeq	r0, r0, ip, lsr #32
    1750:	30530001 	subscc	r0, r3, r1
    1754:	48000000 	stmdami	r0, {}	; <UNPREDICTABLE>
    1758:	01000000 	mrseq	r0, (UNDEF: 0)
    175c:	00005300 	andeq	r5, r0, r0, lsl #6
	...
    1768:	00100000 	andseq	r0, r0, r0
    176c:	00020000 	andeq	r0, r2, r0
    1770:	0010007d 	andseq	r0, r0, sp, ror r0
    1774:	00900000 	addseq	r0, r0, r0
    1778:	00020000 	andeq	r0, r2, r0
    177c:	0000087d 	andeq	r0, r0, sp, ror r8
	...
    1788:	00300000 	eorseq	r0, r0, r0
    178c:	00020000 	andeq	r0, r2, r0
    1790:	006c9f30 	rsbeq	r9, ip, r0, lsr pc
    1794:	007f0000 	rsbseq	r0, pc, r0
    1798:	00010000 	andeq	r0, r1, r0
    179c:	00000051 	andeq	r0, r0, r1, asr r0
    17a0:	00000000 	andeq	r0, r0, r0
    17a4:	00009000 	andeq	r9, r0, r0
    17a8:	00009800 	andeq	r9, r0, r0, lsl #16
    17ac:	7d000200 	sfmvc	f0, 4, [r0, #-0]
    17b0:	00009800 	andeq	r9, r0, r0, lsl #16
    17b4:	0000e400 	andeq	lr, r0, r0, lsl #8
    17b8:	7d000200 	sfmvc	f0, 4, [r0, #-0]
    17bc:	00000008 	andeq	r0, r0, r8
    17c0:	00000000 	andeq	r0, r0, r0
    17c4:	00009000 	andeq	r9, r0, r0
    17c8:	0000b000 	andeq	fp, r0, r0
    17cc:	30000200 	andcc	r0, r0, r0, lsl #4
    17d0:	0000cc9f 	muleq	r0, pc, ip	; <UNPREDICTABLE>
    17d4:	0000e400 	andeq	lr, r0, r0, lsl #8
    17d8:	53000100 	movwpl	r0, #256	; 0x100
	...
    17e4:	000000a0 	andeq	r0, r0, r0, lsr #1
    17e8:	000000b4 	strheq	r0, [r0], -r4
    17ec:	74910002 	ldrvc	r0, [r1], #2
    17f0:	000000b4 	strheq	r0, [r0], -r4
    17f4:	000000bc 	strheq	r0, [r0], -ip
    17f8:	bc510001 	mrrclt	0, 0, r0, r1, cr1
    17fc:	e4000000 	str	r0, [r0], #-0
    1800:	02000000 	andeq	r0, r0, #0
    1804:	00749100 	rsbseq	r9, r4, r0, lsl #2
    1808:	00000000 	andeq	r0, r0, r0
    180c:	e4000000 	str	r0, [r0], #-0
    1810:	ec000000 	stc	0, cr0, [r0], {-0}
    1814:	02000000 	andeq	r0, r0, #0
    1818:	ec007d00 	stc	13, cr7, [r0], {-0}
    181c:	3c000000 	stccc	0, cr0, [r0], {-0}
    1820:	02000001 	andeq	r0, r0, #1
    1824:	00087d00 	andeq	r7, r8, r0, lsl #26
    1828:	00000000 	andeq	r0, r0, r0
    182c:	e4000000 	str	r0, [r0], #-0
    1830:	24000000 	strcs	r0, [r0], #-0
    1834:	01000001 	tsteq	r0, r1
    1838:	00005000 	andeq	r5, r0, r0
    183c:	00000000 	andeq	r0, r0, r0
    1840:	00e40000 	rsceq	r0, r4, r0
    1844:	01240000 	teqeq	r4, r0
    1848:	00050000 	andeq	r0, r5, r0
    184c:	25350070 	ldrcs	r0, [r5, #-112]!	; 0x70
    1850:	0000009f 	muleq	r0, pc, r0	; <UNPREDICTABLE>
    1854:	00000000 	andeq	r0, r0, r0
    1858:	0000e400 	andeq	lr, r0, r0, lsl #8
    185c:	00012400 	andeq	r2, r1, r0, lsl #8
    1860:	70000500 	andvc	r0, r0, r0, lsl #10
    1864:	9f1a4f00 	svcls	0x001a4f00
    1868:	00000124 	andeq	r0, r0, r4, lsr #2
    186c:	0000013c 	andeq	r0, r0, ip, lsr r1
    1870:	00550001 	subseq	r0, r5, r1
    1874:	00000000 	andeq	r0, r0, r0
    1878:	3c000000 	stccc	0, cr0, [r0], {-0}
    187c:	6c000001 	stcvs	0, cr0, [r0], {1}
    1880:	01000001 	tsteq	r0, r1
    1884:	00005000 	andeq	r5, r0, r0
    1888:	00000000 	andeq	r0, r0, r0
    188c:	013c0000 	teqeq	ip, r0
    1890:	01700000 	cmneq	r0, r0
    1894:	00020000 	andeq	r0, r2, r0
    1898:	00009f30 	andeq	r9, r0, r0, lsr pc
    189c:	00000000 	andeq	r0, r0, r0
    18a0:	013c0000 	teqeq	ip, r0
    18a4:	016c0000 	cmneq	ip, r0
    18a8:	00050000 	andeq	r0, r5, r0
    18ac:	25350070 	ldrcs	r0, [r5, #-112]!	; 0x70
    18b0:	0000009f 	muleq	r0, pc, r0	; <UNPREDICTABLE>
    18b4:	00000000 	andeq	r0, r0, r0
    18b8:	00013c00 	andeq	r3, r1, r0, lsl #24
    18bc:	00016c00 	andeq	r6, r1, r0, lsl #24
    18c0:	70000500 	andvc	r0, r0, r0, lsl #10
    18c4:	9f1a4f00 	svcls	0x001a4f00
    18c8:	0000016c 	andeq	r0, r0, ip, ror #2
    18cc:	00000184 	andeq	r0, r0, r4, lsl #3
    18d0:	00500001 	subseq	r0, r0, r1
	...
    18dc:	10000000 	andne	r0, r0, r0
    18e0:	01000000 	mrseq	r0, (UNDEF: 0)
    18e4:	00105000 	andseq	r5, r0, r0
    18e8:	00600000 	rsbeq	r0, r0, r0
    18ec:	00010000 	andeq	r0, r1, r0
    18f0:	00000052 	andeq	r0, r0, r2, asr r0
    18f4:	00000000 	andeq	r0, r0, r0
    18f8:	00006000 	andeq	r6, r0, r0
    18fc:	00007800 	andeq	r7, r0, r0, lsl #16
    1900:	50000100 	andpl	r0, r0, r0, lsl #2
    1904:	00000078 	andeq	r0, r0, r8, ror r0
    1908:	000000a8 	andeq	r0, r0, r8, lsr #1
    190c:	00520001 	subseq	r0, r2, r1
	...
    1918:	10000000 	andne	r0, r0, r0
    191c:	01000000 	mrseq	r0, (UNDEF: 0)
    1920:	00105000 	andseq	r5, r0, r0
    1924:	009c0000 	addseq	r0, ip, r0
    1928:	00010000 	andeq	r0, r1, r0
    192c:	00000052 	andeq	r0, r0, r2, asr r0
    1930:	00000000 	andeq	r0, r0, r0
    1934:	00009c00 	andeq	r9, r0, r0, lsl #24
    1938:	0000a000 	andeq	sl, r0, r0
    193c:	7d000200 	sfmvc	f0, 4, [r0, #-0]
    1940:	0000a000 	andeq	sl, r0, r0
    1944:	00018800 	andeq	r8, r1, r0, lsl #16
    1948:	7d000200 	sfmvc	f0, 4, [r0, #-0]
    194c:	00000010 	andeq	r0, r0, r0, lsl r0
    1950:	00000000 	andeq	r0, r0, r0
    1954:	00009c00 	andeq	r9, r0, r0, lsl #24
    1958:	0000b800 	andeq	fp, r0, r0, lsl #16
    195c:	50000100 	andpl	r0, r0, r0, lsl #2
    1960:	000000b8 	strheq	r0, [r0], -r8
    1964:	00000188 	andeq	r0, r0, r8, lsl #3
    1968:	00540001 	subseq	r0, r4, r1
    196c:	00000000 	andeq	r0, r0, r0
    1970:	88000000 	stmdahi	r0, {}	; <UNPREDICTABLE>
    1974:	a4000001 	strge	r0, [r0], #-1
    1978:	01000001 	tsteq	r0, r1
    197c:	00005000 	andeq	r5, r0, r0
    1980:	00000000 	andeq	r0, r0, r0
    1984:	01b80000 			; <UNDEFINED> instruction: 0x01b80000
    1988:	01d40000 	bicseq	r0, r4, r0
    198c:	00010000 	andeq	r0, r1, r0
    1990:	0001d450 	andeq	sp, r1, r0, asr r4
    1994:	0001e800 	andeq	lr, r1, r0, lsl #16
    1998:	52000100 	andpl	r0, r0, #0
    199c:	000001f0 	strdeq	r0, [r0], -r0	; <UNPREDICTABLE>
    19a0:	000001f4 	strdeq	r0, [r0], -r4
    19a4:	f4500001 			; <UNDEFINED> instruction: 0xf4500001
    19a8:	fc000001 	stc2	0, cr0, [r0], {1}
    19ac:	01000001 	tsteq	r0, r1
    19b0:	00005200 	andeq	r5, r0, r0, lsl #4
    19b4:	00000000 	andeq	r0, r0, r0
    19b8:	01fc0000 	mvnseq	r0, r0
    19bc:	02080000 	andeq	r0, r8, #0
    19c0:	00010000 	andeq	r0, r1, r0
    19c4:	00020850 	andeq	r0, r2, r0, asr r8
    19c8:	00022c00 	andeq	r2, r2, r0, lsl #24
    19cc:	53000100 	movwpl	r0, #256	; 0x100
	...
    19d8:	0000022c 	andeq	r0, r0, ip, lsr #4
    19dc:	0000024c 	andeq	r0, r0, ip, asr #4
    19e0:	4c500001 	mrrcmi	0, 0, r0, r0, cr1	; <UNPREDICTABLE>
    19e4:	70000002 	andvc	r0, r0, r2
    19e8:	01000002 	tsteq	r0, r2
    19ec:	00005200 	andeq	r5, r0, r0, lsl #4
    19f0:	00000000 	andeq	r0, r0, r0
    19f4:	027c0000 	rsbseq	r0, ip, #0
    19f8:	028c0000 	addeq	r0, ip, #0
    19fc:	00010000 	andeq	r0, r1, r0
    1a00:	00028c50 	andeq	r8, r2, r0, asr ip
    1a04:	0002b800 	andeq	fp, r2, r0, lsl #16
    1a08:	53000100 	movwpl	r0, #256	; 0x100
	...
    1a14:	000002b8 			; <UNDEFINED> instruction: 0x000002b8
    1a18:	000002c8 	andeq	r0, r0, r8, asr #5
    1a1c:	c8500001 	ldmdagt	r0, {r0}^
    1a20:	e8000002 	stmda	r0, {r1}
    1a24:	01000002 	tsteq	r0, r2
    1a28:	00005200 	andeq	r5, r0, r0, lsl #4
    1a2c:	00000000 	andeq	r0, r0, r0
    1a30:	02f00000 	rscseq	r0, r0, #0
    1a34:	03000000 	movweq	r0, #0
    1a38:	00010000 	andeq	r0, r1, r0
    1a3c:	00030050 	andeq	r0, r3, r0, asr r0
    1a40:	00031c00 	andeq	r1, r3, r0, lsl #24
    1a44:	53000100 	movwpl	r0, #256	; 0x100
	...

Disassembly of section .debug_frame:

00000000 <.debug_frame>:
   0:	0000000c 	andeq	r0, r0, ip
   4:	ffffffff 			; <UNDEFINED> instruction: 0xffffffff
   8:	7c020001 	stcvc	0, cr0, [r2], {1}
   c:	000d0c0e 	andeq	r0, sp, lr, lsl #24
  10:	0000000c 	andeq	r0, r0, ip
  14:	00000000 	andeq	r0, r0, r0
  18:	00000090 	muleq	r0, r0, r0
  1c:	00000024 	andeq	r0, r0, r4, lsr #32
  20:	0000000c 	andeq	r0, r0, ip
  24:	ffffffff 			; <UNDEFINED> instruction: 0xffffffff
  28:	7c020001 	stcvc	0, cr0, [r2], {1}
  2c:	000d0c0e 	andeq	r0, sp, lr, lsl #24
  30:	00000010 	andeq	r0, r0, r0, lsl r0
  34:	00000020 	andeq	r0, r0, r0, lsr #32
  38:	000000dc 	ldrdeq	r0, [r0], -ip
  3c:	00000044 	andeq	r0, r0, r4, asr #32
  40:	00080e44 	andeq	r0, r8, r4, asr #28
  44:	00000018 	andeq	r0, r0, r8, lsl r0
  48:	00000020 	andeq	r0, r0, r0, lsr #32
  4c:	00000120 	andeq	r0, r0, r0, lsr #2
  50:	000000ac 	andeq	r0, r0, ip, lsr #1
  54:	8e100e42 	cdphi	14, 1, cr0, cr0, cr2, {2}
  58:	84028501 	strhi	r8, [r2], #-1281	; 0x501
  5c:	00048303 	andeq	r8, r4, r3, lsl #6
  60:	0000000c 	andeq	r0, r0, ip
  64:	ffffffff 			; <UNDEFINED> instruction: 0xffffffff
  68:	7c020001 	stcvc	0, cr0, [r2], {1}
  6c:	000d0c0e 	andeq	r0, sp, lr, lsl #24
  70:	00000014 	andeq	r0, r0, r4, lsl r0
  74:	00000060 	andeq	r0, r0, r0, rrx
  78:	000001cc 	andeq	r0, r0, ip, asr #3
  7c:	000000d8 	ldrdeq	r0, [r0], -r8
  80:	8e080e42 	cdphi	14, 0, cr0, cr8, cr2, {2}
  84:	00028401 	andeq	r8, r2, r1, lsl #8
  88:	0000001c 	andeq	r0, r0, ip, lsl r0
  8c:	00000060 	andeq	r0, r0, r0, rrx
  90:	000002a4 	andeq	r0, r0, r4, lsr #5
  94:	000002c4 	andeq	r0, r0, r4, asr #5
  98:	8e180e42 	cdphi	14, 1, cr0, cr8, cr2, {2}
  9c:	86028701 	strhi	r8, [r2], -r1, lsl #14
  a0:	84048503 	strhi	r8, [r4], #-1283	; 0x503
  a4:	00068305 	andeq	r8, r6, r5, lsl #6
  a8:	0000000c 	andeq	r0, r0, ip
  ac:	ffffffff 			; <UNDEFINED> instruction: 0xffffffff
  b0:	7c020001 	stcvc	0, cr0, [r2], {1}
  b4:	000d0c0e 	andeq	r0, sp, lr, lsl #24
  b8:	00000010 	andeq	r0, r0, r0, lsl r0
  bc:	000000a8 	andeq	r0, r0, r8, lsr #1
  c0:	00000568 	andeq	r0, r0, r8, ror #10
  c4:	00000020 	andeq	r0, r0, r0, lsr #32
  c8:	00080e42 	andeq	r0, r8, r2, asr #28
  cc:	00000010 	andeq	r0, r0, r0, lsl r0
  d0:	000000a8 	andeq	r0, r0, r8, lsr #1
  d4:	00000588 	andeq	r0, r0, r8, lsl #11
  d8:	00000020 	andeq	r0, r0, r0, lsr #32
  dc:	00080e42 	andeq	r0, r8, r2, asr #28
  e0:	0000000c 	andeq	r0, r0, ip
  e4:	000000a8 	andeq	r0, r0, r8, lsr #1
  e8:	000005a8 	andeq	r0, r0, r8, lsr #11
  ec:	00000004 	andeq	r0, r0, r4
  f0:	0000000c 	andeq	r0, r0, ip
  f4:	000000a8 	andeq	r0, r0, r8, lsr #1
  f8:	000005ac 	andeq	r0, r0, ip, lsr #11
  fc:	00000004 	andeq	r0, r0, r4
 100:	00000010 	andeq	r0, r0, r0, lsl r0
 104:	000000a8 	andeq	r0, r0, r8, lsr #1
 108:	000005b0 			; <UNDEFINED> instruction: 0x000005b0
 10c:	00000020 	andeq	r0, r0, r0, lsr #32
 110:	00080e42 	andeq	r0, r8, r2, asr #28
 114:	0000000c 	andeq	r0, r0, ip
 118:	000000a8 	andeq	r0, r0, r8, lsr #1
 11c:	000005d0 	ldrdeq	r0, [r0], -r0	; <UNPREDICTABLE>
 120:	00000010 	andeq	r0, r0, r0, lsl r0
 124:	00000010 	andeq	r0, r0, r0, lsl r0
 128:	000000a8 	andeq	r0, r0, r8, lsr #1
 12c:	000005e0 	andeq	r0, r0, r0, ror #11
 130:	0000001c 	andeq	r0, r0, ip, lsl r0
 134:	00080e42 	andeq	r0, r8, r2, asr #28
 138:	00000010 	andeq	r0, r0, r0, lsl r0
 13c:	000000a8 	andeq	r0, r0, r8, lsr #1
 140:	000005fc 	strdeq	r0, [r0], -ip
 144:	0000001c 	andeq	r0, r0, ip, lsl r0
 148:	00080e42 	andeq	r0, r8, r2, asr #28
 14c:	0000000c 	andeq	r0, r0, ip
 150:	000000a8 	andeq	r0, r0, r8, lsr #1
 154:	00000618 	andeq	r0, r0, r8, lsl r6
 158:	00000018 	andeq	r0, r0, r8, lsl r0
 15c:	0000000c 	andeq	r0, r0, ip
 160:	000000a8 	andeq	r0, r0, r8, lsr #1
 164:	00000630 	andeq	r0, r0, r0, lsr r6
 168:	00000018 	andeq	r0, r0, r8, lsl r0
 16c:	0000000c 	andeq	r0, r0, ip
 170:	000000a8 	andeq	r0, r0, r8, lsr #1
 174:	00000648 	andeq	r0, r0, r8, asr #12
 178:	00000018 	andeq	r0, r0, r8, lsl r0
 17c:	00000018 	andeq	r0, r0, r8, lsl r0
 180:	000000a8 	andeq	r0, r0, r8, lsr #1
 184:	00000660 	andeq	r0, r0, r0, ror #12
 188:	00000034 	andeq	r0, r0, r4, lsr r0
 18c:	8e100e42 	cdphi	14, 1, cr0, cr0, cr2, {2}
 190:	85028601 	strhi	r8, [r2, #-1537]	; 0x601
 194:	00048403 	andeq	r8, r4, r3, lsl #8
 198:	0000000c 	andeq	r0, r0, ip
 19c:	ffffffff 			; <UNDEFINED> instruction: 0xffffffff
 1a0:	7c020001 	stcvc	0, cr0, [r2], {1}
 1a4:	000d0c0e 	andeq	r0, sp, lr, lsl #24
 1a8:	0000000c 	andeq	r0, r0, ip
 1ac:	00000198 	muleq	r0, r8, r1
 1b0:	00000694 	muleq	r0, r4, r6
 1b4:	0000002c 	andeq	r0, r0, ip, lsr #32
 1b8:	0000000c 	andeq	r0, r0, ip
 1bc:	00000198 	muleq	r0, r8, r1
 1c0:	000006c0 	andeq	r0, r0, r0, asr #13
 1c4:	0000001c 	andeq	r0, r0, ip, lsl r0
 1c8:	0000000c 	andeq	r0, r0, ip
 1cc:	00000198 	muleq	r0, r8, r1
 1d0:	000006dc 	ldrdeq	r0, [r0], -ip
 1d4:	00000024 	andeq	r0, r0, r4, lsr #32
 1d8:	0000000c 	andeq	r0, r0, ip
 1dc:	00000198 	muleq	r0, r8, r1
 1e0:	00000700 	andeq	r0, r0, r0, lsl #14
 1e4:	00000008 	andeq	r0, r0, r8
 1e8:	0000000c 	andeq	r0, r0, ip
 1ec:	00000198 	muleq	r0, r8, r1
 1f0:	00000708 	andeq	r0, r0, r8, lsl #14
 1f4:	00000014 	andeq	r0, r0, r4, lsl r0
 1f8:	00000018 	andeq	r0, r0, r8, lsl r0
 1fc:	00000198 	muleq	r0, r8, r1
 200:	0000071c 	andeq	r0, r0, ip, lsl r7
 204:	000000fc 	strdeq	r0, [r0], -ip
 208:	8e080e4a 	cdphi	14, 0, cr0, cr8, cr10, {2}
 20c:	44028401 	strmi	r8, [r2], #-1025	; 0x401
 210:	0000100e 	andeq	r1, r0, lr
 214:	00000018 	andeq	r0, r0, r8, lsl r0
 218:	00000198 	muleq	r0, r8, r1
 21c:	00000818 	andeq	r0, r0, r8, lsl r8
 220:	00000058 	andeq	r0, r0, r8, asr r0
 224:	8e100e42 	cdphi	14, 1, cr0, cr0, cr2, {2}
 228:	84028501 	strhi	r8, [r2], #-1281	; 0x501
 22c:	00048303 	andeq	r8, r4, r3, lsl #6
 230:	0000000c 	andeq	r0, r0, ip
 234:	00000198 	muleq	r0, r8, r1
 238:	00000870 	andeq	r0, r0, r0, ror r8
 23c:	0000000c 	andeq	r0, r0, ip
 240:	0000000c 	andeq	r0, r0, ip
 244:	00000198 	muleq	r0, r8, r1
 248:	0000087c 	andeq	r0, r0, ip, ror r8
 24c:	0000002c 	andeq	r0, r0, ip, lsr #32
 250:	0000000c 	andeq	r0, r0, ip
 254:	00000198 	muleq	r0, r8, r1
 258:	000008a8 	andeq	r0, r0, r8, lsr #17
 25c:	0000002c 	andeq	r0, r0, ip, lsr #32
 260:	0000000c 	andeq	r0, r0, ip
 264:	00000198 	muleq	r0, r8, r1
 268:	000008d4 	ldrdeq	r0, [r0], -r4
 26c:	0000002c 	andeq	r0, r0, ip, lsr #32
 270:	0000000c 	andeq	r0, r0, ip
 274:	ffffffff 			; <UNDEFINED> instruction: 0xffffffff
 278:	7c020001 	stcvc	0, cr0, [r2], {1}
 27c:	000d0c0e 	andeq	r0, sp, lr, lsl #24
 280:	0000000c 	andeq	r0, r0, ip
 284:	00000270 	andeq	r0, r0, r0, ror r2
 288:	00000900 	andeq	r0, r0, r0, lsl #18
 28c:	0000003c 	andeq	r0, r0, ip, lsr r0
 290:	0000000c 	andeq	r0, r0, ip
 294:	00000270 	andeq	r0, r0, r0, ror r2
 298:	0000093c 	andeq	r0, r0, ip, lsr r9
 29c:	00000064 	andeq	r0, r0, r4, rrx
 2a0:	0000000c 	andeq	r0, r0, ip
 2a4:	ffffffff 			; <UNDEFINED> instruction: 0xffffffff
 2a8:	7c020001 	stcvc	0, cr0, [r2], {1}
 2ac:	000d0c0e 	andeq	r0, sp, lr, lsl #24
 2b0:	0000000c 	andeq	r0, r0, ip
 2b4:	000002a0 	andeq	r0, r0, r0, lsr #5
 2b8:	00000f00 	andeq	r0, r0, r0, lsl #30
 2bc:	0000010c 	andeq	r0, r0, ip, lsl #2
 2c0:	0000000c 	andeq	r0, r0, ip
 2c4:	000002a0 	andeq	r0, r0, r0, lsr #5
 2c8:	0000100c 	andeq	r1, r0, ip
 2cc:	000000d4 	ldrdeq	r0, [r0], -r4
 2d0:	0000000c 	andeq	r0, r0, ip
 2d4:	000002a0 	andeq	r0, r0, r0, lsr #5
 2d8:	000010e0 	andeq	r1, r0, r0, ror #1
 2dc:	00000018 	andeq	r0, r0, r8, lsl r0
 2e0:	0000000c 	andeq	r0, r0, ip
 2e4:	000002a0 	andeq	r0, r0, r0, lsr #5
 2e8:	000010f8 	strdeq	r1, [r0], -r8
 2ec:	000000a8 	andeq	r0, r0, r8, lsr #1
 2f0:	0000000c 	andeq	r0, r0, ip
 2f4:	000002a0 	andeq	r0, r0, r0, lsr #5
 2f8:	000011a0 	andeq	r1, r0, r0, lsr #3
 2fc:	0000000c 	andeq	r0, r0, ip
 300:	0000000c 	andeq	r0, r0, ip
 304:	000002a0 	andeq	r0, r0, r0, lsr #5
 308:	000011ac 	andeq	r1, r0, ip, lsr #3
 30c:	0000000c 	andeq	r0, r0, ip
 310:	0000000c 	andeq	r0, r0, ip
 314:	000002a0 	andeq	r0, r0, r0, lsr #5
 318:	000011b8 			; <UNDEFINED> instruction: 0x000011b8
 31c:	00000014 	andeq	r0, r0, r4, lsl r0
 320:	0000000c 	andeq	r0, r0, ip
 324:	000002a0 	andeq	r0, r0, r0, lsr #5
 328:	000011cc 	andeq	r1, r0, ip, asr #3
 32c:	00000010 	andeq	r0, r0, r0, lsl r0
 330:	0000000c 	andeq	r0, r0, ip
 334:	ffffffff 			; <UNDEFINED> instruction: 0xffffffff
 338:	7c020001 	stcvc	0, cr0, [r2], {1}
 33c:	000d0c0e 	andeq	r0, sp, lr, lsl #24
 340:	00000018 	andeq	r0, r0, r8, lsl r0
 344:	00000330 	andeq	r0, r0, r0, lsr r3
 348:	000011dc 	ldrdeq	r1, [r0], -ip
 34c:	00000114 	andeq	r0, r0, r4, lsl r1
 350:	8e100e42 	cdphi	14, 1, cr0, cr0, cr2, {2}
 354:	85028601 	strhi	r8, [r2, #-1537]	; 0x601
 358:	00048403 	andeq	r8, r4, r3, lsl #8
 35c:	00000018 	andeq	r0, r0, r8, lsl r0
 360:	00000330 	andeq	r0, r0, r0, lsr r3
 364:	000012f0 	strdeq	r1, [r0], -r0
 368:	000000a0 	andeq	r0, r0, r0, lsr #1
 36c:	8e100e42 	cdphi	14, 1, cr0, cr0, cr2, {2}
 370:	84028501 	strhi	r8, [r2], #-1281	; 0x501
 374:	00048303 	andeq	r8, r4, r3, lsl #6
 378:	00000014 	andeq	r0, r0, r4, lsl r0
 37c:	00000330 	andeq	r0, r0, r0, lsr r3
 380:	00001390 	muleq	r0, r0, r3
 384:	00000090 	muleq	r0, r0, r0
 388:	84040e44 	strhi	r0, [r4], #-3652	; 0xe44
 38c:	00000001 	andeq	r0, r0, r1
 390:	00000014 	andeq	r0, r0, r4, lsl r0
 394:	00000330 	andeq	r0, r0, r0, lsr r3
 398:	00001420 	andeq	r1, r0, r0, lsr #8
 39c:	0000008c 	andeq	r0, r0, ip, lsl #1
 3a0:	84040e44 	strhi	r0, [r4], #-3652	; 0xe44
 3a4:	00000001 	andeq	r0, r0, r1
 3a8:	00000018 	andeq	r0, r0, r8, lsl r0
 3ac:	00000330 	andeq	r0, r0, r0, lsr r3
 3b0:	000014ac 	andeq	r1, r0, ip, lsr #9
 3b4:	000000a0 	andeq	r0, r0, r0, lsr #1
 3b8:	8e100e42 	cdphi	14, 1, cr0, cr0, cr2, {2}
 3bc:	84028501 	strhi	r8, [r2], #-1281	; 0x501
 3c0:	00048303 	andeq	r8, r4, r3, lsl #6
 3c4:	0000000c 	andeq	r0, r0, ip
 3c8:	00000330 	andeq	r0, r0, r0, lsr r3
 3cc:	0000154c 	andeq	r1, r0, ip, asr #10
 3d0:	00000034 	andeq	r0, r0, r4, lsr r0
 3d4:	00000014 	andeq	r0, r0, r4, lsl r0
 3d8:	00000330 	andeq	r0, r0, r0, lsr r3
 3dc:	00001580 	andeq	r1, r0, r0, lsl #11
 3e0:	00000090 	muleq	r0, r0, r0
 3e4:	84040e44 	strhi	r0, [r4], #-3652	; 0xe44
 3e8:	00000001 	andeq	r0, r0, r1
 3ec:	00000014 	andeq	r0, r0, r4, lsl r0
 3f0:	00000330 	andeq	r0, r0, r0, lsr r3
 3f4:	00001610 	andeq	r1, r0, r0, lsl r6
 3f8:	0000008c 	andeq	r0, r0, ip, lsl #1
 3fc:	84040e44 	strhi	r0, [r4], #-3652	; 0xe44
 400:	00000001 	andeq	r0, r0, r1
 404:	0000000c 	andeq	r0, r0, ip
 408:	ffffffff 			; <UNDEFINED> instruction: 0xffffffff
 40c:	7c020001 	stcvc	0, cr0, [r2], {1}
 410:	000d0c0e 	andeq	r0, sp, lr, lsl #24
 414:	0000000c 	andeq	r0, r0, ip
 418:	00000404 	andeq	r0, r0, r4, lsl #8
 41c:	0000169c 	muleq	r0, ip, r6
 420:	0000002c 	andeq	r0, r0, ip, lsr #32
 424:	0000000c 	andeq	r0, r0, ip
 428:	00000404 	andeq	r0, r0, r4, lsl #8
 42c:	000016c8 	andeq	r1, r0, r8, asr #13
 430:	0000001c 	andeq	r0, r0, ip, lsl r0
 434:	0000000c 	andeq	r0, r0, ip
 438:	00000404 	andeq	r0, r0, r4, lsl #8
 43c:	000016e4 	andeq	r1, r0, r4, ror #13
 440:	00000028 	andeq	r0, r0, r8, lsr #32
 444:	0000000c 	andeq	r0, r0, ip
 448:	00000404 	andeq	r0, r0, r4, lsl #8
 44c:	0000170c 	andeq	r1, r0, ip, lsl #14
 450:	00000040 	andeq	r0, r0, r0, asr #32
 454:	00000014 	andeq	r0, r0, r4, lsl r0
 458:	00000404 	andeq	r0, r0, r4, lsl #8
 45c:	0000174c 	andeq	r1, r0, ip, asr #14
 460:	00000068 	andeq	r0, r0, r8, rrx
 464:	84040e44 	strhi	r0, [r4], #-3652	; 0xe44
 468:	00000001 	andeq	r0, r0, r1
 46c:	0000000c 	andeq	r0, r0, ip
 470:	00000404 	andeq	r0, r0, r4, lsl #8
 474:	000017b4 			; <UNDEFINED> instruction: 0x000017b4
 478:	00000030 	andeq	r0, r0, r0, lsr r0
 47c:	0000000c 	andeq	r0, r0, ip
 480:	00000404 	andeq	r0, r0, r4, lsl #8
 484:	000017e4 	andeq	r1, r0, r4, ror #15
 488:	00000078 	andeq	r0, r0, r8, ror r0
 48c:	00000024 	andeq	r0, r0, r4, lsr #32
 490:	00000404 	andeq	r0, r0, r4, lsl #8
 494:	0000185c 	andeq	r1, r0, ip, asr r8
 498:	000000e4 	andeq	r0, r0, r4, ror #1
 49c:	8e200e42 	cdphi	14, 2, cr0, cr0, cr2, {2}
 4a0:	89028a01 	stmdbhi	r2, {r0, r9, fp, pc}
 4a4:	87048803 	strhi	r8, [r4, -r3, lsl #16]
 4a8:	85068605 	strhi	r8, [r6, #-1541]	; 0x605
 4ac:	4c088407 	cfstrsmi	mvf8, [r8], {7}
 4b0:	0000480e 	andeq	r4, r0, lr, lsl #16
 4b4:	00000020 	andeq	r0, r0, r0, lsr #32
 4b8:	00000404 	andeq	r0, r0, r4, lsl #8
 4bc:	00001940 	andeq	r1, r0, r0, asr #18
 4c0:	000000bc 	strheq	r0, [r0], -ip
 4c4:	8e1c0e42 	cdphi	14, 1, cr0, cr12, cr2, {2}
 4c8:	88028a01 	stmdahi	r2, {r0, r9, fp, pc}
 4cc:	86048703 	strhi	r8, [r4], -r3, lsl #14
 4d0:	84068505 	strhi	r8, [r6], #-1285	; 0x505
 4d4:	480e4c07 	stmdami	lr, {r0, r1, r2, sl, fp, lr}
 4d8:	0000001c 	andeq	r0, r0, ip, lsl r0
 4dc:	00000404 	andeq	r0, r0, r4, lsl #8
 4e0:	000019fc 	strdeq	r1, [r0], -ip
 4e4:	0000005c 	andeq	r0, r0, ip, asr r0
 4e8:	8e140e42 	cdphi	14, 1, cr0, cr4, cr2, {2}
 4ec:	86028701 	strhi	r8, [r2], -r1, lsl #14
 4f0:	84048503 	strhi	r8, [r4], #-1283	; 0x503
 4f4:	300e4c05 	andcc	r4, lr, r5, lsl #24
 4f8:	00000030 	andeq	r0, r0, r0, lsr r0
 4fc:	00000404 	andeq	r0, r0, r4, lsl #8
 500:	00001a58 	andeq	r1, r0, r8, asr sl
 504:	000002d4 	ldrdeq	r0, [r0], -r4
 508:	83100e42 	tsthi	r0, #1056	; 0x420
 50c:	81028201 	tsthi	r2, r1, lsl #4
 510:	42048003 	andmi	r8, r4, #3
 514:	058e300e 	streq	r3, [lr, #14]
 518:	0789068a 	streq	r0, [r9, sl, lsl #13]
 51c:	09870888 	stmibeq	r7, {r3, r7, fp}
 520:	0b850a86 	bleq	fe142f40 <__bss_end+0xfe1400b8>
 524:	0e420c84 	cdpeq	12, 4, cr0, cr2, cr4, {4}
 528:	00000048 	andeq	r0, r0, r8, asr #32
 52c:	00000030 	andeq	r0, r0, r0, lsr r0
 530:	00000404 	andeq	r0, r0, r4, lsl #8
 534:	00001d2c 	andeq	r1, r0, ip, lsr #26
 538:	000002d4 	ldrdeq	r0, [r0], -r4
 53c:	83100e42 	tsthi	r0, #1056	; 0x420
 540:	81028201 	tsthi	r2, r1, lsl #4
 544:	42048003 	andmi	r8, r4, #3
 548:	058e300e 	streq	r3, [lr, #14]
 54c:	0789068a 	streq	r0, [r9, sl, lsl #13]
 550:	09870888 	stmibeq	r7, {r3, r7, fp}
 554:	0b850a86 	bleq	fe142f74 <__bss_end+0xfe1400ec>
 558:	0e420c84 	cdpeq	12, 4, cr0, cr2, cr4, {4}
 55c:	00000048 	andeq	r0, r0, r8, asr #32
 560:	0000000c 	andeq	r0, r0, ip
 564:	ffffffff 			; <UNDEFINED> instruction: 0xffffffff
 568:	7c020001 	stcvc	0, cr0, [r2], {1}
 56c:	000d0c0e 	andeq	r0, sp, lr, lsl #24
 570:	0000000c 	andeq	r0, r0, ip
 574:	00000560 	andeq	r0, r0, r0, ror #10
 578:	000021dc 	ldrdeq	r2, [r0], -ip
 57c:	0000000c 	andeq	r0, r0, ip
 580:	0000000c 	andeq	r0, r0, ip
 584:	00000560 	andeq	r0, r0, r0, ror #10
 588:	000021e8 	andeq	r2, r0, r8, ror #3
 58c:	0000004c 	andeq	r0, r0, ip, asr #32
 590:	0000000c 	andeq	r0, r0, ip
 594:	ffffffff 			; <UNDEFINED> instruction: 0xffffffff
 598:	7c020001 	stcvc	0, cr0, [r2], {1}
 59c:	000d0c0e 	andeq	r0, sp, lr, lsl #24
 5a0:	00000014 	andeq	r0, r0, r4, lsl r0
 5a4:	00000590 	muleq	r0, r0, r5
 5a8:	00002234 	andeq	r2, r0, r4, lsr r2
 5ac:	00000090 	muleq	r0, r0, r0
 5b0:	8e080e48 	cdphi	14, 0, cr0, cr8, cr8, {2}
 5b4:	00028401 	andeq	r8, r2, r1, lsl #8
 5b8:	00000010 	andeq	r0, r0, r0, lsl r0
 5bc:	00000590 	muleq	r0, r0, r5
 5c0:	000022c4 	andeq	r2, r0, r4, asr #5
 5c4:	00000054 	andeq	r0, r0, r4, asr r0
 5c8:	00080e44 	andeq	r0, r8, r4, asr #28
 5cc:	00000014 	andeq	r0, r0, r4, lsl r0
 5d0:	00000590 	muleq	r0, r0, r5
 5d4:	00002318 	andeq	r2, r0, r8, lsl r3
 5d8:	00000058 	andeq	r0, r0, r8, asr r0
 5dc:	85080e44 	strhi	r0, [r8, #-3652]	; 0xe44
 5e0:	00028401 	andeq	r8, r2, r1, lsl #8
 5e4:	0000000c 	andeq	r0, r0, ip
 5e8:	00000590 	muleq	r0, r0, r5
 5ec:	00002370 	andeq	r2, r0, r0, ror r3
 5f0:	00000050 	andeq	r0, r0, r0, asr r0
 5f4:	0000000c 	andeq	r0, r0, ip
 5f8:	ffffffff 			; <UNDEFINED> instruction: 0xffffffff
 5fc:	7c020001 	stcvc	0, cr0, [r2], {1}
 600:	000d0c0e 	andeq	r0, sp, lr, lsl #24
 604:	0000000c 	andeq	r0, r0, ip
 608:	000005f4 	strdeq	r0, [r0], -r4
 60c:	000023c0 	andeq	r2, r0, r0, asr #7
 610:	00000060 	andeq	r0, r0, r0, rrx
 614:	0000000c 	andeq	r0, r0, ip
 618:	000005f4 	strdeq	r0, [r0], -r4
 61c:	00002420 	andeq	r2, r0, r0, lsr #8
 620:	00000050 	andeq	r0, r0, r0, asr r0
 624:	0000000c 	andeq	r0, r0, ip
 628:	000005f4 	strdeq	r0, [r0], -r4
 62c:	00002470 	andeq	r2, r0, r0, ror r4
 630:	00000038 	andeq	r0, r0, r8, lsr r0
 634:	0000000c 	andeq	r0, r0, ip
 638:	000005f4 	strdeq	r0, [r0], -r4
 63c:	000024a8 	andeq	r2, r0, r8, lsr #9
 640:	00000028 	andeq	r0, r0, r8, lsr #32
 644:	0000000c 	andeq	r0, r0, ip
 648:	000005f4 	strdeq	r0, [r0], -r4
 64c:	000024d0 	ldrdeq	r2, [r0], -r0
 650:	00000048 	andeq	r0, r0, r8, asr #32
 654:	0000000c 	andeq	r0, r0, ip
 658:	000005f4 	strdeq	r0, [r0], -r4
 65c:	00002518 	andeq	r2, r0, r8, lsl r5
 660:	00000040 	andeq	r0, r0, r0, asr #32
 664:	0000000c 	andeq	r0, r0, ip
 668:	ffffffff 			; <UNDEFINED> instruction: 0xffffffff
 66c:	7c020001 	stcvc	0, cr0, [r2], {1}
 670:	000d0c0e 	andeq	r0, sp, lr, lsl #24
 674:	0000000c 	andeq	r0, r0, ip
 678:	00000664 	andeq	r0, r0, r4, ror #12
 67c:	00002558 	andeq	r2, r0, r8, asr r5
 680:	0000009c 	muleq	r0, ip, r0
 684:	00000018 	andeq	r0, r0, r8, lsl r0
 688:	00000664 	andeq	r0, r0, r4, ror #12
 68c:	000025f4 	strdeq	r2, [r0], -r4
 690:	000000ec 	andeq	r0, r0, ip, ror #1
 694:	8e100e42 	cdphi	14, 1, cr0, cr0, cr2, {2}
 698:	84028501 	strhi	r8, [r2], #-1281	; 0x501
 69c:	00048303 	andeq	r8, r4, r3, lsl #6
 6a0:	0000000c 	andeq	r0, r0, ip
 6a4:	00000664 	andeq	r0, r0, r4, ror #12
 6a8:	000026e0 	andeq	r2, r0, r0, ror #13
 6ac:	00000030 	andeq	r0, r0, r0, lsr r0
 6b0:	0000000c 	andeq	r0, r0, ip
 6b4:	00000664 	andeq	r0, r0, r4, ror #12
 6b8:	00002710 	andeq	r2, r0, r0, lsl r7
 6bc:	00000044 	andeq	r0, r0, r4, asr #32
 6c0:	0000000c 	andeq	r0, r0, ip
 6c4:	00000664 	andeq	r0, r0, r4, ror #12
 6c8:	00002754 	andeq	r2, r0, r4, asr r7
 6cc:	00000030 	andeq	r0, r0, r0, lsr r0
 6d0:	0000000c 	andeq	r0, r0, ip
 6d4:	00000664 	andeq	r0, r0, r4, ror #12
 6d8:	00002784 	andeq	r2, r0, r4, lsl #15
 6dc:	00000050 	andeq	r0, r0, r0, asr r0
 6e0:	0000000c 	andeq	r0, r0, ip
 6e4:	00000664 	andeq	r0, r0, r4, ror #12
 6e8:	000027d4 	ldrdeq	r2, [r0], -r4
 6ec:	0000003c 	andeq	r0, r0, ip, lsr r0
 6f0:	0000000c 	andeq	r0, r0, ip
 6f4:	00000664 	andeq	r0, r0, r4, ror #12
 6f8:	00002810 	andeq	r2, r0, r0, lsl r8
 6fc:	00000038 	andeq	r0, r0, r8, lsr r0
 700:	0000000c 	andeq	r0, r0, ip
 704:	00000664 	andeq	r0, r0, r4, ror #12
 708:	00002848 	andeq	r2, r0, r8, asr #16
 70c:	0000002c 	andeq	r0, r0, ip, lsr #32

Disassembly of section .debug_ranges:

00000000 <.debug_ranges>:
   0:	000000a0 	andeq	r0, r0, r0, lsr #1
   4:	000000f0 	strdeq	r0, [r0], -r0	; <UNPREDICTABLE>
   8:	000000f4 	strdeq	r0, [r0], -r4
   c:	00000108 	andeq	r0, r0, r8, lsl #2
	...
  18:	000000a0 	andeq	r0, r0, r0, lsr #1
  1c:	000000f0 	strdeq	r0, [r0], -r0	; <UNPREDICTABLE>
  20:	000000f4 	strdeq	r0, [r0], -r4
  24:	00000108 	andeq	r0, r0, r8, lsl #2
	...
  30:	00000118 	andeq	r0, r0, r8, lsl r1
  34:	0000011c 	andeq	r0, r0, ip, lsl r1
  38:	00000120 	andeq	r0, r0, r0, lsr #2
  3c:	00000144 	andeq	r0, r0, r4, asr #2
	...
  48:	00000118 	andeq	r0, r0, r8, lsl r1
  4c:	0000011c 	andeq	r0, r0, ip, lsl r1
  50:	00000120 	andeq	r0, r0, r0, lsr #2
  54:	00000144 	andeq	r0, r0, r4, asr #2
	...
  60:	000001d8 	ldrdeq	r0, [r0], -r8
  64:	000001dc 	ldrdeq	r0, [r0], -ip
  68:	000001e0 	andeq	r0, r0, r0, ror #3
  6c:	000001e8 	andeq	r0, r0, r8, ror #3
  70:	00000224 	andeq	r0, r0, r4, lsr #4
  74:	00000244 	andeq	r0, r0, r4, asr #4
	...
  80:	00000270 	andeq	r0, r0, r0, ror r2
  84:	00000274 	andeq	r0, r0, r4, ror r2
  88:	00000278 	andeq	r0, r0, r8, ror r2
  8c:	0000027c 	andeq	r0, r0, ip, ror r2
  90:	00000284 	andeq	r0, r0, r4, lsl #5
  94:	000002a0 	andeq	r0, r0, r0, lsr #5
  98:	000002a8 	andeq	r0, r0, r8, lsr #5
  9c:	000002b0 			; <UNDEFINED> instruction: 0x000002b0
	...
  a8:	00000270 	andeq	r0, r0, r0, ror r2
  ac:	00000274 	andeq	r0, r0, r4, ror r2
  b0:	00000278 	andeq	r0, r0, r8, ror r2
  b4:	0000027c 	andeq	r0, r0, ip, ror r2
  b8:	00000284 	andeq	r0, r0, r4, lsl #5
  bc:	000002a0 	andeq	r0, r0, r0, lsr #5
  c0:	000002a8 	andeq	r0, r0, r8, lsr #5
  c4:	000002b0 			; <UNDEFINED> instruction: 0x000002b0
	...
  d0:	000002d4 	ldrdeq	r0, [r0], -r4
  d4:	000002dc 	ldrdeq	r0, [r0], -ip
  d8:	000002e0 	andeq	r0, r0, r0, ror #5
  dc:	00000300 	andeq	r0, r0, r0, lsl #6
	...
  e8:	000002d4 	ldrdeq	r0, [r0], -r4
  ec:	000002dc 	ldrdeq	r0, [r0], -ip
  f0:	000002e0 	andeq	r0, r0, r0, ror #5
  f4:	00000300 	andeq	r0, r0, r0, lsl #6
	...
 100:	000003c8 	andeq	r0, r0, r8, asr #7
 104:	000003cc 	andeq	r0, r0, ip, asr #7
 108:	000003d0 	ldrdeq	r0, [r0], -r0	; <UNPREDICTABLE>
 10c:	000003d8 	ldrdeq	r0, [r0], -r8
 110:	00000414 	andeq	r0, r0, r4, lsl r4
 114:	00000434 	andeq	r0, r0, r4, lsr r4
	...
 120:	00000460 	andeq	r0, r0, r0, ror #8
 124:	00000464 	andeq	r0, r0, r4, ror #8
 128:	00000468 	andeq	r0, r0, r8, ror #8
 12c:	0000046c 	andeq	r0, r0, ip, ror #8
 130:	00000474 	andeq	r0, r0, r4, ror r4
 134:	00000490 	muleq	r0, r0, r4
 138:	00000498 	muleq	r0, r8, r4
 13c:	000004a0 	andeq	r0, r0, r0, lsr #9
	...
 148:	00000460 	andeq	r0, r0, r0, ror #8
 14c:	00000464 	andeq	r0, r0, r4, ror #8
 150:	00000468 	andeq	r0, r0, r8, ror #8
 154:	0000046c 	andeq	r0, r0, ip, ror #8
 158:	00000474 	andeq	r0, r0, r4, ror r4
 15c:	00000490 	muleq	r0, r0, r4
 160:	00000498 	muleq	r0, r8, r4
 164:	000004a0 	andeq	r0, r0, r0, lsr #9
	...
 170:	000003ec 	andeq	r0, r0, ip, ror #7
 174:	000003f0 	strdeq	r0, [r0], -r0	; <UNPREDICTABLE>
 178:	000004c0 	andeq	r0, r0, r0, asr #9
 17c:	00000530 	andeq	r0, r0, r0, lsr r5
 180:	00000534 	andeq	r0, r0, r4, lsr r5
 184:	00000538 	andeq	r0, r0, r8, lsr r5
 188:	000005e8 	andeq	r0, r0, r8, ror #11
 18c:	000005f0 	strdeq	r0, [r0], -r0	; <UNPREDICTABLE>
 190:	00000684 	andeq	r0, r0, r4, lsl #13
 194:	00000690 	muleq	r0, r0, r6
	...
